
test.elf:     file format elf32-littleriscv

Contents of section .text:
 10000 17210000 130101b0 97120000 938262af  .!............b.
 10010 17130000 1303e3ae 63d86200 23a00200  ........c.b.#...
 10020 93824200 6ff05fff ef00c048 9308d005  ..B.o._....H....
 10030 13050000 73000000 6f000000 130101fd  ....s...o.......
 10040 23261102 23248102 13040103 232ea4fc  #&..#$......#...
 10050 232cb4fc 832784fd 63960700 93070000  #,...'..c.......
 10060 6f00c008 232604fe 232404fe 9307f001  o...#&..#$......
 10070 2322f4fe 6f00c006 832784fe 93971700  #"..o....'......
 10080 2324f4fe 832744fe 0327c4fd b357f700  #$...'D..'...W..
 10090 93f71700 032784fe b367f700 2324f4fe  .....'...g..#$..
 100a0 032784fe 832784fd 6366f702 032784fe  .'...'..cf...'..
 100b0 832784fd b307f740 2324f4fe 832744fe  .'.....@#$...'D.
 100c0 13071000 b317f700 0327c4fe b367f700  .........'...g..
 100d0 2326f4fe 832744fe 9387f7ff 2322f4fe  #&...'D.....#"..
 100e0 832744fe e3da07f8 8327c4fe 13850700  .'D......'......
 100f0 8320c102 03248102 13010103 67800000  . ...$......g...
 10100 130101fd 23261102 23248102 13040103  ....#&..#$......
 10110 232ea4fc 232cb4fc 832784fd 63960700  #...#,...'..c...
 10120 93070000 6f000007 232604fe 9307f001  ....o...#&......
 10130 2324f4fe 6f004005 8327c4fe 93971700  #$..o.@..'......
 10140 2326f4fe 832784fe 0327c4fd b357f700  #&...'...'...W..
 10150 93f71700 0327c4fe b367f700 2326f4fe  .....'...g..#&..
 10160 0327c4fe 832784fd 636af700 0327c4fe  .'...'..cj...'..
 10170 832784fd b307f740 2326f4fe 832784fe  .'.....@#&...'..
 10180 9387f7ff 2324f4fe 832784fe e3d607fa  ....#$...'......
 10190 8327c4fe 13850700 8320c102 03248102  .'....... ...$..
 101a0 13010103 67800000 130101fd 23261102  ....g.......#&..
 101b0 23248102 13040103 232ea4fc 232cb4fc  #$......#...#,..
 101c0 232604fe 6f008003 832784fd 93f71700  #&..o....'......
 101d0 638a0700 0327c4fe 8327c4fd b307f700  c....'...'......
 101e0 2326f4fe 8327c4fd 93971700 232ef4fc  #&...'......#...
 101f0 832784fd 93d71700 232cf4fc 832784fd  .'......#,...'..
 10200 e39407fc 8327c4fe 13850700 8320c102  .....'....... ..
 10210 03248102 13010103 67800000 130101fe  .$......g.......
 10220 232e1100 232c8100 13040102 2326a4fe  #...#,......#&..
 10230 2324b4fe 832584fe 0325c4fe eff0dff6  #$...%...%......
 10240 93070500 13850700 8320c101 03248101  ......... ...$..
 10250 13010102 67800000 130101fc 232e1102  ....g.......#...
 10260 232c8102 13040104 2326a4fc 930784fd  #,......#&......
 10270 93873701 2326f4fe 8327c4fe 9387f7ff  ..7.#&...'......
 10280 2326f4fe 8327c4fc 63900706 8327c4fe  #&...'..c....'..
 10290 13070003 2380e700 8327c4fe 9387f7ff  ....#....'......
 102a0 2326f4fe 6f00c004 9305a000 0325c4fc  #&..o........%..
 102b0 eff01fe5 93070500 93f7f70f 93870703  ................
 102c0 13f7f70f 8327c4fe 2380e700 8327c4fe  .....'..#....'..
 102d0 9387f7ff 2326f4fe 9305a000 0325c4fc  ....#&.......%..
 102e0 eff0dfd5 2326a4fc 8327c4fc e39e07fa  ....#&...'......
 102f0 8327c4fe 93871700 2326f4fe 930784fd  .'......#&......
 10300 93873701 0327c4fe 3387e740 8327c4fe  ..7..'..3..@.'..
 10310 93080004 13051000 b305f000 13060700  ................
 10320 73000000 13000000 8320c103 03248103  s........ ...$..
 10330 13010104 67800000 130101fe 232e1100  ....g.......#...
 10340 232c8100 13040102 93070500 a307f4fe  #,..............
 10350 9307f4fe 13071000 93080004 13051000  ................
 10360 b305f000 13060700 73000000 13000000  ........s.......
 10370 8320c101 03248101 13010102 67800000  . ...$......g...
 10380 130101fd 23261102 23248102 13040103  ....#&..#$......
 10390 232ea4fc 232604fe 6f000001 8327c4fe  #...#&..o....'..
 103a0 93871700 2326f4fe 8327c4fd 13871700  ....#&...'......
 103b0 232ee4fc 83c70700 e39207fe 8327c4fe  #............'..
 103c0 13850700 8320c102 03248102 13010103  ..... ...$......
 103d0 67800000 130101fd 23261102 23248102  g.......#&..#$..
 103e0 13040103 232ea4fc 0325c4fd eff05ff9  ....#....%...._.
 103f0 13070500 8327c4fd 93080004 13051000  .....'..........
 10400 b305f000 13060700 73000000 9307a000  ........s.......
 10410 2316f4fe 9307c4fe 13071000 93080004  #...............
 10420 13051000 b305f000 13060700 73000000  ............s...
 10430 93070000 13850700 8320c102 03248102  ......... ...$..
 10440 13010103 67800000 130101fc 232e1100  ....g.......#...
 10450 232c8100 13040102 2326a4fe 2322b400  #,......#&..#"..
 10460 2324c400 2326d400 2328e400 232af400  #$..#&..#(..#*..
 10470 232c0401 232e1401 0325c4fe eff05ff0  #,..#....%...._.
 10480 13070500 8327c4fe 93080004 13051000  .....'..........
 10490 b305f000 13060700 73000000 93070000  ........s.......
 104a0 13850700 8320c101 03248101 13010104  ..... ...$......
 104b0 67800000 130101f9 23261106 23248106  g.......#&..#$..
 104c0 13040107 b7170100 938787a9 03a80700  ................
 104d0 03a54700 83a58700 03a6c700 83a60701  ..G.............
 104e0 03a74701 232204fd 2324a4fc 2326b4fc  ..G.#"..#$..#&..
 104f0 2328c4fc 232ad4fc 232ce4fc 83d78701  #(..#*..#,......
 10500 231ef4fc 930744fc 13079001 93080004  #.....D.........
 10510 13051000 b305f000 13060700 73000000  ............s...
 10520 ef008019 13070500 93870500 2324e4fe  ............#$..
 10530 2326f4fe ef00c023 ef000018 13070500  #&.....#........
 10540 93870500 2320e4fe 2322f4fe b7170100  ....# ..#"......
 10550 938747ab 03a80700 03a54700 83a58700  ..G.......G.....
 10560 03a6c700 83a60701 03a74701 232404fb  ..........G.#$..
 10570 2326a4fa 2328b4fa 232ac4fa 232cd4fa  #&..#(..#*..#,..
 10580 232ee4fa 03d78701 2310e4fc 83c7a701  #.......#.......
 10590 2301f4fc 930784fa 1307a001 93080004  #...............
 105a0 13051000 b305f000 13060700 73000000  ............s...
 105b0 b7170100 938707ad 03a60700 83a64700  ..............G.
 105c0 03a78700 232cc4f8 232ed4f8 2320e4fa  ....#,..#...# ..
 105d0 03d7c700 2312e4fa 83c7e700 2303f4fa  ....#.......#...
 105e0 930784f9 1307e000 93080004 13051000  ................
 105f0 b305f000 13060700 73000000 032704fe  ........s....'..
 10600 832744fe 93060700 032784fe 8327c4fe  .'D......'...'..
 10610 93070700 b387f640 13850700 eff0dfc3  .......@........
 10620 9307a000 231af4f8 930744f9 13071000  ....#.....D.....
 10630 93080004 13051000 b305f000 13060700  ................
 10640 73000000 93070000 13850700 8320c106  s............ ..
 10650 03248106 13010107 67800000 130101fd  .$......g.......
 10660 23261102 23248102 13040103 232ea4fc  #&..#$......#...
 10670 232604fe 6f004002 8327c4fd 9387f7ff  #&..o.@..'......
 10680 0327c4fd b377f700 232ef4fc 8327c4fe  .'...w..#....'..
 10690 93871700 2326f4fe 8327c4fd e39e07fc  ....#&...'......
 106a0 8327c4fe 13850700 8320c102 03248102  .'....... ...$..
 106b0 13010103 67800000 f32500c8 732500c0  ....g....%..s%..
 106c0 732600c8 e39ac5fe 67800000 f32520c8  s&......g....% .
 106d0 732520c0 732620c8 e39ac5fe 67800000  s% .s& .....g...
 106e0 130101fe 232e1100 232c8100 13040102  ....#...#,......
 106f0 2326a4fe 93870500 13070600 a305f4fe  #&..............
 10700 93070700 2305f4fe b7170100 138507ae  ....#...........
 10710 eff09fd3 8327c4fe 13850700 eff0dfb3  .....'..........
 10720 b7170100 1385c7ae eff01fd2 8347b4fe  .............G..
 10730 13850700 eff05fc0 b7170100 138547af  ......_.......G.
 10740 eff09fd0 8347a4fe 13850700 eff0dfbe  .....G..........
 10750 b7170100 1385c7af eff0dfc7 13000000  ................
 10760 8320c101 03248101 13010102 67800000  . ...$......g...
 10770 130101f9 23261106 23248106 23229106  ....#&..#$..#"..
 10780 13040107 13030100 93040300 13033000  ..............0.
 10790 232864fc 13037000 232664fc 37430000  #(d...p.#&d.7C..
 107a0 13031324 231064fa 13033004 230164fa  ...$#.d...0.#.d.
 107b0 032304fd 130ef3ff 2324c4fd 130e0300  .#......#$......
 107c0 13080e00 93080000 135eb801 93965800  .........^....X.
 107d0 b366de00 13165800 93060300 13850600  .f....X.........
 107e0 93050000 9356b501 93975500 b3e7f600  .....V....U.....
 107f0 13175500 93070300 93972700 9387f700  ..U.......'.....
 10800 93d74700 93974700 3301f140 93070100  ..G...G.3..@....
 10810 93873700 93d72700 93972700 2322f4fc  ..7...'...'.#"..
 10820 232604fe 6f004002 032744fc 8327c4fe  #&..o.@..'D..'..
 10830 93972700 b307f700 23a00700 8327c4fe  ..'.....#....'..
 10840 93871700 2326f4fe 0327c4fe 832704fd  ....#&...'...'..
 10850 e34cf7fc 832704fd 93f71700 63860700  .L...'......c...
 10860 9307f0ff 6f008000 93071000 2320f4fc  ....o.......# ..
 10870 93079020 231ef4f8 93074000 230ff4f8  ... #.....@.#...
 10880 832704fc 93871700 13d7f701 b307f700  .'..............
 10890 93d71740 232ef4fa 93071000 2324f4fe  ...@#.......#$..
 108a0 6f00801c 832784fe 93d71740 032784fe  o....'.....@.'..
 108b0 b347f700 232cf4fa 832784fe 1387f7ff  .G..#,...'......
 108c0 832784fe 9387f7ff 93d71740 b347f700  .'.........@.G..
 108d0 232af4fa 032784fb 832744fb b347f700  #*...'...'D..G..
 108e0 2328f4fa 832704fb 9387f7ff 13850700  #(...'..........
 108f0 eff0dfd6 93070500 2326f4fa 032744fc  ........#&...'D.
 10900 8327c4fa 93972700 b307f700 83a70700  .'....'.........
 10910 2324f4fa 8327c4fa 63900704 13071000  #$...'..c.......
 10920 8327c4fb b307f740 93971700 2322f4fa  .'.....@....#"..
 10930 832784fa 938707ff b3878700 83c7c7fa  .'..............
 10940 13870700 832744fa b357f740 93f73700  .....'D..W.@..7.
 10950 2322f4fe 6f00800b a30104fe 232e04fc  #"..o.......#...
 10960 6f000009 0327c4fd 832784fa 630af706  o....'...'..c...
 10970 a30d04fc 232a04fc 6f008003 032744fc  ....#*..o....'D.
 10980 832744fd 93972700 b307f700 83a70700  .'D...'.........
 10990 0327c4fd 6318f700 93071000 a30df4fc  .'..c...........
 109a0 6f00c001 832744fd 93871700 232af4fc  o....'D.....#*..
 109b0 032744fd 8327c4fa e342f7fc 8347b4fd  .'D..'...B...G..
 109c0 93c71700 93f7f70f 638e0700 8327c4fd  ........c....'..
 109d0 2322f4fe 93071000 a301f4fe 6f008000  #"..........o...
 109e0 13000000 8327c4fd 93871700 232ef4fc  .....'......#...
 109f0 0327c4fd 93072000 63cae700 834734fe  .'.... .c....G4.
 10a00 93c71700 93f7f70f e39e07f4 8327c4fa  .............'..
 10a10 13871700 832784fa 938707ff b3878700  .....'..........
 10a20 83c607fb 832744fe 938707ff b3878700  .....'D.........
 10a30 83c707fb 13860700 93850600 13050700  ................
 10a40 eff01fca 032744fc 8327c4fa 93972700  .....'D..'....'.
 10a50 b307f700 032744fe 23a0e700 832784fe  .....'D.#....'..
 10a60 93871700 2324f4fe 032784fe 8327c4fc  ....#$...'...'..
 10a70 e3dae7e2 93070000 13810400 13850700  ................
 10a80 130104f9 8320c106 03248106 83244106  ..... ...$...$A.
 10a90 13010107 67800000                    ....g...        
Contents of section .rodata:
 10a98 3d3d3d20 5b52756e 6e696e67 20717a32  === [Running qz2
 10aa8 5f415d20 3d3d3d0a 0a000000 0a3d3d3d  _A] ===......===
 10ab8 205b717a 325f4120 46696e69 73686564   [qz2_A Finished
 10ac8 5d203d3d 3d0a0000 546f7461 6c204379  ] ===...Total Cy
 10ad8 636c6573 3a200000 4d6f7665 20446973  cles: ..Move Dis
 10ae8 6b200000 2066726f 6d202700 2720746f  k .. from '.' to
 10af8 20270000 2700                         '..'.          
Contents of section .riscv.attributes:
 0000 41280000 00726973 63760001 1e000000  A(...riscv......
 0010 04100572 76333269 3270315f 7a696373  ...rv32i2p1_zics
 0020 72327030 0008010a 0b                 r2p0.....       
Contents of section .comment:
 0000 4743433a 20287850 61636b20 474e5520  GCC: (xPack GNU 
 0010 52495343 2d562045 6d626564 64656420  RISC-V Embedded 
 0020 47434320 61726d36 34292031 342e322e  GCC arm64) 14.2.
 0030 3000                                 0.              
Contents of section .debug_line:
 0000 71000000 02001b00 00000101 fb0e0a00  q...............
 0010 01010101 00000001 00737461 72742e53  .........start.S
 0020 00000000 00000502 00000100 16030309  ................
 0030 08000103 01090800 01030209 08000103  ................
 0040 01090400 01030109 04000103 01090400  ................
 0050 01030409 04000103 03090400 01030109  ................
 0060 04000103 01090400 01030409 04000109  ................
 0070 04000001 01f70300 00050004 00450000  .............E..
 0080 00010101 fb0e0d00 01010101 00000001  ................
 0090 00000101 011f0400 0000002d 00000072  ...........-...r
 00a0 000000b3 00000002 011f020f 05260000  .............&..
 00b0 00002600 000000ff 00000001 10010000  ..&.............
 00c0 021a0100 0003054a 0005023c 00010003  .......J...<....
 00d0 13010508 03010918 0001051e 00020401  ................
 00e0 03000908 00010603 00090400 01051306  ................
 00f0 03010904 00010521 03000904 0001050e  .......!........
 0100 03010904 00010505 03000908 00010513  ................
 0110 03010904 00010520 0301090c 00010526  ....... .......&
 0120 0300090c 00010513 03000904 0001050c  ................
 0130 0301090c 00010517 0301090c 0001051e  ................
 0140 03010910 00010516 0300090c 0001051f  ................
 0150 00020402 037b090c 00010518 00020401  .....{..........
 0160 0300090c 0001050c 03080908 00010501  ................
 0170 03010904 0001054a 03010914 00010508  .......J........
 0180 03010918 0001051e 00020401 03000908  ................
 0190 00010603 00090400 01051306 03010904  ................
 01a0 0001050e 03010904 00010505 03000908  ................
 01b0 00010513 03010904 00010520 0301090c  ........... ....
 01c0 00010526 0300090c 00010513 03000904  ...&............
 01d0 0001050c 0301090c 00010517 0301090c  ................
 01e0 0001051f 00020402 037c0910 00010518  .........|......
 01f0 00020401 0300090c 0001050c 03070908  ................
 0200 00010501 03010904 0001052e 03010914  ................
 0210 0001050e 03010918 0001050b 03010904  ................
 0220 0001050f 03010904 0001050c 03000908  ................
 0230 0001051b 00020401 03000904 0001050b  ................
 0240 03010910 00010301 090c0001 050c037d  ...............}
 0250 090c0001 03050908 00010501 03010904  ................
 0260 0001052b 03010914 0001050c 03010918  ...+............
 0270 00010501 03010910 00010523 03090914  ...........#....
 0280 0001050b 03020914 00010506 0301090c  ................
 0290 00010508 0301090c 0001050c 03010908  ................
 02a0 0001050a 0301090c 00010518 03030910  ................
 02b0 00010516 00020401 03000910 00010510  ................
 02c0 00020401 0300090c 0001050e 03010908  ................
 02d0 00010513 0301090c 00010514 037d0910  .............}..
 02e0 00010506 03060908 00010505 0301090c  ................
 02f0 00010501 03010928 00010519 03030914  .......(........
 0300 00010505 03010918 00010501 0301091c  ................
 0310 0001051e 03030914 0001050c 03010914  ................
 0320 0001050b 03010904 00010517 00020402  ................
 0330 03000904 0001050e 00020401 0300090c  ................
 0340 0001050c 00020401 0300090c 00010301  ................
 0350 09080001 05010301 09040001 05190301  ................
 0360 09140001 05050301 09140001 00020401  ................
 0370 06030009 0c000106 03010918 0001050c  ................
 0380 03010924 00010501 03010904 00010525  ...$...........%
 0390 03020914 00010505 03010930 00010002  ...........0....
 03a0 04010603 00090c00 01050c06 03010918  ................
 03b0 00010501 03010904 00010510 030b0914  ................
 03c0 00010505 03040910 00010514 0302095c  ...............\
 03d0 00010512 00020401 0300090c 00010505  ................
 03e0 03020908 00010512 03010904 00010510  ................
 03f0 00020401 0300090c 00010505 03030908  ................
 0400 00010301 09640001 0302094c 00010301  .....d.....L....
 0410 09240001 050c0302 09240001 05010301  .$.......$......
 0420 09040001 051a0307 09140001 05090301  ................
 0430 09140001 050b0301 09040001 05110301  ................
 0440 09040001 050b0300 09080001 050e0301  ................
 0450 090c0001 050c037e 090c0001 03040908  .......~........
 0460 00010501 03010904 00010914 00000101  ................
 0470 6b000000 02002100 00000101 fb0e0a00  k.....!.........
 0480 01010101 00000001 00706572 66636f75  .........perfcou
 0490 6e746572 2e530000 00000000 0502b806  nter.S..........
 04a0 01001703 01090400 01030109 04000103  ................
 04b0 01090400 01030109 04000103 08090400  ................
 04c0 01030109 04000103 01090400 01030109  ................
 04d0 04000103 01090400 01090400 000101d8  ................
 04e0 02000005 0004003c 00000001 0101fb0e  .......<........
 04f0 0d000101 01010000 00010000 0101011f  ................
 0500 03000000 002d0000 00720000 0002011f  .....-...r......
 0510 020f0423 01000000 23010000 00ff0000  ...#....#.......
 0520 00011001 00000205 01000502 e0060100  ................
 0530 030c0105 05030109 28000103 01090c00  ........(.......
 0540 01030109 0c000103 01090c00 01030109  ................
 0550 0c000103 01090c00 01030109 0c000105  ................
 0560 01030109 0c000103 04091400 01030009  ................
 0570 14000105 09030109 08000103 05090800  ................
 0580 01051003 02090800 01050503 04091400  ................
 0590 01051203 00090400 01050e03 03096c00  ..............l.
 05a0 01050503 00090400 01051003 01090400  ................
 05b0 01052300 02040303 7f091400 01051700  ..#.............
 05c0 02040103 00090c00 01051e03 04090c00  ................
 05d0 01052503 01090800 01000204 01060300  ..%.............
 05e0 09040001 00020402 03000908 00010509  ................
 05f0 06037f09 04000105 13030409 04000105  ................
 0600 26030709 10000105 09030009 08000105  &...............
 0610 0e030209 10000105 05030009 08000105  ................
 0620 2c030109 04000105 0d030009 08000105  ,...............
 0630 22030109 0c000105 33030009 08000105  ".......3.......
 0640 38030009 08000105 0d030009 04000103  8...............
 0650 01090800 01053303 04091000 01051403  ......3.........
 0660 00090800 01050d03 03091000 01050c03  ................
 0670 03091800 01051c03 01090800 01051103  ................
 0680 00090c00 01051f03 01090800 01052a03  ..............*.
 0690 00091400 01051503 00090800 01051203  ................
 06a0 03090c00 01051603 01090400 01050d03  ................
 06b0 00090400 01051403 01090400 01051603  ................
 06c0 04090c00 01051a03 01090400 01051103  ................
 06d0 00090400 01051c03 01090400 01051803  ................
 06e0 00091400 01052503 01090800 01051903  ......%.........
 06f0 01090800 01052c00 02040203 7d090400  ......,.....}...
 0700 01052300 02040103 00090c00 01051503  ..#.............
 0710 07090c00 01051403 00090c00 01051d03  ................
 0720 01090400 01052303 01090800 01051503  ......#.........
 0730 73090c00 01053700 02040203 7e090400  s.....7.....~...
 0740 01052300 02040103 00090c00 01052600  ..#...........&.
 0750 02040303 00090c00 01052300 02040303  ..........#.....
 0760 00090c00 01050903 15090400 01052203  ..............".
 0770 00090800 01053203 00091000 01050903  ......2.........
 0780 00091000 01051303 01091000 01053a00  ..............:.
 0790 02040203 57091800 01052300 02040103  ....W.....#.....
 07a0 00090c00 01050c03 2c090c00 01050103  ........,.......
 07b0 01090800 01091c00 000101             ...........     
Contents of section .debug_info:
 0000 31000000 02000000 00000401 00000000  1...............
 0010 00000100 3c000100 00000000 08000000  ....<...........
 0020 2e000000 0180023c 00000001 00000100  .......<........
 0030 40000100 00340400 00050001 04210000  @....4.......!..
 0040 00104b01 00001d26 00000000 0000003c  ..K....&.......<
 0050 0001007c 06000075 00000002 0106d600  ...|...u........
 0060 00000201 08d40000 00020205 6d000000  ............m...
 0070 02020712 01000002 0405b300 00000488  ................
 0080 00000002 4f195500 00000204 07f00000  ....O.U.........
 0090 00020805 ae000000 04350100 00026919  .........5....i.
 00a0 6f000000 020807eb 00000011 0405696e  o.............in
 00b0 74000204 07f50000 00048a00 00000330  t..............0
 00c0 14490000 00043701 0000033c 14630000  .I....7....<.c..
 00d0 00129000 00000477 00000004 d6177d00  .......w......}.
 00e0 00000210 04c80000 000c0701 00006f05  ..............o.
 00f0 76000000 0ca40100 00111190 0000000d  v...............
 0100 4a000000 8c057600 00005c06 01005c00  J.....v...\...\.
 0110 0000019c fe000000 036e008c 17760000  .........n...v..
 0120 0002915c 01450100 008d0976 00000002  ...\.E.....v....
 0130 916c0008 0d010000 72057600 0000b404  .l......r.v.....
 0140 0100a801 0000019c a3010000 01a10000  ................
 0150 0073179c 00000002 916801af 01000073  .s.......h.....s
 0160 259c0000 00029160 0bc40401 005c0000  %......`.....\..
 0170 004f0100 00014001 00007605 a3010000  .O....@...v.....
 0180 02914400 0b4c0501 00640000 006c0100  ..D..L...d...l..
 0190 00014001 00007e05 bf010000 0391a87f  ..@...~.........
 01a0 000bb005 01004c00 00008901 00000140  ......L........@
 01b0 0100007f 05cf0100 00039198 7f000920  ............... 
 01c0 06010024 00000001 40010000 8205df01  ...$....@.......
 01d0 00000391 947f0000 05b30100 00b30100  ................
 01e0 00067d00 00001900 020108dd 00000013  ..}.............
 01f0 b3010000 05b30100 00cf0100 00067d00  ..............}.
 0200 00001a00 05b30100 00df0100 00067d00  ..............}.
 0210 00000e00 05b30100 00ef0100 00067d00  ..............}.
 0220 00000100 08bc0000 00640576 00000048  .........d.v...H
 0230 0401006c 00000001 9c180200 00079d01  ...l............
 0240 00006418 18020000 02914c14 000eba01  ..d.......L.....
 0250 0000089c 0000005e 05760000 00d40301  .......^.v......
 0260 00740000 00019c5b 02000003 73005e16  .t.....[....s.^.
 0270 18020000 02915c09 0c040100 24000000  ......\.....$...
 0280 01400100 006005df 01000002 916c0000  .@...`.......l..
 0290 0d250100 005908a1 00000080 03010054  .%...Y.........T
 02a0 00000001 9c8f0200 00037300 591b1802  ..........s.Y...
 02b0 00000291 5c014501 00005a0c a1000000  ....\.E...Z.....
 02c0 02916c00 15580000 00015406 38030100  ..l..X....T.8...
 02d0 48000000 019cb202 00000363 005416b3  H..........c.T..
 02e0 01000002 916f0016 7e000000 01410658  .....o..~....A.X
 02f0 020100e0 00000001 9cf10200 00037661  ..............va
 0300 6c00411e 55000000 02914c0a 62756600  l.A.U.....L.buf.
 0310 420af102 00000291 580a7000 430b0103  B.......X.p.C...
 0320 00000291 6c0005b3 01000001 03000006  ....l...........
 0330 7d000000 13000eb3 01000008 2c010000  }...........,...
 0340 360a8400 00001c02 01003c00 0000019c  6.........<.....
 0350 38030000 03610036 1c840000 0002916c  8....a.6.......l
 0360 03620036 28840000 00029168 000f0201  .b.6(......h....
 0370 00002d11 84000000 a8010100 74000000  ..-.........t...
 0380 019c7803 00000361 002d1f84 00000002  ..x....a.-......
 0390 915c0362 002d2b84 00000002 91580143  .\.b.-+......X.C
 03a0 0000002e 0e840000 0002916c 000f9001  ...........l....
 03b0 00002116 55000000 00010100 a8000000  ..!.U...........
 03c0 019cd203 000007e2 00000021 29550000  ...........!)U..
 03d0 0002915c 07950100 00214155 00000002  ...\.....!AU....
 03e0 91580163 00000023 13550000 0002916c  .X.c...#.U.....l
 03f0 092c0101 00640000 000a6900 240e7600  .,...d....i.$.v.
 0400 00000291 68000017 c3000000 01141655  ....h..........U
 0410 0000003c 000100c4 00000001 9c07e200  ...<............
 0420 00001429 55000000 02915c07 95010000  ...)U.....\.....
 0430 14415500 00000291 58019300 00001613  .AU.....X.......
 0440 55000000 02916c01 63000000 16215500  U.....l.c....!U.
 0450 00000291 68096c00 01007c00 00000a69  ....h.l...|....i
 0460 00170e76 00000002 91640000 00220000  ...v.....d..."..
 0470 000200a2 01000004 01700400 00b80601  .........p......
 0480 00e00601 00ba0100 00080000 002e0000  ................
 0490 000180db 02000005 000104b6 0100000e  ................
 04a0 4b010000 1d230100 00000000 00e00601  K....#..........
 04b0 00b80300 00df0400 00020106 d6000000  ................
 04c0 07ce0100 00022b18 39000000 020108d4  ......+.9.......
 04d0 00000002 02056d00 00000202 07120100  ......m.........
 04e0 00020405 b3000000 020407f0 00000002  ................
 04f0 0805ae00 00000208 07eb0000 000f0405  ................
 0500 696e7400 086a0000 00020407 f5000000  int..j..........
 0510 07d00100 00031813 2d000000 097d0000  ........-....}..
 0520 000a5800 0000069e 00000005 9e000000  ..X.............
 0530 00020108 dd000000 099e0000 000a7e00  ..............~.
 0540 000005ba 00000005 55000000 0010bc00  ........U.......
 0550 00000107 0c6a0000 00d10000 0005d100  .....j..........
 0560 00001100 1204a500 00001307 01000001  ................
 0570 18056a00 00007007 01002803 0000019c  ..j...p...(.....
 0580 66020000 014f0200 001a096a 00000002  f....O.....j....
 0590 91500134 0200001f 096a0000 0002914c  .P.4.....j.....L
 05a0 01400200 00211066 02000003 91a07f04  .@...!.f........
 05b0 706f7300 25128802 00000391 44060104  pos.%.......D...
 05c0 0200002c 096a0000 00029140 01dd0100  ...,.j.....@....
 05d0 0030138d 02000003 919c7f01 57020000  .0..........W...
 05e0 37096a00 00000391 bc7f0b20 08010034  7.j........ ...4
 05f0 00000071 01000004 6900280e 6a000000  ...q....i.(.j...
 0600 02916c00 03980801 00dc0100 0001ee01  ..l.............
 0610 0000390e 6a000000 02916803 a4080100  ..9.j.....h.....
 0620 b8010000 011f0200 003a0d6a 00000003  .........:.j....
 0630 91b87f01 45020000 3b0d6a00 00000391  ....E...;.j.....
 0640 b47f016d 0200003c 0d6a0000 000391b0  ...m...<.j......
 0650 7f011a02 0000400d 6a000000 0391ac7f  ......@.j.......
 0660 01e50100 00430d6a 00000003 91a87f01  .....C.j........
 0670 fc010000 440d6a00 00000291 640b1c09  ....D.j.....d...
 0680 01003800 00000702 000001c8 01000047  ..8............G
 0690 116a0000 000391a4 7f000358 090100b4  .j.........X....
 06a0 00000001 f6010000 4b129c02 00000291  ........K.......
 06b0 63035c09 0100b000 00000470 004c166a  c.\........p.L.j
 06c0 00000002 915c0364 09010080 00000001  .....\.d........
 06d0 0e020000 51169c02 00000291 5b037409  ....Q.......[.t.
 06e0 01004800 00000464 00521a6a 00000002  ..H....d.R.j....
 06f0 91540000 00000000 0006a500 00007502  .T............u.
 0700 00000c76 00000000 06710000 00880200  ...v.....q......
 0710 00147600 00000391 48060008 75020000  ..v.....H...u...
 0720 06890000 009c0200 000c7600 00000002  ..........v.....
 0730 01026702 00001529 02000001 0c0de006  ..g....)........
 0740 01009000 0000019c 0d1a0200 001c6a00  ..............j.
 0750 00000291 6c0dd801 0000279e 00000002  ....l.....'.....
 0760 916b1674 6f00010c 329e0000 0002916a  .k.to...2......j
 0770 0000                                 ..              
Contents of section .debug_abbrev:
 0000 01110110 06110112 01030e1b 0e250e13  .............%..
 0010 05000002 2e00030e 3f0c1101 12010000  ........?.......
 0020 00013400 030e3a21 013b0b39 0b491302  ..4...:!.;.9.I..
 0030 18000002 24000b0b 3e0b030e 00000305  ....$...>.......
 0040 0003083a 21013b0b 390b4913 02180000  ...:!.;.9.I.....
 0050 04160003 0e3a0b3b 0b390b49 13000005  .....:.;.9.I....
 0060 01014913 01130000 06210049 132f0b00  ..I......!.I./..
 0070 00070500 030e3a21 013b0b39 0b491302  ......:!.;.9.I..
 0080 18000008 2e013f19 030e3a21 013b0b39  ......?...:!.;.9
 0090 0b271949 13110112 0640187c 19011300  .'.I.....@.|....
 00a0 00090b01 11011206 00000a34 0003083a  ...........4...:
 00b0 21013b0b 390b4913 02180000 0b0b0111  !.;.9.I.........
 00c0 01120601 1300000c 2e003f19 030e3a21  ..........?...:!
 00d0 013b0b39 0b271949 133c1900 000d2e01  .;.9.'.I.<......
 00e0 3f19030e 3a21013b 0b390b27 19491311  ?...:!.;.9.'.I..
 00f0 01120640 187a1901 1300000e 0f000b21  ...@.z.........!
 0100 04491300 000f2e01 030e3a21 013b0b39  .I........:!.;.9
 0110 0b271949 13110112 0640187a 19011300  .'.I.....@.z....
 0120 00101101 250e130b 031f1b1f 11011206  ....%...........
 0130 10170000 1124000b 0b3e0b03 08000012  .....$...>......
 0140 35004913 00001326 00491300 00141800  5.I....&.I......
 0150 0000152e 013f1903 0e3a0b3b 0b390b27  .....?...:.;.9.'
 0160 19110112 0640187a 19011300 00162e01  .....@.z........
 0170 3f19030e 3a0b3b0b 390b2719 11011206  ?...:.;.9.'.....
 0180 40187c19 01130000 172e0103 0e3a0b3b  @.|..........:.;
 0190 0b390b27 19491311 01120640 187a1900  .9.'.I.....@.z..
 01a0 00000111 00100611 01120103 0e1b0e25  ...............%
 01b0 0e130500 00000134 00030e3a 21013b0b  .......4...:!.;.
 01c0 390b4913 02180000 0224000b 0b3e0b03  9.I......$...>..
 01d0 0e000003 0b011101 12060000 04340003  .............4..
 01e0 083a2101 3b0b390b 49130218 00000505  .:!.;.9.I.......
 01f0 00491300 00060101 49130113 00000716  .I......I.......
 0200 00030e3a 0b3b0b39 0b491300 00083500  ...:.;.9.I....5.
 0210 49130000 09260049 1300000a 2e013f19  I....&.I......?.
 0220 030e3a21 013b0b39 210d2719 3c190113  ..:!.;.9!.'.<...
 0230 00000b0b 01110112 06011300 000c2100  ..............!.
 0240 49132f21 0200000d 0500030e 3a21013b  I./!........:!.;
 0250 210c390b 49130218 00000e11 01250e13  !.9.I........%..
 0260 0b031f1b 1f110112 06101700 000f2400  ..............$.
 0270 0b0b3e0b 03080000 102e013f 19030e3a  ..>........?...:
 0280 0b3b0b39 0b271949 133c1901 13000011  .;.9.'.I.<......
 0290 18000000 120f000b 0b491300 00132e01  .........I......
 02a0 3f19030e 3a0b3b0b 390b4913 11011206  ?...:.;.9.I.....
 02b0 40187c19 01130000 14210049 132f1800  @.|......!.I./..
 02c0 00152e01 030e3a0b 3b0b390b 27191101  ......:.;.9.'...
 02d0 12064018 7c190000 16050003 083a0b3b  ..@.|........:.;
 02e0 0b390b49 13021800 0000               .9.I......      
Contents of section .debug_aranges:
 0000 1c000000 02000000 00000400 00000000  ................
 0010 00000100 3c000000 00000000 00000000  ....<...........
 0020 1c000000 02003500 00000400 00000000  ......5.........
 0030 3c000100 7c060000 00000000 00000000  <...|...........
 0040 1c000000 02006d04 00000400 00000000  ......m.........
 0050 b8060100 28000000 00000000 00000000  ....(...........
 0060 1c000000 02009304 00000400 00000000  ................
 0070 e0060100 b8030000 00000000 00000000  ................
Contents of section .debug_str:
 0000 73746172 742e5300 2f557365 72732f68  start.S./Users/h
 0010 73756873 69616f66 616e2f72 76333265  suhsiaofan/rv32e
 0020 6d752f6d 795f7072 6f6a6563 7400474e  mu/my_project.GN
 0030 55204153 20322e34 332e3100 5f737461  U AS 2.43.1._sta
 0040 72740072 6573756c 74005f5f 706f7063  rt.result.__popc
 0050 6f756e74 73693200 7072696e 745f6368  ountsi2.print_ch
 0060 61720072 656d6169 6e646572 0073686f  ar.remainder.sho
 0070 72742069 6e740073 697a655f 74007072  rt int.size_t.pr
 0080 696e745f 696e7400 5f5f7569 6e743332  int_int.__uint32
 0090 5f740071 756f7469 656e7400 70757473  _t.quotient.puts
 00a0 00737461 72745f63 79636c65 73006c6f  .start_cycles.lo
 00b0 6e67206c 6f6e6720 696e7400 7072696e  ng long int.prin
 00c0 74660075 64697600 6c6f6e67 20646f75  tf.udiv.long dou
 00d0 626c6500 756e7369 676e6564 20636861  ble.unsigned cha
 00e0 72006469 76696465 6e64006c 6f6e6720  r.dividend.long 
 00f0 6c6f6e67 20756e73 69676e65 6420696e  long unsigned in
 0100 7400756d 756c0071 7a325f41 5f6d6169  t.umul.qz2_A_mai
 0110 6e007368 6f727420 756e7369 676e6564  n.short unsigned
 0120 20696e74 00737472 6c656e00 5f5f6d75   int.strlen.__mu
 0130 6c736933 005f5f75 696e7436 345f7400  lsi3.__uint64_t.
 0140 5f6d7367 00636f75 6e740047 4e552043  _msg.count.GNU C
 0150 31372031 342e322e 30202d6d 6162693d  17 14.2.0 -mabi=
 0160 696c7033 32202d6d 6973612d 73706563  ilp32 -misa-spec
 0170 3d323031 39313231 33202d6d 61726368  =20191213 -march
 0180 3d727633 32695f7a 69637372 202d6700  =rv32i_zicsr -g.
 0190 756d6f64 00646976 69736f72 00666f72  umod.divisor.for
 01a0 6d617400 6765745f 6379636c 65730065  mat.get_cycles.e
 01b0 6e645f63 79636c65 73007065 7266636f  nd_cycles.perfco
 01c0 756e7465 722e5300 73686966 74005f5f  unter.S.shift.__
 01d0 75696e74 385f7400 66726f6d 00706567  uint8_t.from.peg
 01e0 5f6d6170 00637572 725f7065 67006e5f  _map.curr_peg.n_
 01f0 6d6f7665 7300666f 756e645f 6e65775f  moves.found_new_
 0200 70656700 64697265 6374696f 6e006861  peg.direction.ha
 0210 735f736d 616c6c65 72006469 736b0063  s_smaller.disk.c
 0220 7572725f 67726179 00707269 6e745f6d  urr_gray.print_m
 0230 6f766500 746f7461 6c5f6d6f 76657300  ove.total_moves.
 0240 70656773 00707265 765f6772 6179006e  pegs.prev_gray.n
 0250 5f646973 6b730064 69726563 74696f6e  _disks.direction
 0260 5f696e64 6578005f 426f6f6c 00636861  _index._Bool.cha
 0270 6e676564 5f626974 00                 nged_bit.       
Contents of section .debug_line_str:
 0000 2f557365 72732f68 73756873 69616f66  /Users/hsuhsiaof
 0010 616e2f72 76333265 6d752f6d 795f7072  an/rv32emu/my_pr
 0020 6f6a6563 74006d61 696e2e63 002f5573  oject.main.c./Us
 0030 6572732f 68737568 7369616f 66616e2f  ers/hsuhsiaofan/
 0040 72697363 762d6e6f 6e652d65 6c662d67  riscv-none-elf-g
 0050 63632f72 69736376 2d6e6f6e 652d656c  cc/riscv-none-el
 0060 662f696e 636c7564 652f6d61 6368696e  f/include/machin
 0070 65002f55 73657273 2f687375 68736961  e./Users/hsuhsia
 0080 6f66616e 2f726973 63762d6e 6f6e652d  ofan/riscv-none-
 0090 656c662d 6763632f 72697363 762d6e6f  elf-gcc/riscv-no
 00a0 6e652d65 6c662f69 6e636c75 64652f73  ne-elf/include/s
 00b0 7973002f 55736572 732f6873 75687369  ys./Users/hsuhsi
 00c0 616f6661 6e2f7269 7363762d 6e6f6e65  aofan/riscv-none
 00d0 2d656c66 2d676363 2f6c6962 2f676363  -elf-gcc/lib/gcc
 00e0 2f726973 63762d6e 6f6e652d 656c662f  /riscv-none-elf/
 00f0 31342e32 2e302f69 6e636c75 6465005f  14.2.0/include._
 0100 64656661 756c745f 74797065 732e6800  default_types.h.
 0110 5f737464 696e742e 68007374 64646566  _stdint.h.stddef
 0120 2e680071 7a325f41 2e6300             .h.qz2_A.c.     
Contents of section .debug_frame:
 0000 0c000000 ffffffff 0300017c 010c0200  ...........|....
 0010 24000000 00000000 3c000100 c4000000  $.......<.......
 0020 440e3048 81018802 440c0800 02a8c144  D.0H....D......D
 0030 c80c0230 440e0000 24000000 00000000  ...0D...$.......
 0040 00010100 a8000000 440e3048 81018802  ........D.0H....
 0050 440c0800 028cc144 c80c0230 440e0000  D......D...0D...
 0060 24000000 00000000 a8010100 74000000  $...........t...
 0070 440e3048 81018802 440c0800 0258c144  D.0H....D....X.D
 0080 c80c0230 440e0000 24000000 00000000  ...0D...$.......
 0090 1c020100 3c000000 440e2048 81018802  ....<...D. H....
 00a0 440c0800 60c144c8 0c022044 0e000000  D...`.D... D....
 00b0 24000000 00000000 58020100 e0000000  $.......X.......
 00c0 440e4048 81018802 440c0800 02c4c144  D.@H....D......D
 00d0 c80c0240 440e0000 24000000 00000000  ...@D...$.......
 00e0 38030100 48000000 440e2048 81018802  8...H...D. H....
 00f0 440c0800 6cc144c8 0c022044 0e000000  D...l.D... D....
 0100 24000000 00000000 80030100 54000000  $...........T...
 0110 440e3048 81018802 440c0800 78c144c8  D.0H....D...x.D.
 0120 0c023044 0e000000 24000000 00000000  ..0D....$.......
 0130 d4030100 74000000 440e3048 81018802  ....t...D.0H....
 0140 440c0800 0258c144 c80c0230 440e0000  D....X.D...0D...
 0150 24000000 00000000 48040100 6c000000  $.......H...l...
 0160 440e4048 8109880a 440c0820 0250c144  D.@H....D.. .P.D
 0170 c80c0240 440e0000 24000000 00000000  ...@D...$.......
 0180 b4040100 a8010000 440e7048 81018802  ........D.pH....
 0190 440c0800 038c01c1 44c80c02 70440e00  D.......D...pD..
 01a0 24000000 00000000 5c060100 5c000000  $.......\...\...
 01b0 440e3048 81018802 440c0800 0240c144  D.0H....D....@.D
 01c0 c80c0230 440e0000 0c000000 ffffffff  ...0D...........
 01d0 0300017c 010c0200 24000000 c8010000  ...|....$.......
 01e0 e0060100 90000000 440e2048 81018802  ........D. H....
 01f0 440c0800 0274c144 c80c0220 440e0000  D....t.D... D...
 0200 2c000000 c8010000 70070100 28030000  ,.......p...(...
 0210 440e704c 81018802 8903440c 08000300  D.pL......D.....
 0220 030c0270 44c144c8 44c9440e 00000000  ...pD.D.D.D.....

Disassembly of section .text:

00010000 <_start>:
   10000:	00002117          	auipc	sp,0x2
   10004:	b0010113          	addi	sp,sp,-1280 # 11b00 <__stack_top>
   10008:	00001297          	auipc	t0,0x1
   1000c:	af628293          	addi	t0,t0,-1290 # 10afe <__bss_end>
   10010:	00001317          	auipc	t1,0x1
   10014:	aee30313          	addi	t1,t1,-1298 # 10afe <__bss_end>
   10018:	0062d863          	bge	t0,t1,10028 <_start+0x28>
   1001c:	0002a023          	sw	zero,0(t0)
   10020:	00428293          	addi	t0,t0,4
   10024:	ff5ff06f          	j	10018 <_start+0x18>
   10028:	48c000ef          	jal	104b4 <main>
   1002c:	05d00893          	li	a7,93
   10030:	00000513          	li	a0,0
   10034:	00000073          	ecall
   10038:	0000006f          	j	10038 <_start+0x38>

0001003c <udiv>:
   1003c:	fd010113          	addi	sp,sp,-48
   10040:	02112623          	sw	ra,44(sp)
   10044:	02812423          	sw	s0,40(sp)
   10048:	03010413          	addi	s0,sp,48
   1004c:	fca42e23          	sw	a0,-36(s0)
   10050:	fcb42c23          	sw	a1,-40(s0)
   10054:	fd842783          	lw	a5,-40(s0)
   10058:	00079663          	bnez	a5,10064 <udiv+0x28>
   1005c:	00000793          	li	a5,0
   10060:	08c0006f          	j	100ec <udiv+0xb0>
   10064:	fe042623          	sw	zero,-20(s0)
   10068:	fe042423          	sw	zero,-24(s0)
   1006c:	01f00793          	li	a5,31
   10070:	fef42223          	sw	a5,-28(s0)
   10074:	06c0006f          	j	100e0 <udiv+0xa4>
   10078:	fe842783          	lw	a5,-24(s0)
   1007c:	00179793          	slli	a5,a5,0x1
   10080:	fef42423          	sw	a5,-24(s0)
   10084:	fe442783          	lw	a5,-28(s0)
   10088:	fdc42703          	lw	a4,-36(s0)
   1008c:	00f757b3          	srl	a5,a4,a5
   10090:	0017f793          	andi	a5,a5,1
   10094:	fe842703          	lw	a4,-24(s0)
   10098:	00f767b3          	or	a5,a4,a5
   1009c:	fef42423          	sw	a5,-24(s0)
   100a0:	fe842703          	lw	a4,-24(s0)
   100a4:	fd842783          	lw	a5,-40(s0)
   100a8:	02f76663          	bltu	a4,a5,100d4 <udiv+0x98>
   100ac:	fe842703          	lw	a4,-24(s0)
   100b0:	fd842783          	lw	a5,-40(s0)
   100b4:	40f707b3          	sub	a5,a4,a5
   100b8:	fef42423          	sw	a5,-24(s0)
   100bc:	fe442783          	lw	a5,-28(s0)
   100c0:	00100713          	li	a4,1
   100c4:	00f717b3          	sll	a5,a4,a5
   100c8:	fec42703          	lw	a4,-20(s0)
   100cc:	00f767b3          	or	a5,a4,a5
   100d0:	fef42623          	sw	a5,-20(s0)
   100d4:	fe442783          	lw	a5,-28(s0)
   100d8:	fff78793          	addi	a5,a5,-1
   100dc:	fef42223          	sw	a5,-28(s0)
   100e0:	fe442783          	lw	a5,-28(s0)
   100e4:	f807dae3          	bgez	a5,10078 <udiv+0x3c>
   100e8:	fec42783          	lw	a5,-20(s0)
   100ec:	00078513          	mv	a0,a5
   100f0:	02c12083          	lw	ra,44(sp)
   100f4:	02812403          	lw	s0,40(sp)
   100f8:	03010113          	addi	sp,sp,48
   100fc:	00008067          	ret

00010100 <umod>:
   10100:	fd010113          	addi	sp,sp,-48
   10104:	02112623          	sw	ra,44(sp)
   10108:	02812423          	sw	s0,40(sp)
   1010c:	03010413          	addi	s0,sp,48
   10110:	fca42e23          	sw	a0,-36(s0)
   10114:	fcb42c23          	sw	a1,-40(s0)
   10118:	fd842783          	lw	a5,-40(s0)
   1011c:	00079663          	bnez	a5,10128 <umod+0x28>
   10120:	00000793          	li	a5,0
   10124:	0700006f          	j	10194 <umod+0x94>
   10128:	fe042623          	sw	zero,-20(s0)
   1012c:	01f00793          	li	a5,31
   10130:	fef42423          	sw	a5,-24(s0)
   10134:	0540006f          	j	10188 <umod+0x88>
   10138:	fec42783          	lw	a5,-20(s0)
   1013c:	00179793          	slli	a5,a5,0x1
   10140:	fef42623          	sw	a5,-20(s0)
   10144:	fe842783          	lw	a5,-24(s0)
   10148:	fdc42703          	lw	a4,-36(s0)
   1014c:	00f757b3          	srl	a5,a4,a5
   10150:	0017f793          	andi	a5,a5,1
   10154:	fec42703          	lw	a4,-20(s0)
   10158:	00f767b3          	or	a5,a4,a5
   1015c:	fef42623          	sw	a5,-20(s0)
   10160:	fec42703          	lw	a4,-20(s0)
   10164:	fd842783          	lw	a5,-40(s0)
   10168:	00f76a63          	bltu	a4,a5,1017c <umod+0x7c>
   1016c:	fec42703          	lw	a4,-20(s0)
   10170:	fd842783          	lw	a5,-40(s0)
   10174:	40f707b3          	sub	a5,a4,a5
   10178:	fef42623          	sw	a5,-20(s0)
   1017c:	fe842783          	lw	a5,-24(s0)
   10180:	fff78793          	addi	a5,a5,-1
   10184:	fef42423          	sw	a5,-24(s0)
   10188:	fe842783          	lw	a5,-24(s0)
   1018c:	fa07d6e3          	bgez	a5,10138 <umod+0x38>
   10190:	fec42783          	lw	a5,-20(s0)
   10194:	00078513          	mv	a0,a5
   10198:	02c12083          	lw	ra,44(sp)
   1019c:	02812403          	lw	s0,40(sp)
   101a0:	03010113          	addi	sp,sp,48
   101a4:	00008067          	ret

000101a8 <umul>:
   101a8:	fd010113          	addi	sp,sp,-48
   101ac:	02112623          	sw	ra,44(sp)
   101b0:	02812423          	sw	s0,40(sp)
   101b4:	03010413          	addi	s0,sp,48
   101b8:	fca42e23          	sw	a0,-36(s0)
   101bc:	fcb42c23          	sw	a1,-40(s0)
   101c0:	fe042623          	sw	zero,-20(s0)
   101c4:	0380006f          	j	101fc <umul+0x54>
   101c8:	fd842783          	lw	a5,-40(s0)
   101cc:	0017f793          	andi	a5,a5,1
   101d0:	00078a63          	beqz	a5,101e4 <umul+0x3c>
   101d4:	fec42703          	lw	a4,-20(s0)
   101d8:	fdc42783          	lw	a5,-36(s0)
   101dc:	00f707b3          	add	a5,a4,a5
   101e0:	fef42623          	sw	a5,-20(s0)
   101e4:	fdc42783          	lw	a5,-36(s0)
   101e8:	00179793          	slli	a5,a5,0x1
   101ec:	fcf42e23          	sw	a5,-36(s0)
   101f0:	fd842783          	lw	a5,-40(s0)
   101f4:	0017d793          	srli	a5,a5,0x1
   101f8:	fcf42c23          	sw	a5,-40(s0)
   101fc:	fd842783          	lw	a5,-40(s0)
   10200:	fc0794e3          	bnez	a5,101c8 <umul+0x20>
   10204:	fec42783          	lw	a5,-20(s0)
   10208:	00078513          	mv	a0,a5
   1020c:	02c12083          	lw	ra,44(sp)
   10210:	02812403          	lw	s0,40(sp)
   10214:	03010113          	addi	sp,sp,48
   10218:	00008067          	ret

0001021c <__mulsi3>:
   1021c:	fe010113          	addi	sp,sp,-32
   10220:	00112e23          	sw	ra,28(sp)
   10224:	00812c23          	sw	s0,24(sp)
   10228:	02010413          	addi	s0,sp,32
   1022c:	fea42623          	sw	a0,-20(s0)
   10230:	feb42423          	sw	a1,-24(s0)
   10234:	fe842583          	lw	a1,-24(s0)
   10238:	fec42503          	lw	a0,-20(s0)
   1023c:	f6dff0ef          	jal	101a8 <umul>
   10240:	00050793          	mv	a5,a0
   10244:	00078513          	mv	a0,a5
   10248:	01c12083          	lw	ra,28(sp)
   1024c:	01812403          	lw	s0,24(sp)
   10250:	02010113          	addi	sp,sp,32
   10254:	00008067          	ret

00010258 <print_int>:
   10258:	fc010113          	addi	sp,sp,-64
   1025c:	02112e23          	sw	ra,60(sp)
   10260:	02812c23          	sw	s0,56(sp)
   10264:	04010413          	addi	s0,sp,64
   10268:	fca42623          	sw	a0,-52(s0)
   1026c:	fd840793          	addi	a5,s0,-40
   10270:	01378793          	addi	a5,a5,19
   10274:	fef42623          	sw	a5,-20(s0)
   10278:	fec42783          	lw	a5,-20(s0)
   1027c:	fff78793          	addi	a5,a5,-1
   10280:	fef42623          	sw	a5,-20(s0)
   10284:	fcc42783          	lw	a5,-52(s0)
   10288:	06079063          	bnez	a5,102e8 <print_int+0x90>
   1028c:	fec42783          	lw	a5,-20(s0)
   10290:	03000713          	li	a4,48
   10294:	00e78023          	sb	a4,0(a5)
   10298:	fec42783          	lw	a5,-20(s0)
   1029c:	fff78793          	addi	a5,a5,-1
   102a0:	fef42623          	sw	a5,-20(s0)
   102a4:	04c0006f          	j	102f0 <print_int+0x98>
   102a8:	00a00593          	li	a1,10
   102ac:	fcc42503          	lw	a0,-52(s0)
   102b0:	e51ff0ef          	jal	10100 <umod>
   102b4:	00050793          	mv	a5,a0
   102b8:	0ff7f793          	zext.b	a5,a5
   102bc:	03078793          	addi	a5,a5,48
   102c0:	0ff7f713          	zext.b	a4,a5
   102c4:	fec42783          	lw	a5,-20(s0)
   102c8:	00e78023          	sb	a4,0(a5)
   102cc:	fec42783          	lw	a5,-20(s0)
   102d0:	fff78793          	addi	a5,a5,-1
   102d4:	fef42623          	sw	a5,-20(s0)
   102d8:	00a00593          	li	a1,10
   102dc:	fcc42503          	lw	a0,-52(s0)
   102e0:	d5dff0ef          	jal	1003c <udiv>
   102e4:	fca42623          	sw	a0,-52(s0)
   102e8:	fcc42783          	lw	a5,-52(s0)
   102ec:	fa079ee3          	bnez	a5,102a8 <print_int+0x50>
   102f0:	fec42783          	lw	a5,-20(s0)
   102f4:	00178793          	addi	a5,a5,1
   102f8:	fef42623          	sw	a5,-20(s0)
   102fc:	fd840793          	addi	a5,s0,-40
   10300:	01378793          	addi	a5,a5,19
   10304:	fec42703          	lw	a4,-20(s0)
   10308:	40e78733          	sub	a4,a5,a4
   1030c:	fec42783          	lw	a5,-20(s0)
   10310:	04000893          	li	a7,64
   10314:	00100513          	li	a0,1
   10318:	00f005b3          	add	a1,zero,a5
   1031c:	00070613          	mv	a2,a4
   10320:	00000073          	ecall
   10324:	00000013          	nop
   10328:	03c12083          	lw	ra,60(sp)
   1032c:	03812403          	lw	s0,56(sp)
   10330:	04010113          	addi	sp,sp,64
   10334:	00008067          	ret

00010338 <print_char>:
   10338:	fe010113          	addi	sp,sp,-32
   1033c:	00112e23          	sw	ra,28(sp)
   10340:	00812c23          	sw	s0,24(sp)
   10344:	02010413          	addi	s0,sp,32
   10348:	00050793          	mv	a5,a0
   1034c:	fef407a3          	sb	a5,-17(s0)
   10350:	fef40793          	addi	a5,s0,-17
   10354:	00100713          	li	a4,1
   10358:	04000893          	li	a7,64
   1035c:	00100513          	li	a0,1
   10360:	00f005b3          	add	a1,zero,a5
   10364:	00070613          	mv	a2,a4
   10368:	00000073          	ecall
   1036c:	00000013          	nop
   10370:	01c12083          	lw	ra,28(sp)
   10374:	01812403          	lw	s0,24(sp)
   10378:	02010113          	addi	sp,sp,32
   1037c:	00008067          	ret

00010380 <strlen>:
   10380:	fd010113          	addi	sp,sp,-48
   10384:	02112623          	sw	ra,44(sp)
   10388:	02812423          	sw	s0,40(sp)
   1038c:	03010413          	addi	s0,sp,48
   10390:	fca42e23          	sw	a0,-36(s0)
   10394:	fe042623          	sw	zero,-20(s0)
   10398:	0100006f          	j	103a8 <strlen+0x28>
   1039c:	fec42783          	lw	a5,-20(s0)
   103a0:	00178793          	addi	a5,a5,1
   103a4:	fef42623          	sw	a5,-20(s0)
   103a8:	fdc42783          	lw	a5,-36(s0)
   103ac:	00178713          	addi	a4,a5,1
   103b0:	fce42e23          	sw	a4,-36(s0)
   103b4:	0007c783          	lbu	a5,0(a5)
   103b8:	fe0792e3          	bnez	a5,1039c <strlen+0x1c>
   103bc:	fec42783          	lw	a5,-20(s0)
   103c0:	00078513          	mv	a0,a5
   103c4:	02c12083          	lw	ra,44(sp)
   103c8:	02812403          	lw	s0,40(sp)
   103cc:	03010113          	addi	sp,sp,48
   103d0:	00008067          	ret

000103d4 <puts>:
   103d4:	fd010113          	addi	sp,sp,-48
   103d8:	02112623          	sw	ra,44(sp)
   103dc:	02812423          	sw	s0,40(sp)
   103e0:	03010413          	addi	s0,sp,48
   103e4:	fca42e23          	sw	a0,-36(s0)
   103e8:	fdc42503          	lw	a0,-36(s0)
   103ec:	f95ff0ef          	jal	10380 <strlen>
   103f0:	00050713          	mv	a4,a0
   103f4:	fdc42783          	lw	a5,-36(s0)
   103f8:	04000893          	li	a7,64
   103fc:	00100513          	li	a0,1
   10400:	00f005b3          	add	a1,zero,a5
   10404:	00070613          	mv	a2,a4
   10408:	00000073          	ecall
   1040c:	00a00793          	li	a5,10
   10410:	fef41623          	sh	a5,-20(s0)
   10414:	fec40793          	addi	a5,s0,-20
   10418:	00100713          	li	a4,1
   1041c:	04000893          	li	a7,64
   10420:	00100513          	li	a0,1
   10424:	00f005b3          	add	a1,zero,a5
   10428:	00070613          	mv	a2,a4
   1042c:	00000073          	ecall
   10430:	00000793          	li	a5,0
   10434:	00078513          	mv	a0,a5
   10438:	02c12083          	lw	ra,44(sp)
   1043c:	02812403          	lw	s0,40(sp)
   10440:	03010113          	addi	sp,sp,48
   10444:	00008067          	ret

00010448 <printf>:
   10448:	fc010113          	addi	sp,sp,-64
   1044c:	00112e23          	sw	ra,28(sp)
   10450:	00812c23          	sw	s0,24(sp)
   10454:	02010413          	addi	s0,sp,32
   10458:	fea42623          	sw	a0,-20(s0)
   1045c:	00b42223          	sw	a1,4(s0)
   10460:	00c42423          	sw	a2,8(s0)
   10464:	00d42623          	sw	a3,12(s0)
   10468:	00e42823          	sw	a4,16(s0)
   1046c:	00f42a23          	sw	a5,20(s0)
   10470:	01042c23          	sw	a6,24(s0)
   10474:	01142e23          	sw	a7,28(s0)
   10478:	fec42503          	lw	a0,-20(s0)
   1047c:	f05ff0ef          	jal	10380 <strlen>
   10480:	00050713          	mv	a4,a0
   10484:	fec42783          	lw	a5,-20(s0)
   10488:	04000893          	li	a7,64
   1048c:	00100513          	li	a0,1
   10490:	00f005b3          	add	a1,zero,a5
   10494:	00070613          	mv	a2,a4
   10498:	00000073          	ecall
   1049c:	00000793          	li	a5,0
   104a0:	00078513          	mv	a0,a5
   104a4:	01c12083          	lw	ra,28(sp)
   104a8:	01812403          	lw	s0,24(sp)
   104ac:	04010113          	addi	sp,sp,64
   104b0:	00008067          	ret

000104b4 <main>:
   104b4:	f9010113          	addi	sp,sp,-112
   104b8:	06112623          	sw	ra,108(sp)
   104bc:	06812423          	sw	s0,104(sp)
   104c0:	07010413          	addi	s0,sp,112
   104c4:	000117b7          	lui	a5,0x11
   104c8:	a9878793          	addi	a5,a5,-1384 # 10a98 <qz2_A_main+0x328>
   104cc:	0007a803          	lw	a6,0(a5)
   104d0:	0047a503          	lw	a0,4(a5)
   104d4:	0087a583          	lw	a1,8(a5)
   104d8:	00c7a603          	lw	a2,12(a5)
   104dc:	0107a683          	lw	a3,16(a5)
   104e0:	0147a703          	lw	a4,20(a5)
   104e4:	fd042223          	sw	a6,-60(s0)
   104e8:	fca42423          	sw	a0,-56(s0)
   104ec:	fcb42623          	sw	a1,-52(s0)
   104f0:	fcc42823          	sw	a2,-48(s0)
   104f4:	fcd42a23          	sw	a3,-44(s0)
   104f8:	fce42c23          	sw	a4,-40(s0)
   104fc:	0187d783          	lhu	a5,24(a5)
   10500:	fcf41e23          	sh	a5,-36(s0)
   10504:	fc440793          	addi	a5,s0,-60
   10508:	01900713          	li	a4,25
   1050c:	04000893          	li	a7,64
   10510:	00100513          	li	a0,1
   10514:	00f005b3          	add	a1,zero,a5
   10518:	00070613          	mv	a2,a4
   1051c:	00000073          	ecall
   10520:	198000ef          	jal	106b8 <get_cycles>
   10524:	00050713          	mv	a4,a0
   10528:	00058793          	mv	a5,a1
   1052c:	fee42423          	sw	a4,-24(s0)
   10530:	fef42623          	sw	a5,-20(s0)
   10534:	23c000ef          	jal	10770 <qz2_A_main>
   10538:	180000ef          	jal	106b8 <get_cycles>
   1053c:	00050713          	mv	a4,a0
   10540:	00058793          	mv	a5,a1
   10544:	fee42023          	sw	a4,-32(s0)
   10548:	fef42223          	sw	a5,-28(s0)
   1054c:	000117b7          	lui	a5,0x11
   10550:	ab478793          	addi	a5,a5,-1356 # 10ab4 <qz2_A_main+0x344>
   10554:	0007a803          	lw	a6,0(a5)
   10558:	0047a503          	lw	a0,4(a5)
   1055c:	0087a583          	lw	a1,8(a5)
   10560:	00c7a603          	lw	a2,12(a5)
   10564:	0107a683          	lw	a3,16(a5)
   10568:	0147a703          	lw	a4,20(a5)
   1056c:	fb042423          	sw	a6,-88(s0)
   10570:	faa42623          	sw	a0,-84(s0)
   10574:	fab42823          	sw	a1,-80(s0)
   10578:	fac42a23          	sw	a2,-76(s0)
   1057c:	fad42c23          	sw	a3,-72(s0)
   10580:	fae42e23          	sw	a4,-68(s0)
   10584:	0187d703          	lhu	a4,24(a5)
   10588:	fce41023          	sh	a4,-64(s0)
   1058c:	01a7c783          	lbu	a5,26(a5)
   10590:	fcf40123          	sb	a5,-62(s0)
   10594:	fa840793          	addi	a5,s0,-88
   10598:	01a00713          	li	a4,26
   1059c:	04000893          	li	a7,64
   105a0:	00100513          	li	a0,1
   105a4:	00f005b3          	add	a1,zero,a5
   105a8:	00070613          	mv	a2,a4
   105ac:	00000073          	ecall
   105b0:	000117b7          	lui	a5,0x11
   105b4:	ad078793          	addi	a5,a5,-1328 # 10ad0 <qz2_A_main+0x360>
   105b8:	0007a603          	lw	a2,0(a5)
   105bc:	0047a683          	lw	a3,4(a5)
   105c0:	0087a703          	lw	a4,8(a5)
   105c4:	f8c42c23          	sw	a2,-104(s0)
   105c8:	f8d42e23          	sw	a3,-100(s0)
   105cc:	fae42023          	sw	a4,-96(s0)
   105d0:	00c7d703          	lhu	a4,12(a5)
   105d4:	fae41223          	sh	a4,-92(s0)
   105d8:	00e7c783          	lbu	a5,14(a5)
   105dc:	faf40323          	sb	a5,-90(s0)
   105e0:	f9840793          	addi	a5,s0,-104
   105e4:	00e00713          	li	a4,14
   105e8:	04000893          	li	a7,64
   105ec:	00100513          	li	a0,1
   105f0:	00f005b3          	add	a1,zero,a5
   105f4:	00070613          	mv	a2,a4
   105f8:	00000073          	ecall
   105fc:	fe042703          	lw	a4,-32(s0)
   10600:	fe442783          	lw	a5,-28(s0)
   10604:	00070693          	mv	a3,a4
   10608:	fe842703          	lw	a4,-24(s0)
   1060c:	fec42783          	lw	a5,-20(s0)
   10610:	00070793          	mv	a5,a4
   10614:	40f687b3          	sub	a5,a3,a5
   10618:	00078513          	mv	a0,a5
   1061c:	c3dff0ef          	jal	10258 <print_int>
   10620:	00a00793          	li	a5,10
   10624:	f8f41a23          	sh	a5,-108(s0)
   10628:	f9440793          	addi	a5,s0,-108
   1062c:	00100713          	li	a4,1
   10630:	04000893          	li	a7,64
   10634:	00100513          	li	a0,1
   10638:	00f005b3          	add	a1,zero,a5
   1063c:	00070613          	mv	a2,a4
   10640:	00000073          	ecall
   10644:	00000793          	li	a5,0
   10648:	00078513          	mv	a0,a5
   1064c:	06c12083          	lw	ra,108(sp)
   10650:	06812403          	lw	s0,104(sp)
   10654:	07010113          	addi	sp,sp,112
   10658:	00008067          	ret

0001065c <__popcountsi2>:
   1065c:	fd010113          	addi	sp,sp,-48
   10660:	02112623          	sw	ra,44(sp)
   10664:	02812423          	sw	s0,40(sp)
   10668:	03010413          	addi	s0,sp,48
   1066c:	fca42e23          	sw	a0,-36(s0)
   10670:	fe042623          	sw	zero,-20(s0)
   10674:	0240006f          	j	10698 <__popcountsi2+0x3c>
   10678:	fdc42783          	lw	a5,-36(s0)
   1067c:	fff78793          	addi	a5,a5,-1
   10680:	fdc42703          	lw	a4,-36(s0)
   10684:	00f777b3          	and	a5,a4,a5
   10688:	fcf42e23          	sw	a5,-36(s0)
   1068c:	fec42783          	lw	a5,-20(s0)
   10690:	00178793          	addi	a5,a5,1
   10694:	fef42623          	sw	a5,-20(s0)
   10698:	fdc42783          	lw	a5,-36(s0)
   1069c:	fc079ee3          	bnez	a5,10678 <__popcountsi2+0x1c>
   106a0:	fec42783          	lw	a5,-20(s0)
   106a4:	00078513          	mv	a0,a5
   106a8:	02c12083          	lw	ra,44(sp)
   106ac:	02812403          	lw	s0,40(sp)
   106b0:	03010113          	addi	sp,sp,48
   106b4:	00008067          	ret

000106b8 <get_cycles>:
   106b8:	c80025f3          	rdcycleh	a1
   106bc:	c0002573          	rdcycle	a0
   106c0:	c8002673          	rdcycleh	a2
   106c4:	fec59ae3          	bne	a1,a2,106b8 <get_cycles>
   106c8:	00008067          	ret

000106cc <get_instret>:
   106cc:	c82025f3          	rdinstreth	a1
   106d0:	c0202573          	rdinstret	a0
   106d4:	c8202673          	rdinstreth	a2
   106d8:	fec59ae3          	bne	a1,a2,106cc <get_instret>
   106dc:	00008067          	ret

000106e0 <print_move>:
   106e0:	fe010113          	addi	sp,sp,-32
   106e4:	00112e23          	sw	ra,28(sp)
   106e8:	00812c23          	sw	s0,24(sp)
   106ec:	02010413          	addi	s0,sp,32
   106f0:	fea42623          	sw	a0,-20(s0)
   106f4:	00058793          	mv	a5,a1
   106f8:	00060713          	mv	a4,a2
   106fc:	fef405a3          	sb	a5,-21(s0)
   10700:	00070793          	mv	a5,a4
   10704:	fef40523          	sb	a5,-22(s0)
   10708:	000117b7          	lui	a5,0x11
   1070c:	ae078513          	addi	a0,a5,-1312 # 10ae0 <qz2_A_main+0x370>
   10710:	d39ff0ef          	jal	10448 <printf>
   10714:	fec42783          	lw	a5,-20(s0)
   10718:	00078513          	mv	a0,a5
   1071c:	b3dff0ef          	jal	10258 <print_int>
   10720:	000117b7          	lui	a5,0x11
   10724:	aec78513          	addi	a0,a5,-1300 # 10aec <qz2_A_main+0x37c>
   10728:	d21ff0ef          	jal	10448 <printf>
   1072c:	feb44783          	lbu	a5,-21(s0)
   10730:	00078513          	mv	a0,a5
   10734:	c05ff0ef          	jal	10338 <print_char>
   10738:	000117b7          	lui	a5,0x11
   1073c:	af478513          	addi	a0,a5,-1292 # 10af4 <qz2_A_main+0x384>
   10740:	d09ff0ef          	jal	10448 <printf>
   10744:	fea44783          	lbu	a5,-22(s0)
   10748:	00078513          	mv	a0,a5
   1074c:	bedff0ef          	jal	10338 <print_char>
   10750:	000117b7          	lui	a5,0x11
   10754:	afc78513          	addi	a0,a5,-1284 # 10afc <qz2_A_main+0x38c>
   10758:	c7dff0ef          	jal	103d4 <puts>
   1075c:	00000013          	nop
   10760:	01c12083          	lw	ra,28(sp)
   10764:	01812403          	lw	s0,24(sp)
   10768:	02010113          	addi	sp,sp,32
   1076c:	00008067          	ret

00010770 <qz2_A_main>:
   10770:	f9010113          	addi	sp,sp,-112
   10774:	06112623          	sw	ra,108(sp)
   10778:	06812423          	sw	s0,104(sp)
   1077c:	06912223          	sw	s1,100(sp)
   10780:	07010413          	addi	s0,sp,112
   10784:	00010313          	mv	t1,sp
   10788:	00030493          	mv	s1,t1
   1078c:	00300313          	li	t1,3
   10790:	fc642823          	sw	t1,-48(s0)
   10794:	00700313          	li	t1,7
   10798:	fc642623          	sw	t1,-52(s0)
   1079c:	00004337          	lui	t1,0x4
   107a0:	24130313          	addi	t1,t1,577 # 4241 <_start-0xbdbf>
   107a4:	fa641023          	sh	t1,-96(s0)
   107a8:	04300313          	li	t1,67
   107ac:	fa640123          	sb	t1,-94(s0)
   107b0:	fd042303          	lw	t1,-48(s0)
   107b4:	fff30e13          	addi	t3,t1,-1
   107b8:	fdc42423          	sw	t3,-56(s0)
   107bc:	00030e13          	mv	t3,t1
   107c0:	000e0813          	mv	a6,t3
   107c4:	00000893          	li	a7,0
   107c8:	01b85e13          	srli	t3,a6,0x1b
   107cc:	00589693          	slli	a3,a7,0x5
   107d0:	00de66b3          	or	a3,t3,a3
   107d4:	00581613          	slli	a2,a6,0x5
   107d8:	00030693          	mv	a3,t1
   107dc:	00068513          	mv	a0,a3
   107e0:	00000593          	li	a1,0
   107e4:	01b55693          	srli	a3,a0,0x1b
   107e8:	00559793          	slli	a5,a1,0x5
   107ec:	00f6e7b3          	or	a5,a3,a5
   107f0:	00551713          	slli	a4,a0,0x5
   107f4:	00030793          	mv	a5,t1
   107f8:	00279793          	slli	a5,a5,0x2
   107fc:	00f78793          	addi	a5,a5,15
   10800:	0047d793          	srli	a5,a5,0x4
   10804:	00479793          	slli	a5,a5,0x4
   10808:	40f10133          	sub	sp,sp,a5
   1080c:	00010793          	mv	a5,sp
   10810:	00378793          	addi	a5,a5,3
   10814:	0027d793          	srli	a5,a5,0x2
   10818:	00279793          	slli	a5,a5,0x2
   1081c:	fcf42223          	sw	a5,-60(s0)
   10820:	fe042623          	sw	zero,-20(s0)
   10824:	0240006f          	j	10848 <qz2_A_main+0xd8>
   10828:	fc442703          	lw	a4,-60(s0)
   1082c:	fec42783          	lw	a5,-20(s0)
   10830:	00279793          	slli	a5,a5,0x2
   10834:	00f707b3          	add	a5,a4,a5
   10838:	0007a023          	sw	zero,0(a5)
   1083c:	fec42783          	lw	a5,-20(s0)
   10840:	00178793          	addi	a5,a5,1
   10844:	fef42623          	sw	a5,-20(s0)
   10848:	fec42703          	lw	a4,-20(s0)
   1084c:	fd042783          	lw	a5,-48(s0)
   10850:	fcf74ce3          	blt	a4,a5,10828 <qz2_A_main+0xb8>
   10854:	fd042783          	lw	a5,-48(s0)
   10858:	0017f793          	andi	a5,a5,1
   1085c:	00078663          	beqz	a5,10868 <qz2_A_main+0xf8>
   10860:	fff00793          	li	a5,-1
   10864:	0080006f          	j	1086c <qz2_A_main+0xfc>
   10868:	00100793          	li	a5,1
   1086c:	fcf42023          	sw	a5,-64(s0)
   10870:	20900793          	li	a5,521
   10874:	f8f41e23          	sh	a5,-100(s0)
   10878:	00400793          	li	a5,4
   1087c:	f8f40f23          	sb	a5,-98(s0)
   10880:	fc042783          	lw	a5,-64(s0)
   10884:	00178793          	addi	a5,a5,1
   10888:	01f7d713          	srli	a4,a5,0x1f
   1088c:	00f707b3          	add	a5,a4,a5
   10890:	4017d793          	srai	a5,a5,0x1
   10894:	faf42e23          	sw	a5,-68(s0)
   10898:	00100793          	li	a5,1
   1089c:	fef42423          	sw	a5,-24(s0)
   108a0:	1c80006f          	j	10a68 <qz2_A_main+0x2f8>
   108a4:	fe842783          	lw	a5,-24(s0)
   108a8:	4017d793          	srai	a5,a5,0x1
   108ac:	fe842703          	lw	a4,-24(s0)
   108b0:	00f747b3          	xor	a5,a4,a5
   108b4:	faf42c23          	sw	a5,-72(s0)
   108b8:	fe842783          	lw	a5,-24(s0)
   108bc:	fff78713          	addi	a4,a5,-1
   108c0:	fe842783          	lw	a5,-24(s0)
   108c4:	fff78793          	addi	a5,a5,-1
   108c8:	4017d793          	srai	a5,a5,0x1
   108cc:	00f747b3          	xor	a5,a4,a5
   108d0:	faf42a23          	sw	a5,-76(s0)
   108d4:	fb842703          	lw	a4,-72(s0)
   108d8:	fb442783          	lw	a5,-76(s0)
   108dc:	00f747b3          	xor	a5,a4,a5
   108e0:	faf42823          	sw	a5,-80(s0)
   108e4:	fb042783          	lw	a5,-80(s0)
   108e8:	fff78793          	addi	a5,a5,-1
   108ec:	00078513          	mv	a0,a5
   108f0:	d6dff0ef          	jal	1065c <__popcountsi2>
   108f4:	00050793          	mv	a5,a0
   108f8:	faf42623          	sw	a5,-84(s0)
   108fc:	fc442703          	lw	a4,-60(s0)
   10900:	fac42783          	lw	a5,-84(s0)
   10904:	00279793          	slli	a5,a5,0x2
   10908:	00f707b3          	add	a5,a4,a5
   1090c:	0007a783          	lw	a5,0(a5)
   10910:	faf42423          	sw	a5,-88(s0)
   10914:	fac42783          	lw	a5,-84(s0)
   10918:	04079063          	bnez	a5,10958 <qz2_A_main+0x1e8>
   1091c:	00100713          	li	a4,1
   10920:	fbc42783          	lw	a5,-68(s0)
   10924:	40f707b3          	sub	a5,a4,a5
   10928:	00179793          	slli	a5,a5,0x1
   1092c:	faf42223          	sw	a5,-92(s0)
   10930:	fa842783          	lw	a5,-88(s0)
   10934:	ff078793          	addi	a5,a5,-16
   10938:	008787b3          	add	a5,a5,s0
   1093c:	fac7c783          	lbu	a5,-84(a5)
   10940:	00078713          	mv	a4,a5
   10944:	fa442783          	lw	a5,-92(s0)
   10948:	40f757b3          	sra	a5,a4,a5
   1094c:	0037f793          	andi	a5,a5,3
   10950:	fef42223          	sw	a5,-28(s0)
   10954:	0b80006f          	j	10a0c <qz2_A_main+0x29c>
   10958:	fe0401a3          	sb	zero,-29(s0)
   1095c:	fc042e23          	sw	zero,-36(s0)
   10960:	0900006f          	j	109f0 <qz2_A_main+0x280>
   10964:	fdc42703          	lw	a4,-36(s0)
   10968:	fa842783          	lw	a5,-88(s0)
   1096c:	06f70a63          	beq	a4,a5,109e0 <qz2_A_main+0x270>
   10970:	fc040da3          	sb	zero,-37(s0)
   10974:	fc042a23          	sw	zero,-44(s0)
   10978:	0380006f          	j	109b0 <qz2_A_main+0x240>
   1097c:	fc442703          	lw	a4,-60(s0)
   10980:	fd442783          	lw	a5,-44(s0)
   10984:	00279793          	slli	a5,a5,0x2
   10988:	00f707b3          	add	a5,a4,a5
   1098c:	0007a783          	lw	a5,0(a5)
   10990:	fdc42703          	lw	a4,-36(s0)
   10994:	00f71863          	bne	a4,a5,109a4 <qz2_A_main+0x234>
   10998:	00100793          	li	a5,1
   1099c:	fcf40da3          	sb	a5,-37(s0)
   109a0:	01c0006f          	j	109bc <qz2_A_main+0x24c>
   109a4:	fd442783          	lw	a5,-44(s0)
   109a8:	00178793          	addi	a5,a5,1
   109ac:	fcf42a23          	sw	a5,-44(s0)
   109b0:	fd442703          	lw	a4,-44(s0)
   109b4:	fac42783          	lw	a5,-84(s0)
   109b8:	fcf742e3          	blt	a4,a5,1097c <qz2_A_main+0x20c>
   109bc:	fdb44783          	lbu	a5,-37(s0)
   109c0:	0017c793          	xori	a5,a5,1
   109c4:	0ff7f793          	zext.b	a5,a5
   109c8:	00078e63          	beqz	a5,109e4 <qz2_A_main+0x274>
   109cc:	fdc42783          	lw	a5,-36(s0)
   109d0:	fef42223          	sw	a5,-28(s0)
   109d4:	00100793          	li	a5,1
   109d8:	fef401a3          	sb	a5,-29(s0)
   109dc:	0080006f          	j	109e4 <qz2_A_main+0x274>
   109e0:	00000013          	nop
   109e4:	fdc42783          	lw	a5,-36(s0)
   109e8:	00178793          	addi	a5,a5,1
   109ec:	fcf42e23          	sw	a5,-36(s0)
   109f0:	fdc42703          	lw	a4,-36(s0)
   109f4:	00200793          	li	a5,2
   109f8:	00e7ca63          	blt	a5,a4,10a0c <qz2_A_main+0x29c>
   109fc:	fe344783          	lbu	a5,-29(s0)
   10a00:	0017c793          	xori	a5,a5,1
   10a04:	0ff7f793          	zext.b	a5,a5
   10a08:	f4079ee3          	bnez	a5,10964 <qz2_A_main+0x1f4>
   10a0c:	fac42783          	lw	a5,-84(s0)
   10a10:	00178713          	addi	a4,a5,1
   10a14:	fa842783          	lw	a5,-88(s0)
   10a18:	ff078793          	addi	a5,a5,-16
   10a1c:	008787b3          	add	a5,a5,s0
   10a20:	fb07c683          	lbu	a3,-80(a5)
   10a24:	fe442783          	lw	a5,-28(s0)
   10a28:	ff078793          	addi	a5,a5,-16
   10a2c:	008787b3          	add	a5,a5,s0
   10a30:	fb07c783          	lbu	a5,-80(a5)
   10a34:	00078613          	mv	a2,a5
   10a38:	00068593          	mv	a1,a3
   10a3c:	00070513          	mv	a0,a4
   10a40:	ca1ff0ef          	jal	106e0 <print_move>
   10a44:	fc442703          	lw	a4,-60(s0)
   10a48:	fac42783          	lw	a5,-84(s0)
   10a4c:	00279793          	slli	a5,a5,0x2
   10a50:	00f707b3          	add	a5,a4,a5
   10a54:	fe442703          	lw	a4,-28(s0)
   10a58:	00e7a023          	sw	a4,0(a5)
   10a5c:	fe842783          	lw	a5,-24(s0)
   10a60:	00178793          	addi	a5,a5,1
   10a64:	fef42423          	sw	a5,-24(s0)
   10a68:	fe842703          	lw	a4,-24(s0)
   10a6c:	fcc42783          	lw	a5,-52(s0)
   10a70:	e2e7dae3          	bge	a5,a4,108a4 <qz2_A_main+0x134>
   10a74:	00000793          	li	a5,0
   10a78:	00048113          	mv	sp,s1
   10a7c:	00078513          	mv	a0,a5
   10a80:	f9040113          	addi	sp,s0,-112
   10a84:	06c12083          	lw	ra,108(sp)
   10a88:	06812403          	lw	s0,104(sp)
   10a8c:	06412483          	lw	s1,100(sp)
   10a90:	07010113          	addi	sp,sp,112
   10a94:	00008067          	ret
