
test.elf:     file format elf32-littleriscv

Contents of section .text:
 10000 17210000 130101b0 97120000 938262af  .!............b.
 10010 17130000 1303e3ae 63d86200 23a00200  ........c.b.#...
 10020 93824200 6ff05fff ef00c04b 9308d005  ..B.o._....K....
 10030 13050000 73000000 6f000000 130101fd  ....s...o.......
 10040 23261102 23248102 13040103 232ea4fc  #&..#$......#...
 10050 232cb4fc 232ac4fc 8327c4fd 2326f4fe  #,..#*...'..#&..
 10060 832784fd 2324f4fe 6f004002 032784fe  .'..#$..o.@..'..
 10070 93071700 2324f4fe 8327c4fe 93861700  ....#$...'......
 10080 2326d4fe 03470700 2380e700 832744fd  #&...G..#....'D.
 10090 1387f7ff 232ae4fc e39a07fc 8327c4fd  ....#*.......'..
 100a0 13850700 8320c102 03248102 13010103  ..... ...$......
 100b0 67800000 130101fd 23261102 23248102  g.......#&..#$..
 100c0 13040103 232ea4fc 232cb4fc 832784fd  ....#...#,...'..
 100d0 63960700 93070000 6f00c008 232604fe  c.......o...#&..
 100e0 232404fe 9307f001 2322f4fe 6f00c006  #$......#"..o...
 100f0 832784fe 93971700 2324f4fe 832744fe  .'......#$...'D.
 10100 0327c4fd b357f700 93f71700 032784fe  .'...W.......'..
 10110 b367f700 2324f4fe 032784fe 832784fd  .g..#$...'...'..
 10120 6366f702 032784fe 832784fd b307f740  cf...'...'.....@
 10130 2324f4fe 832744fe 13071000 b317f700  #$...'D.........
 10140 0327c4fe b367f700 2326f4fe 832744fe  .'...g..#&...'D.
 10150 9387f7ff 2322f4fe 832744fe e3da07f8  ....#"...'D.....
 10160 8327c4fe 13850700 8320c102 03248102  .'....... ...$..
 10170 13010103 67800000 130101fd 23261102  ....g.......#&..
 10180 23248102 13040103 232ea4fc 232cb4fc  #$......#...#,..
 10190 832784fd 63960700 93070000 6f000007  .'..c.......o...
 101a0 232604fe 9307f001 2324f4fe 6f004005  #&......#$..o.@.
 101b0 8327c4fe 93971700 2326f4fe 832784fe  .'......#&...'..
 101c0 0327c4fd b357f700 93f71700 0327c4fe  .'...W.......'..
 101d0 b367f700 2326f4fe 0327c4fe 832784fd  .g..#&...'...'..
 101e0 636af700 0327c4fe 832784fd b307f740  cj...'...'.....@
 101f0 2326f4fe 832784fe 9387f7ff 2324f4fe  #&...'......#$..
 10200 832784fe e3d607fa 8327c4fe 13850700  .'.......'......
 10210 8320c102 03248102 13010103 67800000  . ...$......g...
 10220 130101fd 23261102 23248102 13040103  ....#&..#$......
 10230 232ea4fc 232cb4fc 232604fe 6f008003  #...#,..#&..o...
 10240 832784fd 93f71700 638a0700 0327c4fe  .'......c....'..
 10250 8327c4fd b307f700 2326f4fe 8327c4fd  .'......#&...'..
 10260 93971700 232ef4fc 832784fd 93d71700  ....#....'......
 10270 232cf4fc 832784fd e39407fc 8327c4fe  #,...'.......'..
 10280 13850700 8320c102 03248102 13010103  ..... ...$......
 10290 67800000 130101fe 232e1100 232c8100  g.......#...#,..
 102a0 13040102 2326a4fe 2324b4fe 832584fe  ....#&..#$...%..
 102b0 0325c4fe eff0dff6 93070500 13850700  .%..............
 102c0 8320c101 03248101 13010102 67800000  . ...$......g...
 102d0 130101fc 232e1102 232c8102 13040104  ....#...#,......
 102e0 2326a4fc 930784fd 93873701 2326f4fe  #&........7.#&..
 102f0 8327c4fe 9387f7ff 2326f4fe 8327c4fc  .'......#&...'..
 10300 63900706 8327c4fe 13070003 2380e700  c....'......#...
 10310 8327c4fe 9387f7ff 2326f4fe 6f00c004  .'......#&..o...
 10320 9305a000 0325c4fc eff01fe5 93070500  .....%..........
 10330 93f7f70f 93870703 13f7f70f 8327c4fe  .............'..
 10340 2380e700 8327c4fe 9387f7ff 2326f4fe  #....'......#&..
 10350 9305a000 0325c4fc eff0dfd5 2326a4fc  .....%......#&..
 10360 8327c4fc e39e07fa 8327c4fe 93871700  .'.......'......
 10370 2326f4fe 930784fd 93873701 0327c4fe  #&........7..'..
 10380 3387e740 8327c4fe 93080004 13051000  3..@.'..........
 10390 b305f000 13060700 73000000 13000000  ........s.......
 103a0 8320c103 03248103 13010104 67800000  . ...$......g...
 103b0 130101fd 23261102 23248102 13040103  ....#&..#$......
 103c0 232ea4fc 232604fe 6f000001 8327c4fe  #...#&..o....'..
 103d0 93871700 2326f4fe 8327c4fd 13871700  ....#&...'......
 103e0 232ee4fc 83c70700 e39207fe 8327c4fe  #............'..
 103f0 13850700 8320c102 03248102 13010103  ..... ...$......
 10400 67800000 130101fd 23261102 23248102  g.......#&..#$..
 10410 13040103 232ea4fc 0325c4fd eff05ff9  ....#....%...._.
 10420 13070500 8327c4fd 93080004 13051000  .....'..........
 10430 b305f000 13060700 73000000 9307a000  ........s.......
 10440 2316f4fe 9307c4fe 13071000 93080004  #...............
 10450 13051000 b305f000 13060700 73000000  ............s...
 10460 93070000 13850700 8320c102 03248102  ......... ...$..
 10470 13010103 67800000 130101fc 232e1100  ....g.......#...
 10480 232c8100 13040102 2326a4fe 2322b400  #,......#&..#"..
 10490 2324c400 2326d400 2328e400 232af400  #$..#&..#(..#*..
 104a0 232c0401 232e1401 0325c4fe eff05ff0  #,..#....%...._.
 104b0 13070500 8327c4fe 93080004 13051000  .....'..........
 104c0 b305f000 13060700 73000000 93070000  ........s.......
 104d0 13850700 8320c101 03248101 13010104  ..... ...$......
 104e0 67800000 130101f9 23261106 23248106  g.......#&..#$..
 104f0 13040107 b7170100 938787a4 03a80700  ................
 10500 03a54700 83a58700 03a6c700 83a60701  ..G.............
 10510 03a74701 232204fd 2324a4fc 2326b4fc  ..G.#"..#$..#&..
 10520 2328c4fc 232ad4fc 232ce4fc 83d78701  #(..#*..#,......
 10530 231ef4fc 930744fc 13079001 93080004  #.....D.........
 10540 13051000 b305f000 13060700 73000000  ............s...
 10550 ef00c011 2324a4fe 2326b4fe ef00404a  ....#$..#&....@J
 10560 ef00c010 2320a4fe 2322b4fe b7170100  ....# ..#"......
 10570 938747a6 03a80700 03a54700 83a58700  ..G.......G.....
 10580 03a6c700 83a60701 03a74701 232404fb  ..........G.#$..
 10590 2326a4fa 2328b4fa 232ac4fa 232cd4fa  #&..#(..#*..#,..
 105a0 232ee4fa 03d78701 2310e4fc 83c7a701  #.......#.......
 105b0 2301f4fc 930784fa 1307a001 93080004  #...............
 105c0 13051000 b305f000 13060700 73000000  ............s...
 105d0 b7170100 938707a8 03a60700 83a64700  ..............G.
 105e0 03a78700 232cc4f8 232ed4f8 2320e4fa  ....#,..#...# ..
 105f0 03d7c700 2312e4fa 83c7e700 2303f4fa  ....#.......#...
 10600 930784f9 1307e000 93080004 13051000  ................
 10610 b305f000 13060700 73000000 032704fe  ........s....'..
 10620 832784fe b307f740 13850700 eff05fca  .'.....@......_.
 10630 9307a000 231af4f8 930744f9 13071000  ....#.....D.....
 10640 93080004 13051000 b305f000 13060700  ................
 10650 73000000 93070000 13850700 8320c106  s............ ..
 10660 03248106 13010107 67800000 f32500c8  .$......g....%..
 10670 732500c0 732600c8 e39ac5fe 67800000  s%..s&......g...
 10680 f32520c8 732520c0 732620c8 e39ac5fe  .% .s% .s& .....
 10690 67800000 130101fd 23261102 23248102  g.......#&..#$..
 106a0 13040103 232ea4fc 93070002 2326f4fe  ....#.......#&..
 106b0 93070001 2324f4fe 832784fe 0327c4fd  ....#$...'...'..
 106c0 b357f700 2322f4fe 832744fe 638e0700  .W..#"...'D.c...
 106d0 0327c4fe 832784fe b307f740 2326f4fe  .'...'.....@#&..
 106e0 832744fe 232ef4fc 832784fe 93d71740  .'D.#....'.....@
 106f0 2324f4fe 832784fe e39007fc 0327c4fe  #$...'.......'..
 10700 8327c4fd b307f740 13850700 8320c102  .'.....@..... ..
 10710 03248102 13010103 67800000 130101fd  .$......g.......
 10720 23261102 23248102 13040103 93070500  #&..#$..........
 10730 a30ff4fc 8347f4fd 93f7f700 2326f4fe  .....G......#&..
 10740 8347f4fd 93d74700 a305f4fe 8347b4fe  .G....G......G..
 10750 1307f000 b307f740 37870000 1307f7ff  .......@7.......
 10760 b357f740 93974700 2322f4fe 8347b4fe  .W.@..G.#"...G..
 10770 0327c4fe 3317f700 832744fe b307f700  .'..3....'D.....
 10780 13850700 8320c102 03248102 13010103  ..... ...$......
 10790 67800000 130101fc 232e1102 232c8102  g.......#...#,..
 107a0 13040104 2326a4fc 0327c4fc 9307f000  ....#&...'......
 107b0 63e8e700 8327c4fc 93f7f70f 6f004014  c....'......o.@.
 107c0 0325c4fc eff01fed 93070500 2320f4fe  .%..........# ..
 107d0 1307f001 832704fe b307f740 232ef4fc  .....'.....@#...
 107e0 a30704fe 232404fe 0327c4fd 93074000  ....#$...'....@.
 107f0 63d0e70c 8327c4fd 93f7f70f 9387c7ff  c....'..........
 10800 a307f4fe 0347f4fe 9307f000 63f6e700  .....G......c...
 10810 9307f000 a307f4fe a30304fe 6f000002  ............o...
 10820 832784fe 93971700 93870701 2324f4fe  .'..........#$..
 10830 834774fe 93871700 a303f4fe 034774fe  .Gt..........Gt.
 10840 8347f4fe e36ef7fc 6f000002 832784fe  .G...n..o....'..
 10850 938707ff 93d71700 2324f4fe 8347f4fe  ........#$...G..
 10860 9387f7ff a307f4fe 8347f4fe 63820704  .........G..c...
 10870 0327c4fc 832784fe e36af7fc 6f004003  .'...'...j..o.@.
 10880 832784fe 93971700 93870701 232cf4fc  .'..........#,..
 10890 0327c4fc 832784fd 6364f702 832784fd  .'...'..cd...'..
 108a0 2324f4fe 8347f4fe 93871700 a307f4fe  #$...G..........
 108b0 0347f4fe 9307e000 e3f4e7fc 6f008000  .G..........o...
 108c0 13000000 0327c4fc 832784fe 3307f740  .....'...'..3..@
 108d0 8347f4fe b357f700 a30bf4fc 8307f4fe  .G...W..........
 108e0 93974700 13978701 13578741 830774fd  ..G......W.A..t.
 108f0 b367f700 93978701 93d78741 93f7f70f  .g.........A....
 10900 13850700 8320c103 03248103 13010104  ..... ...$......
 10910 67800000 130101fd 23261102 23248102  g.......#&..#$..
 10920 13040103 9307f0ff 2326f4fe 93071000  ........#&......
 10930 a305f4fe 232204fe 6f00400a 832744fe  ....#"..o.@..'D.
 10940 a301f4fe 834734fe 13850700 eff01fdd  .....G4.........
 10950 93070500 232ef4fc 8327c4fd 13850700  ....#....'......
 10960 eff05fe3 93070500 a30df4fc 034734fe  .._..........G4.
 10970 8347b4fd 6304f702 834734fe 0347b4fd  .G..c....G4..G..
 10980 93060700 0326c4fd 93850700 b7170100  .....&..........
 10990 138507a9 eff05fae a30504fe 0327c4fd  ......_......'..
 109a0 8327c4fe 63c2e702 834734fe 8326c4fe  .'..c....G4..&..
 109b0 0326c4fd 93850700 b7170100 138547ac  .&............G.
 109c0 eff09fab a30504fe 8327c4fd 2326f4fe  .........'..#&..
 109d0 832744fe 93871700 2322f4fe 032744fe  .'D.....#"...'D.
 109e0 9307f00f e3dce7f4 8347b4fe 13850700  .........G......
 109f0 8320c102 03248102 13010103 67800000  . ...$......g...
 10a00 130101ff 23261100 23248100 13040101  ....#&..#$......
 10a10 eff05ff0 93070500 638c0700 b7170100  .._.....c.......
 10a20 1385c7ae eff01f9e 93070000 6f008000  ............o...
 10a30 93071000 13850700 8320c100 03248100  ......... ...$..
 10a40 13010101 67800000                    ....g...        
Contents of section .rodata:
 10a48 3d3d3d20 5b52756e 6e696e67 20687731  === [Running hw1
 10a58 5f425d20 3d3d3d0a 0a000000 0a3d3d3d  _B] ===......===
 10a68 205b6877 315f4220 46696e69 73686564   [hw1_B Finished
 10a78 5d203d3d 3d0a0000 546f7461 6c204379  ] ===...Total Cy
 10a88 636c6573 3a200000 25303278 3a207072  cles: ..%02x: pr
 10a98 6f647563 65732076 616c7565 20256420  oduces value %d 
 10aa8 62757420 656e636f 64657320 6261636b  but encodes back
 10ab8 20746f20 25303278 0a000000 25303278   to %02x....%02x
 10ac8 3a207661 6c756520 2564203c 3d207072  : value %d <= pr
 10ad8 6576696f 75735f76 616c7565 2025640a  evious_value %d.
 10ae8 00000000 416c6c20 74657374 73207061  ....All tests pa
 10af8 73736564 2e00                        ssed..          
Contents of section .riscv.attributes:
 0000 41280000 00726973 63760001 1e000000  A(...riscv......
 0010 04100572 76333269 3270315f 7a696373  ...rv32i2p1_zics
 0020 72327030 0008010a 0b                 r2p0.....       
Contents of section .comment:
 0000 4743433a 20287850 61636b20 474e5520  GCC: (xPack GNU 
 0010 52495343 2d562045 6d626564 64656420  RISC-V Embedded 
 0020 47434320 61726d36 34292031 342e322e  GCC arm64) 14.2.
 0030 3000                                 0.              
Contents of section .debug_line:
 0000 71000000 02001b00 00000101 fb0e0a00  q...............
 0010 01010101 00000001 00737461 72742e53  .........start.S
 0020 00000000 00000502 00000100 16030309  ................
 0030 08000103 01090800 01030209 08000103  ................
 0040 01090400 01030109 04000103 01090400  ................
 0050 01030409 04000103 03090400 01030109  ................
 0060 04000103 01090400 01030409 04000109  ................
 0070 04000001 01cd0300 00050004 00450000  .............E..
 0080 00010101 fb0e0d00 01010101 00000001  ................
 0090 00000101 011f0400 0000002d 00000072  ...........-...r
 00a0 000000b3 00000002 011f020f 05260000  .............&..
 00b0 00002600 000000ff 00000001 10010000  ..&.............
 00c0 021a0100 00030535 0005023c 00010003  .......5...<....
 00d0 1301050e 0301091c 00010514 03010908  ................
 00e0 0001050b 03010908 00010512 03010904  ................
 00f0 0001050b 0300090c 00010510 0300090c  ................
 0100 0001050e 03000904 0001050d 037f0904  ................
 0110 0001050c 0300090c 00010302 09040001  ................
 0120 05010301 09040001 054a0302 09140001  .........J......
 0130 05080301 09180001 051e0002 04010300  ................
 0140 09080001 06030009 04000105 13060301  ................
 0150 09040001 05210300 09040001 050e0301  .....!..........
 0160 09040001 05050300 09080001 05130301  ................
 0170 09040001 05200301 090c0001 05260300  ..... .......&..
 0180 090c0001 05130300 09040001 050c0301  ................
 0190 090c0001 05170301 090c0001 051e0301  ................
 01a0 09100001 05160300 090c0001 051f0002  ................
 01b0 0402037b 090c0001 05180002 04010300  ...{............
 01c0 090c0001 050c0308 09080001 05010301  ................
 01d0 09040001 054a0302 09140001 05080301  .....J..........
 01e0 09180001 051e0002 04010300 09080001  ................
 01f0 06030009 04000105 13060301 09040001  ................
 0200 050e0301 09040001 05050300 09080001  ................
 0210 05130301 09040001 05200301 090c0001  ......... ......
 0220 05260300 090c0001 05130300 09040001  .&..............
 0230 050c0301 090c0001 05170301 090c0001  ................
 0240 051f0002 0402037c 09100001 05180002  .......|........
 0250 04010300 090c0001 050c0307 09080001  ................
 0260 05010301 09040001 052e0302 09140001  ................
 0270 050e0301 09180001 050b0301 09040001  ................
 0280 050f0301 09040001 050c0300 09080001  ................
 0290 05140301 09040001 050b0301 09100001  ................
 02a0 0301090c 0001050c 037c090c 00010306  .........|......
 02b0 09080001 05010301 09040001 052b0303  .............+..
 02c0 09140001 050c0301 09180001 05010301  ................
 02d0 09100001 052a0302 09140001 050b0302  .....*..........
 02e0 09140001 05060301 090c0001 05080301  ................
 02f0 090c0001 050c0301 09080001 050a0301  ................
 0300 090c0001 05180303 09100001 05160002  ................
 0310 04010300 09100001 05100002 04010300  ................
 0320 090c0001 050e0301 09080001 05130301  ................
 0330 090c0001 0514037d 09100001 05060306  .......}........
 0340 09080001 05050301 090c0001 05010301  ................
 0350 09280001 051e0307 09140001 050c0301  .(..............
 0360 09140001 050b0301 09040001 050e0301  ................
 0370 09040001 037f090c 0001050c 0300090c  ................
 0380 00010302 09080001 05010301 09040001  ................
 0390 05190303 09140001 05050301 09140001  ................
 03a0 00020401 06030009 0c000106 03010918  ................
 03b0 0001050c 03010924 00010501 03010904  .......$........
 03c0 00010525 03030914 00010505 03010930  ...%...........0
 03d0 00010002 04010603 00090c00 01050c06  ................
 03e0 03010918 00010501 03010904 00010510  ................
 03f0 030b0914 00010505 03030910 00010514  ................
 0400 0302095c 00010505 0301090c 00010512  ...\............
 0410 03010904 00010505 0302090c 00010301  ................
 0420 09640001 0301094c 00010301 09140001  .d.....L........
 0430 050c0302 09240001 05010301 09040001  .....$..........
 0440 09140000 01016b00 00000200 21000000  ......k.....!...
 0450 0101fb0e 0a000101 01010000 00010070  ...............p
 0460 65726663 6f756e74 65722e53 00000000  erfcounter.S....
 0470 00000502 6c060100 17030109 04000103  ....l...........
 0480 01090400 01030109 04000103 01090400  ................
 0490 01030809 04000103 01090400 01030109  ................
 04a0 04000103 01090400 01030109 04000109  ................
 04b0 04000001 01150300 00050004 00450000  .............E..
 04c0 00010101 fb0e0d00 01010101 00000001  ................
 04d0 00000101 011f0400 0000002d 00000072  ...........-...r
 04e0 0000002b 01000002 011f020f 05230100  ...+.........#..
 04f0 00002301 000000ff 00000001 10010000  ..#.............
 0500 02680100 00030501 00050294 0601001a  .h..............
 0510 05090301 09140001 05110300 09080001  ................
 0520 05120302 09080001 050c0301 09100001  ................
 0530 050f0301 09080001 03010910 0001050b  ................
 0540 03020908 0001050e 0301090c 00010301  ................
 0550 09080001 05010301 090c0001 03040914  ................
 0560 0001051c 03010918 0001050e 03000904  ................
 0570 0001050d 03010908 00010526 0301090c  ...........&....
 0580 0001051f 0300090c 0001050e 0300090c  ................
 0590 00010516 03010908 00010523 0300090c  ...........#....
 05a0 00010501 03010908 00010304 09140001  ................
 05b0 05080302 09140001 05100301 090c0001  ................
 05c0 050e0303 090c0001 05090002 04010300  ................
 05d0 090c0001 03010904 0001050d 03030910  ................
 05e0 0001050e 03010904 00010508 03020904  ................
 05f0 00010518 0302090c 00010512 03000908  ................
 0600 0001050c 03010908 00010516 0301090c  ................
 0610 00010303 09080001 05090300 09040001  ................
 0620 05220301 09040001 05160300 09080001  ."..............
 0630 052c0002 0403037f 09080001 051f0002  .,..............
 0640 04010300 090c0001 050f0304 090c0001  ................
 0650 05220301 09040001 05160300 09080001  ."..............
 0660 05150301 09080001 051d037e 090c0001  ...........~....
 0670 00020401 06030009 08000105 0b060307  ................
 0680 090c0001 052c0301 09040001 05120300  .....,..........
 0690 09080001 050c0301 09080001 05120302  ................
 06a0 090c0001 05110301 09080001 0515037b  ...............{
 06b0 090c0001 050d0303 09100001 051f0305  ................
 06c0 09040001 052b0300 090c0001 050d0300  .....+..........
 06d0 09080001 051c0301 09040001 05010301  ................
 06e0 09240001 03040914 0001050d 03010910  .$..............
 06f0 0001050a 03010908 0001050e 03020908  ................
 0700 00010505 03000904 00010511 03010904  ................
 0710 00010519 03010908 00010511 00020401  ................
 0720 03000910 00010517 03010904 0001050c  ................
 0730 03020914 0001050d 0301090c 00010514  ................
 0740 03020920 0001050c 03030904 0001050d  ... ............
 0750 0301090c 00010514 0302091c 00010518  ................
 0760 03030904 0001051f 00020402 036f0908  .............o..
 0770 00010517 00020401 0300090c 0001050c  ................
 0780 0314090c 00010501 03010904 00010303  ................
 0790 09140001 05090301 09100001 05080002  ................
 07a0 04010300 09080001 05090301 09040001  ................
 07b0 05100301 090c0001 050c0302 09080001  ................
 07c0 05010301 09040001 09140000 0101      ..............  
Contents of section .debug_info:
 0000 31000000 02000000 00000401 00000000  1...............
 0010 00000100 3c000100 00000000 08000000  ....<...........
 0020 2e000000 0180023c 00000001 00000100  .......<........
 0030 40000100 00640400 00050001 04210000  @....d.......!..
 0040 00114801 00001d26 00000000 0000003c  ..H....&.......<
 0050 00010030 06000075 00000002 0106d700  ...0...u........
 0060 000004ba 00000002 2b183900 00000201  ........+.9.....
 0070 08d50000 00020205 62000000 02020718  ........b.......
 0080 01000002 0405aa00 0000047d 00000002  ...........}....
 0090 4f196100 00000204 07fc0000 00020805  O.a.............
 00a0 a5000000 04320100 00026919 7b000000  .....2....i.{...
 00b0 020807f7 00000012 0405696e 74000204  ..........int...
 00c0 07010100 0004bc00 00000318 132d0000  .............-..
 00d0 000e9000 0000047f 00000003 30145500  ............0.U.
 00e0 00000434 01000003 3c146f00 0000046c  ...4....<.o....l
 00f0 00000004 d6178900 00000210 04c90000  ................
 0100 000fe300 00007805 82000000 0fa10100  ......x.........
 0110 001111ad 0000000a e9000000 7b058200  ............{...
 0120 0000e404 01008801 0000019c 87010000  ................
 0130 01980000 007c0ead 00000002 916801ac  .....|.......h..
 0140 0100007c 1cad0000 00029160 0cf40401  ...|.......`....
 0150 005c0000 00330100 00013d01 00007e05  .\...3....=...~.
 0160 87010000 02914400 0c6c0501 00640000  ......D..l...d..
 0170 00500100 00013d01 00008405 a3010000  .P....=.........
 0180 0391a87f 000cd005 01004c00 00006d01  ..........L...m.
 0190 0000013d 01000085 05b30100 00039198  ...=............
 01a0 7f000b30 06010024 00000001 3d010000  ...0...$....=...
 01b0 8705c301 00000391 947f0000 07970100  ................
 01c0 00970100 00088900 00001900 020108de  ................
 01d0 0000000e 97010000 07970100 00b30100  ................
 01e0 00088900 00001a00 07970100 00c30100  ................
 01f0 00088900 00000e00 07970100 00d30100  ................
 0200 00088900 00000100 0ab30000 006d0582  .............m..
 0210 00000078 0401006c 00000001 9cfc0100  ...x...l........
 0220 00059a01 00006d18 fc010000 02914c13  ......m.......L.
 0230 00099e01 00000a13 01000066 05820000  ...........f....
 0240 00040401 00740000 00019c3f 02000003  .....t.....?....
 0250 73006616 fc010000 02915c0b 3c040100  s.f.......\.<...
 0260 24000000 013d0100 006805c3 01000002  $....=...h......
 0270 916c0000 102b0100 005e08b9 000000b0  .l...+...^......
 0280 03010054 00000001 9c730200 00037300  ...T.....s....s.
 0290 5e1bfc01 00000291 5c014201 00005f0c  ^.......\.B..._.
 02a0 b9000000 02916c00 14730000 0001470d  ......l..s....G.
 02b0 d0020100 e0000000 019cb202 00000376  ...............v
 02c0 616c0047 25610000 0002914c 06627566  al.G%a.....L.buf
 02d0 00480ab2 02000002 91580670 00490bc2  .H.......X.p.I..
 02e0 02000002 916c0007 97010000 c2020000  .....l..........
 02f0 08890000 00130009 97010000 0a4f0000  .............O..
 0300 00430aa1 00000094 0201003c 00000001  .C.........<....
 0310 9cf90200 00036100 431ca100 00000291  ......a.C.......
 0320 6c036200 4328a100 00000291 68000d0e  l.b.C(......h...
 0330 01000037 11a10000 00200201 00740000  ...7..... ...t..
 0340 00019c39 03000003 6100371f a1000000  ...9....a.7.....
 0350 02915c03 6200372b a1000000 02915801  ..\.b.7+......X.
 0360 43000000 380ea100 00000291 6c000d8d  C...8.......l...
 0370 0100002a 16610000 00780101 00a80000  ...*.a...x......
 0380 00019c93 03000005 ee000000 2a296100  ............*)a.
 0390 00000291 5c059201 00002a41 61000000  ....\.....*Aa...
 03a0 02915801 58000000 2c136100 00000291  ..X.X...,.a.....
 03b0 6c0ba401 01006400 00000669 002d0e82  l.....d....i.-..
 03c0 00000002 91680000 0dc40000 001c1661  .....h.........a
 03d0 000000b4 000100c4 00000001 9cfb0300  ................
 03e0 0005ee00 00001c29 61000000 02915c05  .......)a.....\.
 03f0 92010000 1c416100 00000291 58018f00  .....Aa.....X...
 0400 00001e13 61000000 02916c01 58000000  ....a.....l.X...
 0410 1e216100 00000291 680be400 01007c00  .!a.....h.....|.
 0420 00000669 001f0e82 00000002 91640000  ...i.........d..
 0430 10880000 00140755 0400003c 00010078  .......U...<...x
 0440 00000001 9c550400 00054a00 00001414  .....U....J.....
 0450 55040000 02915c03 73726300 14265704  U.....\.src..&W.
 0460 00000291 58036e00 1432b900 00000291  ....X.n..2......
 0470 54066400 150e5d04 00000291 6c067300  T.d...].....l.s.
 0480 16146204 00000291 68001504 095c0400  ..b.....h....\..
 0490 00160990 00000009 9c000000 00220000  ............."..
 04a0 00020071 01000004 01460400 006c0601  ...q.....F...l..
 04b0 00940601 00b70100 00080000 002e0000  ................
 04c0 000180ca 02000005 00010485 01000007  ................
 04d0 48010000 1d230100 00000000 00940601  H....#..........
 04e0 00b40300 00b50400 00010106 d7000000  ................
 04f0 04ba0000 00022b18 39000000 010108d5  ......+.9.......
 0500 00000001 02056200 00000102 07180100  ......b.........
 0510 0004ca01 0000024d 185a0000 00010405  .......M.Z......
 0520 aa000000 047d0000 00024f19 6d000000  .....}....O.m...
 0530 010407fc 00000001 0805a500 00000108  ................
 0540 07f70000 00080405 696e7400 01040701  ........int.....
 0550 01000004 bc000000 0318132d 00000004  ...........-....
 0560 cc010000 032c134e 00000004 7f000000  .....,.N........
 0570 03301461 00000001 1004c900 00000101  .0.a............
 0580 08de0000 0009bb00 00000a04 c2000000  ................
 0590 0b756638 00010611 90000000 0cb30000  .uf8............
 05a0 0004ce05 82000000 f0000000 0dc70000  ................
 05b0 000e000f e3000000 01690582 00000000  .........i......
 05c0 0a010048 00000001 9c10c501 0000014d  ...H...........M
 05d0 0d860100 00140901 00ec0000 00019c86  ................
 05e0 01000002 f6010000 4f0d9c00 00000291  ........O.......
 05f0 6c020502 0000500a 86010000 02916b05  l.....P.......k.
 0600 34090100 b4000000 03690052 0e820000  4........i.R....
 0610 00029164 053c0901 00940000 0003666c  ...d.<........fl
 0620 00531190 00000002 916302ff 01000054  .S.......c.....T
 0630 119c0000 0002915c 03666c32 00551190  .......\.fl2.U..
 0640 00000002 915b0000 00010102 27020000  .....[......'...
 0650 11dd0100 00012005 cd000000 94070100  ...... .........
 0660 80010000 019c2a02 000012ff 01000001  ......*.........
 0670 2019a800 00000291 4c036c7a 00270982   .......L.lz.'..
 0680 00000002 9160036d 73620028 09820000  .....`.msb.(....
 0690 0002915c 02130200 002b0d90 00000002  ...\.....+......
 06a0 916f02ed 0100002c 0ea80000 00029168  .o.....,.......h
 06b0 02d40100 00480d90 00000002 91571318  .....H.......W..
 06c0 08010030 00000015 02000003 65003516  ...0........e.5.
 06d0 90000000 02916700 140c0000 0002e801  ......g.........
 06e0 00004112 a8000000 02915800 00151c02  ..A.......X.....
 06f0 00000117 0aa80000 001c0701 00780000  .............x..
 0700 00019c7c 02000006 666c0017 19cd0000  ...|....fl......
 0710 0002915f 02d40100 00190ea8 00000002  ..._............
 0720 916c0213 0200001a 0d900000 0002916b  .l.............k
 0730 020c0200 001b0ea8 00000002 91640016  .............d..
 0740 636c7a00 01081889 00000094 06010088  clz.............
 0750 00000001 9c067800 0825a800 00000291  ......x..%......
 0760 5c036e00 0a098200 00000291 6c036300  \.n.........l.c.
 0770 0a118200 00000291 6805b806 01003c00  ........h.....<.
 0780 00000379 000c12a8 00000002 91640000  ...y.........d..
 0790 00                                   .               
Contents of section .debug_abbrev:
 0000 01110110 06110112 01030e1b 0e250e13  .............%..
 0010 05000002 2e00030e 3f0c1101 12010000  ........?.......
 0020 00013400 030e3a21 013b0b39 0b491302  ..4...:!.;.9.I..
 0030 18000002 24000b0b 3e0b030e 00000305  ....$...>.......
 0040 0003083a 21013b0b 390b4913 02180000  ...:!.;.9.I.....
 0050 04160003 0e3a0b3b 0b390b49 13000005  .....:.;.9.I....
 0060 0500030e 3a21013b 0b390b49 13021800  ....:!.;.9.I....
 0070 00063400 03083a21 013b0b39 0b491302  ..4...:!.;.9.I..
 0080 18000007 01014913 01130000 08210049  ......I......!.I
 0090 132f0b00 00090f00 0b210449 1300000a  ./.......!.I....
 00a0 2e013f19 030e3a21 013b0b39 0b271949  ..?...:!.;.9.'.I
 00b0 13110112 0640187c 19011300 000b0b01  .....@.|........
 00c0 11011206 00000c0b 01110112 06011300  ................
 00d0 000d2e01 030e3a21 013b0b39 0b271949  ......:!.;.9.'.I
 00e0 13110112 0640187a 19011300 000e2600  .....@.z......&.
 00f0 49130000 0f2e003f 19030e3a 21013b0b  I......?...:!.;.
 0100 390b2719 49133c19 0000102e 013f1903  9.'.I.<......?..
 0110 0e3a2101 3b0b390b 27194913 11011206  .:!.;.9.'.I.....
 0120 40187a19 01130000 11110125 0e130b03  @.z........%....
 0130 1f1b1f11 01120610 17000012 24000b0b  ............$...
 0140 3e0b0308 00001318 00000014 2e01030e  >...............
 0150 3a0b3b0b 390b2719 11011206 40187c19  :.;.9.'.....@.|.
 0160 01130000 150f000b 0b000016 26000000  ............&...
 0170 00011100 10061101 1201030e 1b0e250e  ..............%.
 0180 13050000 00012400 0b0b3e0b 030e0000  ......$...>.....
 0190 02340003 0e3a2101 3b0b390b 49130218  .4...:!.;.9.I...
 01a0 00000334 0003083a 21013b0b 390b4913  ...4...:!.;.9.I.
 01b0 02180000 04160003 0e3a0b3b 0b390b49  .........:.;.9.I
 01c0 13000005 0b011101 12060000 06050003  ................
 01d0 083a2101 3b0b390b 49130218 00000711  .:!.;.9.I.......
 01e0 01250e13 0b031f1b 1f110112 06101700  .%..............
 01f0 00082400 0b0b3e0b 03080000 09260049  ..$...>......&.I
 0200 1300000a 0f000b0b 49130000 0b160003  ........I.......
 0210 083a0b3b 0b390b49 1300000c 2e013f19  .:.;.9.I......?.
 0220 030e3a0b 3b0b390b 27194913 3c190113  ..:.;.9.'.I.<...
 0230 00000d05 00491300 000e1800 00000f2e  .....I..........
 0240 003f1903 0e3a0b3b 0b390b27 19491311  .?...:.;.9.'.I..
 0250 01120640 187c1900 00102e01 030e3a0b  ...@.|........:.
 0260 3b0b390b 27194913 11011206 40187c19  ;.9.'.I.....@.|.
 0270 01130000 112e013f 19030e3a 0b3b0b39  .......?...:.;.9
 0280 0b271949 13110112 0640187c 19011300  .'.I.....@.|....
 0290 00120500 030e3a0b 3b0b390b 49130218  ......:.;.9.I...
 02a0 0000130b 01110112 06011300 00140b01  ................
 02b0 55170000 152e013f 19030e3a 0b3b0b39  U......?...:.;.9
 02c0 0b271949 13110112 0640187a 19011300  .'.I.....@.z....
 02d0 00162e01 03083a0b 3b0b390b 27194913  ......:.;.9.'.I.
 02e0 11011206 40187a19 000000             ....@.z....     
Contents of section .debug_aranges:
 0000 1c000000 02000000 00000400 00000000  ................
 0010 00000100 3c000000 00000000 00000000  ....<...........
 0020 1c000000 02003500 00000400 00000000  ......5.........
 0030 3c000100 30060000 00000000 00000000  <...0...........
 0040 1c000000 02009d04 00000400 00000000  ................
 0050 6c060100 28000000 00000000 00000000  l...(...........
 0060 1c000000 0200c304 00000400 00000000  ................
 0070 94060100 b4030000 00000000 00000000  ................
Contents of section .debug_str:
 0000 73746172 742e5300 2f557365 72732f68  start.S./Users/h
 0010 73756873 69616f66 616e2f72 76333265  suhsiaofan/rv32e
 0020 6d752f6d 795f7072 6f6a6563 7400474e  mu/my_project.GN
 0030 55204153 20322e34 332e3100 5f737461  U AS 2.43.1._sta
 0040 72740072 6573756c 74006465 7374005f  rt.result.dest._
 0050 5f6d756c 73693300 72656d61 696e6465  _mulsi3.remainde
 0060 72007368 6f727420 696e7400 73697a65  r.short int.size
 0070 5f740070 72696e74 5f646563 005f5f75  _t.print_dec.__u
 0080 696e7433 325f7400 6d656d63 70790071  int32_t.memcpy.q
 0090 756f7469 656e7400 73746172 745f6379  uotient.start_cy
 00a0 636c6573 006c6f6e 67206c6f 6e672069  cles.long long i
 00b0 6e740070 72696e74 66005f5f 75696e74  nt.printf.__uint
 00c0 385f7400 75646976 006c6f6e 6720646f  8_t.udiv.long do
 00d0 75626c65 00756e73 69676e65 64206368  uble.unsigned ch
 00e0 61720068 77315f42 5f6d6169 6e006469  ar.hw1_B_main.di
 00f0 76696465 6e64006c 6f6e6720 6c6f6e67  vidend.long long
 0100 20756e73 69676e65 6420696e 7400756d   unsigned int.um
 0110 756c0070 75747300 73686f72 7420756e  ul.puts.short un
 0120 7369676e 65642069 6e740073 74726c65  signed int.strle
 0130 6e005f5f 75696e74 36345f74 005f6d73  n.__uint64_t._ms
 0140 6700636f 756e7400 474e5520 43313720  g.count.GNU C17 
 0150 31342e32 2e30202d 6d616269 3d696c70  14.2.0 -mabi=ilp
 0160 3332202d 6d697361 2d737065 633d3230  32 -misa-spec=20
 0170 31393132 3133202d 6d617263 683d7276  191213 -march=rv
 0180 3332695f 7a696373 72202d67 00756d6f  32i_zicsr -g.umo
 0190 64006469 7669736f 7200666f 726d6174  d.divisor.format
 01a0 00676574 5f637963 6c657300 656e645f  .get_cycles.end_
 01b0 6379636c 65730070 65726663 6f756e74  cycles.perfcount
 01c0 65722e53 00746573 74005f5f 696e7433  er.S.test.__int3
 01d0 325f7400 6d616e74 69737361 00756638  2_t.mantissa.uf8
 01e0 5f656e63 6f646500 6e657874 5f6f7665  _encode.next_ove
 01f0 72666c6f 77007072 6576696f 75735f76  rflow.previous_v
 0200 616c7565 00706173 73656400 6f666673  alue.passed.offs
 0210 65740065 78706f6e 656e7400 7566385f  et.exponent.uf8_
 0220 6465636f 6465005f 426f6f6c 00        decode._Bool.   
Contents of section .debug_line_str:
 0000 2f557365 72732f68 73756873 69616f66  /Users/hsuhsiaof
 0010 616e2f72 76333265 6d752f6d 795f7072  an/rv32emu/my_pr
 0020 6f6a6563 74006d61 696e2e63 002f5573  oject.main.c./Us
 0030 6572732f 68737568 7369616f 66616e2f  ers/hsuhsiaofan/
 0040 72697363 762d6e6f 6e652d65 6c662d67  riscv-none-elf-g
 0050 63632f72 69736376 2d6e6f6e 652d656c  cc/riscv-none-el
 0060 662f696e 636c7564 652f6d61 6368696e  f/include/machin
 0070 65002f55 73657273 2f687375 68736961  e./Users/hsuhsia
 0080 6f66616e 2f726973 63762d6e 6f6e652d  ofan/riscv-none-
 0090 656c662d 6763632f 72697363 762d6e6f  elf-gcc/riscv-no
 00a0 6e652d65 6c662f69 6e636c75 64652f73  ne-elf/include/s
 00b0 7973002f 55736572 732f6873 75687369  ys./Users/hsuhsi
 00c0 616f6661 6e2f7269 7363762d 6e6f6e65  aofan/riscv-none
 00d0 2d656c66 2d676363 2f6c6962 2f676363  -elf-gcc/lib/gcc
 00e0 2f726973 63762d6e 6f6e652d 656c662f  /riscv-none-elf/
 00f0 31342e32 2e302f69 6e636c75 6465005f  14.2.0/include._
 0100 64656661 756c745f 74797065 732e6800  default_types.h.
 0110 5f737464 696e742e 68007374 64646566  _stdint.h.stddef
 0120 2e680068 77315f42 2e63002f 55736572  .h.hw1_B.c./User
 0130 732f6873 75687369 616f6661 6e2f7269  s/hsuhsiaofan/ri
 0140 7363762d 6e6f6e65 2d656c66 2d676363  scv-none-elf-gcc
 0150 2f726973 63762d6e 6f6e652d 656c662f  /riscv-none-elf/
 0160 696e636c 75646500 73746469 6f2e6800  include.stdio.h.
Contents of section .debug_frame:
 0000 0c000000 ffffffff 0300017c 010c0200  ...........|....
 0010 24000000 00000000 3c000100 78000000  $.......<...x...
 0020 440e3048 81018802 440c0800 025cc144  D.0H....D....\.D
 0030 c80c0230 440e0000 24000000 00000000  ...0D...$.......
 0040 b4000100 c4000000 440e3048 81018802  ........D.0H....
 0050 440c0800 02a8c144 c80c0230 440e0000  D......D...0D...
 0060 24000000 00000000 78010100 a8000000  $.......x.......
 0070 440e3048 81018802 440c0800 028cc144  D.0H....D......D
 0080 c80c0230 440e0000 24000000 00000000  ...0D...$.......
 0090 20020100 74000000 440e3048 81018802   ...t...D.0H....
 00a0 440c0800 0258c144 c80c0230 440e0000  D....X.D...0D...
 00b0 24000000 00000000 94020100 3c000000  $...........<...
 00c0 440e2048 81018802 440c0800 60c144c8  D. H....D...`.D.
 00d0 0c022044 0e000000 24000000 00000000  .. D....$.......
 00e0 d0020100 e0000000 440e4048 81018802  ........D.@H....
 00f0 440c0800 02c4c144 c80c0240 440e0000  D......D...@D...
 0100 24000000 00000000 b0030100 54000000  $...........T...
 0110 440e3048 81018802 440c0800 78c144c8  D.0H....D...x.D.
 0120 0c023044 0e000000 24000000 00000000  ..0D....$.......
 0130 04040100 74000000 440e3048 81018802  ....t...D.0H....
 0140 440c0800 0258c144 c80c0230 440e0000  D....X.D...0D...
 0150 24000000 00000000 78040100 6c000000  $.......x...l...
 0160 440e4048 8109880a 440c0820 0250c144  D.@H....D.. .P.D
 0170 c80c0240 440e0000 24000000 00000000  ...@D...$.......
 0180 e4040100 88010000 440e7048 81018802  ........D.pH....
 0190 440c0800 036c01c1 44c80c02 70440e00  D....l..D...pD..
 01a0 0c000000 ffffffff 0300017c 010c0200  ...........|....
 01b0 24000000 a0010000 94060100 88000000  $...............
 01c0 440e3048 81018802 440c0800 026cc144  D.0H....D....l.D
 01d0 c80c0230 440e0000 24000000 a0010000  ...0D...$.......
 01e0 1c070100 78000000 440e3048 81018802  ....x...D.0H....
 01f0 440c0800 025cc144 c80c0230 440e0000  D....\.D...0D...
 0200 24000000 a0010000 94070100 80010000  $...............
 0210 440e4048 81018802 440c0800 036401c1  D.@H....D....d..
 0220 44c80c02 40440e00 24000000 a0010000  D...@D..$.......
 0230 14090100 ec000000 440e3048 81018802  ........D.0H....
 0240 440c0800 02d0c144 c80c0230 440e0000  D......D...0D...
 0250 24000000 a0010000 000a0100 48000000  $...........H...
 0260 440e1048 81018802 440c0800 6cc144c8  D..H....D...l.D.
 0270 0c021044 0e000000                    ...D....        
Contents of section .debug_rnglists:
 0000 13000000 05000400 00000000 04ec039c  ................
 0010 0404ac04 b00400                      .......         

Disassembly of section .text:

00010000 <_start>:
   10000:	00002117          	auipc	sp,0x2
   10004:	b0010113          	addi	sp,sp,-1280 # 11b00 <__stack_top>
   10008:	00001297          	auipc	t0,0x1
   1000c:	af628293          	addi	t0,t0,-1290 # 10afe <__bss_end>
   10010:	00001317          	auipc	t1,0x1
   10014:	aee30313          	addi	t1,t1,-1298 # 10afe <__bss_end>
   10018:	0062d863          	bge	t0,t1,10028 <_start+0x28>
   1001c:	0002a023          	sw	zero,0(t0)
   10020:	00428293          	addi	t0,t0,4
   10024:	ff5ff06f          	j	10018 <_start+0x18>
   10028:	4bc000ef          	jal	104e4 <main>
   1002c:	05d00893          	li	a7,93
   10030:	00000513          	li	a0,0
   10034:	00000073          	ecall
   10038:	0000006f          	j	10038 <_start+0x38>

0001003c <memcpy>:
   1003c:	fd010113          	addi	sp,sp,-48
   10040:	02112623          	sw	ra,44(sp)
   10044:	02812423          	sw	s0,40(sp)
   10048:	03010413          	addi	s0,sp,48
   1004c:	fca42e23          	sw	a0,-36(s0)
   10050:	fcb42c23          	sw	a1,-40(s0)
   10054:	fcc42a23          	sw	a2,-44(s0)
   10058:	fdc42783          	lw	a5,-36(s0)
   1005c:	fef42623          	sw	a5,-20(s0)
   10060:	fd842783          	lw	a5,-40(s0)
   10064:	fef42423          	sw	a5,-24(s0)
   10068:	0240006f          	j	1008c <memcpy+0x50>
   1006c:	fe842703          	lw	a4,-24(s0)
   10070:	00170793          	addi	a5,a4,1
   10074:	fef42423          	sw	a5,-24(s0)
   10078:	fec42783          	lw	a5,-20(s0)
   1007c:	00178693          	addi	a3,a5,1
   10080:	fed42623          	sw	a3,-20(s0)
   10084:	00074703          	lbu	a4,0(a4)
   10088:	00e78023          	sb	a4,0(a5)
   1008c:	fd442783          	lw	a5,-44(s0)
   10090:	fff78713          	addi	a4,a5,-1
   10094:	fce42a23          	sw	a4,-44(s0)
   10098:	fc079ae3          	bnez	a5,1006c <memcpy+0x30>
   1009c:	fdc42783          	lw	a5,-36(s0)
   100a0:	00078513          	mv	a0,a5
   100a4:	02c12083          	lw	ra,44(sp)
   100a8:	02812403          	lw	s0,40(sp)
   100ac:	03010113          	addi	sp,sp,48
   100b0:	00008067          	ret

000100b4 <udiv>:
   100b4:	fd010113          	addi	sp,sp,-48
   100b8:	02112623          	sw	ra,44(sp)
   100bc:	02812423          	sw	s0,40(sp)
   100c0:	03010413          	addi	s0,sp,48
   100c4:	fca42e23          	sw	a0,-36(s0)
   100c8:	fcb42c23          	sw	a1,-40(s0)
   100cc:	fd842783          	lw	a5,-40(s0)
   100d0:	00079663          	bnez	a5,100dc <udiv+0x28>
   100d4:	00000793          	li	a5,0
   100d8:	08c0006f          	j	10164 <udiv+0xb0>
   100dc:	fe042623          	sw	zero,-20(s0)
   100e0:	fe042423          	sw	zero,-24(s0)
   100e4:	01f00793          	li	a5,31
   100e8:	fef42223          	sw	a5,-28(s0)
   100ec:	06c0006f          	j	10158 <udiv+0xa4>
   100f0:	fe842783          	lw	a5,-24(s0)
   100f4:	00179793          	slli	a5,a5,0x1
   100f8:	fef42423          	sw	a5,-24(s0)
   100fc:	fe442783          	lw	a5,-28(s0)
   10100:	fdc42703          	lw	a4,-36(s0)
   10104:	00f757b3          	srl	a5,a4,a5
   10108:	0017f793          	andi	a5,a5,1
   1010c:	fe842703          	lw	a4,-24(s0)
   10110:	00f767b3          	or	a5,a4,a5
   10114:	fef42423          	sw	a5,-24(s0)
   10118:	fe842703          	lw	a4,-24(s0)
   1011c:	fd842783          	lw	a5,-40(s0)
   10120:	02f76663          	bltu	a4,a5,1014c <udiv+0x98>
   10124:	fe842703          	lw	a4,-24(s0)
   10128:	fd842783          	lw	a5,-40(s0)
   1012c:	40f707b3          	sub	a5,a4,a5
   10130:	fef42423          	sw	a5,-24(s0)
   10134:	fe442783          	lw	a5,-28(s0)
   10138:	00100713          	li	a4,1
   1013c:	00f717b3          	sll	a5,a4,a5
   10140:	fec42703          	lw	a4,-20(s0)
   10144:	00f767b3          	or	a5,a4,a5
   10148:	fef42623          	sw	a5,-20(s0)
   1014c:	fe442783          	lw	a5,-28(s0)
   10150:	fff78793          	addi	a5,a5,-1
   10154:	fef42223          	sw	a5,-28(s0)
   10158:	fe442783          	lw	a5,-28(s0)
   1015c:	f807dae3          	bgez	a5,100f0 <udiv+0x3c>
   10160:	fec42783          	lw	a5,-20(s0)
   10164:	00078513          	mv	a0,a5
   10168:	02c12083          	lw	ra,44(sp)
   1016c:	02812403          	lw	s0,40(sp)
   10170:	03010113          	addi	sp,sp,48
   10174:	00008067          	ret

00010178 <umod>:
   10178:	fd010113          	addi	sp,sp,-48
   1017c:	02112623          	sw	ra,44(sp)
   10180:	02812423          	sw	s0,40(sp)
   10184:	03010413          	addi	s0,sp,48
   10188:	fca42e23          	sw	a0,-36(s0)
   1018c:	fcb42c23          	sw	a1,-40(s0)
   10190:	fd842783          	lw	a5,-40(s0)
   10194:	00079663          	bnez	a5,101a0 <umod+0x28>
   10198:	00000793          	li	a5,0
   1019c:	0700006f          	j	1020c <umod+0x94>
   101a0:	fe042623          	sw	zero,-20(s0)
   101a4:	01f00793          	li	a5,31
   101a8:	fef42423          	sw	a5,-24(s0)
   101ac:	0540006f          	j	10200 <umod+0x88>
   101b0:	fec42783          	lw	a5,-20(s0)
   101b4:	00179793          	slli	a5,a5,0x1
   101b8:	fef42623          	sw	a5,-20(s0)
   101bc:	fe842783          	lw	a5,-24(s0)
   101c0:	fdc42703          	lw	a4,-36(s0)
   101c4:	00f757b3          	srl	a5,a4,a5
   101c8:	0017f793          	andi	a5,a5,1
   101cc:	fec42703          	lw	a4,-20(s0)
   101d0:	00f767b3          	or	a5,a4,a5
   101d4:	fef42623          	sw	a5,-20(s0)
   101d8:	fec42703          	lw	a4,-20(s0)
   101dc:	fd842783          	lw	a5,-40(s0)
   101e0:	00f76a63          	bltu	a4,a5,101f4 <umod+0x7c>
   101e4:	fec42703          	lw	a4,-20(s0)
   101e8:	fd842783          	lw	a5,-40(s0)
   101ec:	40f707b3          	sub	a5,a4,a5
   101f0:	fef42623          	sw	a5,-20(s0)
   101f4:	fe842783          	lw	a5,-24(s0)
   101f8:	fff78793          	addi	a5,a5,-1
   101fc:	fef42423          	sw	a5,-24(s0)
   10200:	fe842783          	lw	a5,-24(s0)
   10204:	fa07d6e3          	bgez	a5,101b0 <umod+0x38>
   10208:	fec42783          	lw	a5,-20(s0)
   1020c:	00078513          	mv	a0,a5
   10210:	02c12083          	lw	ra,44(sp)
   10214:	02812403          	lw	s0,40(sp)
   10218:	03010113          	addi	sp,sp,48
   1021c:	00008067          	ret

00010220 <umul>:
   10220:	fd010113          	addi	sp,sp,-48
   10224:	02112623          	sw	ra,44(sp)
   10228:	02812423          	sw	s0,40(sp)
   1022c:	03010413          	addi	s0,sp,48
   10230:	fca42e23          	sw	a0,-36(s0)
   10234:	fcb42c23          	sw	a1,-40(s0)
   10238:	fe042623          	sw	zero,-20(s0)
   1023c:	0380006f          	j	10274 <umul+0x54>
   10240:	fd842783          	lw	a5,-40(s0)
   10244:	0017f793          	andi	a5,a5,1
   10248:	00078a63          	beqz	a5,1025c <umul+0x3c>
   1024c:	fec42703          	lw	a4,-20(s0)
   10250:	fdc42783          	lw	a5,-36(s0)
   10254:	00f707b3          	add	a5,a4,a5
   10258:	fef42623          	sw	a5,-20(s0)
   1025c:	fdc42783          	lw	a5,-36(s0)
   10260:	00179793          	slli	a5,a5,0x1
   10264:	fcf42e23          	sw	a5,-36(s0)
   10268:	fd842783          	lw	a5,-40(s0)
   1026c:	0017d793          	srli	a5,a5,0x1
   10270:	fcf42c23          	sw	a5,-40(s0)
   10274:	fd842783          	lw	a5,-40(s0)
   10278:	fc0794e3          	bnez	a5,10240 <umul+0x20>
   1027c:	fec42783          	lw	a5,-20(s0)
   10280:	00078513          	mv	a0,a5
   10284:	02c12083          	lw	ra,44(sp)
   10288:	02812403          	lw	s0,40(sp)
   1028c:	03010113          	addi	sp,sp,48
   10290:	00008067          	ret

00010294 <__mulsi3>:
   10294:	fe010113          	addi	sp,sp,-32
   10298:	00112e23          	sw	ra,28(sp)
   1029c:	00812c23          	sw	s0,24(sp)
   102a0:	02010413          	addi	s0,sp,32
   102a4:	fea42623          	sw	a0,-20(s0)
   102a8:	feb42423          	sw	a1,-24(s0)
   102ac:	fe842583          	lw	a1,-24(s0)
   102b0:	fec42503          	lw	a0,-20(s0)
   102b4:	f6dff0ef          	jal	10220 <umul>
   102b8:	00050793          	mv	a5,a0
   102bc:	00078513          	mv	a0,a5
   102c0:	01c12083          	lw	ra,28(sp)
   102c4:	01812403          	lw	s0,24(sp)
   102c8:	02010113          	addi	sp,sp,32
   102cc:	00008067          	ret

000102d0 <print_dec>:
   102d0:	fc010113          	addi	sp,sp,-64
   102d4:	02112e23          	sw	ra,60(sp)
   102d8:	02812c23          	sw	s0,56(sp)
   102dc:	04010413          	addi	s0,sp,64
   102e0:	fca42623          	sw	a0,-52(s0)
   102e4:	fd840793          	addi	a5,s0,-40
   102e8:	01378793          	addi	a5,a5,19
   102ec:	fef42623          	sw	a5,-20(s0)
   102f0:	fec42783          	lw	a5,-20(s0)
   102f4:	fff78793          	addi	a5,a5,-1
   102f8:	fef42623          	sw	a5,-20(s0)
   102fc:	fcc42783          	lw	a5,-52(s0)
   10300:	06079063          	bnez	a5,10360 <print_dec+0x90>
   10304:	fec42783          	lw	a5,-20(s0)
   10308:	03000713          	li	a4,48
   1030c:	00e78023          	sb	a4,0(a5)
   10310:	fec42783          	lw	a5,-20(s0)
   10314:	fff78793          	addi	a5,a5,-1
   10318:	fef42623          	sw	a5,-20(s0)
   1031c:	04c0006f          	j	10368 <print_dec+0x98>
   10320:	00a00593          	li	a1,10
   10324:	fcc42503          	lw	a0,-52(s0)
   10328:	e51ff0ef          	jal	10178 <umod>
   1032c:	00050793          	mv	a5,a0
   10330:	0ff7f793          	zext.b	a5,a5
   10334:	03078793          	addi	a5,a5,48
   10338:	0ff7f713          	zext.b	a4,a5
   1033c:	fec42783          	lw	a5,-20(s0)
   10340:	00e78023          	sb	a4,0(a5)
   10344:	fec42783          	lw	a5,-20(s0)
   10348:	fff78793          	addi	a5,a5,-1
   1034c:	fef42623          	sw	a5,-20(s0)
   10350:	00a00593          	li	a1,10
   10354:	fcc42503          	lw	a0,-52(s0)
   10358:	d5dff0ef          	jal	100b4 <udiv>
   1035c:	fca42623          	sw	a0,-52(s0)
   10360:	fcc42783          	lw	a5,-52(s0)
   10364:	fa079ee3          	bnez	a5,10320 <print_dec+0x50>
   10368:	fec42783          	lw	a5,-20(s0)
   1036c:	00178793          	addi	a5,a5,1
   10370:	fef42623          	sw	a5,-20(s0)
   10374:	fd840793          	addi	a5,s0,-40
   10378:	01378793          	addi	a5,a5,19
   1037c:	fec42703          	lw	a4,-20(s0)
   10380:	40e78733          	sub	a4,a5,a4
   10384:	fec42783          	lw	a5,-20(s0)
   10388:	04000893          	li	a7,64
   1038c:	00100513          	li	a0,1
   10390:	00f005b3          	add	a1,zero,a5
   10394:	00070613          	mv	a2,a4
   10398:	00000073          	ecall
   1039c:	00000013          	nop
   103a0:	03c12083          	lw	ra,60(sp)
   103a4:	03812403          	lw	s0,56(sp)
   103a8:	04010113          	addi	sp,sp,64
   103ac:	00008067          	ret

000103b0 <strlen>:
   103b0:	fd010113          	addi	sp,sp,-48
   103b4:	02112623          	sw	ra,44(sp)
   103b8:	02812423          	sw	s0,40(sp)
   103bc:	03010413          	addi	s0,sp,48
   103c0:	fca42e23          	sw	a0,-36(s0)
   103c4:	fe042623          	sw	zero,-20(s0)
   103c8:	0100006f          	j	103d8 <strlen+0x28>
   103cc:	fec42783          	lw	a5,-20(s0)
   103d0:	00178793          	addi	a5,a5,1
   103d4:	fef42623          	sw	a5,-20(s0)
   103d8:	fdc42783          	lw	a5,-36(s0)
   103dc:	00178713          	addi	a4,a5,1
   103e0:	fce42e23          	sw	a4,-36(s0)
   103e4:	0007c783          	lbu	a5,0(a5)
   103e8:	fe0792e3          	bnez	a5,103cc <strlen+0x1c>
   103ec:	fec42783          	lw	a5,-20(s0)
   103f0:	00078513          	mv	a0,a5
   103f4:	02c12083          	lw	ra,44(sp)
   103f8:	02812403          	lw	s0,40(sp)
   103fc:	03010113          	addi	sp,sp,48
   10400:	00008067          	ret

00010404 <puts>:
   10404:	fd010113          	addi	sp,sp,-48
   10408:	02112623          	sw	ra,44(sp)
   1040c:	02812423          	sw	s0,40(sp)
   10410:	03010413          	addi	s0,sp,48
   10414:	fca42e23          	sw	a0,-36(s0)
   10418:	fdc42503          	lw	a0,-36(s0)
   1041c:	f95ff0ef          	jal	103b0 <strlen>
   10420:	00050713          	mv	a4,a0
   10424:	fdc42783          	lw	a5,-36(s0)
   10428:	04000893          	li	a7,64
   1042c:	00100513          	li	a0,1
   10430:	00f005b3          	add	a1,zero,a5
   10434:	00070613          	mv	a2,a4
   10438:	00000073          	ecall
   1043c:	00a00793          	li	a5,10
   10440:	fef41623          	sh	a5,-20(s0)
   10444:	fec40793          	addi	a5,s0,-20
   10448:	00100713          	li	a4,1
   1044c:	04000893          	li	a7,64
   10450:	00100513          	li	a0,1
   10454:	00f005b3          	add	a1,zero,a5
   10458:	00070613          	mv	a2,a4
   1045c:	00000073          	ecall
   10460:	00000793          	li	a5,0
   10464:	00078513          	mv	a0,a5
   10468:	02c12083          	lw	ra,44(sp)
   1046c:	02812403          	lw	s0,40(sp)
   10470:	03010113          	addi	sp,sp,48
   10474:	00008067          	ret

00010478 <printf>:
   10478:	fc010113          	addi	sp,sp,-64
   1047c:	00112e23          	sw	ra,28(sp)
   10480:	00812c23          	sw	s0,24(sp)
   10484:	02010413          	addi	s0,sp,32
   10488:	fea42623          	sw	a0,-20(s0)
   1048c:	00b42223          	sw	a1,4(s0)
   10490:	00c42423          	sw	a2,8(s0)
   10494:	00d42623          	sw	a3,12(s0)
   10498:	00e42823          	sw	a4,16(s0)
   1049c:	00f42a23          	sw	a5,20(s0)
   104a0:	01042c23          	sw	a6,24(s0)
   104a4:	01142e23          	sw	a7,28(s0)
   104a8:	fec42503          	lw	a0,-20(s0)
   104ac:	f05ff0ef          	jal	103b0 <strlen>
   104b0:	00050713          	mv	a4,a0
   104b4:	fec42783          	lw	a5,-20(s0)
   104b8:	04000893          	li	a7,64
   104bc:	00100513          	li	a0,1
   104c0:	00f005b3          	add	a1,zero,a5
   104c4:	00070613          	mv	a2,a4
   104c8:	00000073          	ecall
   104cc:	00000793          	li	a5,0
   104d0:	00078513          	mv	a0,a5
   104d4:	01c12083          	lw	ra,28(sp)
   104d8:	01812403          	lw	s0,24(sp)
   104dc:	04010113          	addi	sp,sp,64
   104e0:	00008067          	ret

000104e4 <main>:
   104e4:	f9010113          	addi	sp,sp,-112
   104e8:	06112623          	sw	ra,108(sp)
   104ec:	06812423          	sw	s0,104(sp)
   104f0:	07010413          	addi	s0,sp,112
   104f4:	000117b7          	lui	a5,0x11
   104f8:	a4878793          	addi	a5,a5,-1464 # 10a48 <hw1_B_main+0x48>
   104fc:	0007a803          	lw	a6,0(a5)
   10500:	0047a503          	lw	a0,4(a5)
   10504:	0087a583          	lw	a1,8(a5)
   10508:	00c7a603          	lw	a2,12(a5)
   1050c:	0107a683          	lw	a3,16(a5)
   10510:	0147a703          	lw	a4,20(a5)
   10514:	fd042223          	sw	a6,-60(s0)
   10518:	fca42423          	sw	a0,-56(s0)
   1051c:	fcb42623          	sw	a1,-52(s0)
   10520:	fcc42823          	sw	a2,-48(s0)
   10524:	fcd42a23          	sw	a3,-44(s0)
   10528:	fce42c23          	sw	a4,-40(s0)
   1052c:	0187d783          	lhu	a5,24(a5)
   10530:	fcf41e23          	sh	a5,-36(s0)
   10534:	fc440793          	addi	a5,s0,-60
   10538:	01900713          	li	a4,25
   1053c:	04000893          	li	a7,64
   10540:	00100513          	li	a0,1
   10544:	00f005b3          	add	a1,zero,a5
   10548:	00070613          	mv	a2,a4
   1054c:	00000073          	ecall
   10550:	11c000ef          	jal	1066c <get_cycles>
   10554:	fea42423          	sw	a0,-24(s0)
   10558:	feb42623          	sw	a1,-20(s0)
   1055c:	4a4000ef          	jal	10a00 <hw1_B_main>
   10560:	10c000ef          	jal	1066c <get_cycles>
   10564:	fea42023          	sw	a0,-32(s0)
   10568:	feb42223          	sw	a1,-28(s0)
   1056c:	000117b7          	lui	a5,0x11
   10570:	a6478793          	addi	a5,a5,-1436 # 10a64 <hw1_B_main+0x64>
   10574:	0007a803          	lw	a6,0(a5)
   10578:	0047a503          	lw	a0,4(a5)
   1057c:	0087a583          	lw	a1,8(a5)
   10580:	00c7a603          	lw	a2,12(a5)
   10584:	0107a683          	lw	a3,16(a5)
   10588:	0147a703          	lw	a4,20(a5)
   1058c:	fb042423          	sw	a6,-88(s0)
   10590:	faa42623          	sw	a0,-84(s0)
   10594:	fab42823          	sw	a1,-80(s0)
   10598:	fac42a23          	sw	a2,-76(s0)
   1059c:	fad42c23          	sw	a3,-72(s0)
   105a0:	fae42e23          	sw	a4,-68(s0)
   105a4:	0187d703          	lhu	a4,24(a5)
   105a8:	fce41023          	sh	a4,-64(s0)
   105ac:	01a7c783          	lbu	a5,26(a5)
   105b0:	fcf40123          	sb	a5,-62(s0)
   105b4:	fa840793          	addi	a5,s0,-88
   105b8:	01a00713          	li	a4,26
   105bc:	04000893          	li	a7,64
   105c0:	00100513          	li	a0,1
   105c4:	00f005b3          	add	a1,zero,a5
   105c8:	00070613          	mv	a2,a4
   105cc:	00000073          	ecall
   105d0:	000117b7          	lui	a5,0x11
   105d4:	a8078793          	addi	a5,a5,-1408 # 10a80 <hw1_B_main+0x80>
   105d8:	0007a603          	lw	a2,0(a5)
   105dc:	0047a683          	lw	a3,4(a5)
   105e0:	0087a703          	lw	a4,8(a5)
   105e4:	f8c42c23          	sw	a2,-104(s0)
   105e8:	f8d42e23          	sw	a3,-100(s0)
   105ec:	fae42023          	sw	a4,-96(s0)
   105f0:	00c7d703          	lhu	a4,12(a5)
   105f4:	fae41223          	sh	a4,-92(s0)
   105f8:	00e7c783          	lbu	a5,14(a5)
   105fc:	faf40323          	sb	a5,-90(s0)
   10600:	f9840793          	addi	a5,s0,-104
   10604:	00e00713          	li	a4,14
   10608:	04000893          	li	a7,64
   1060c:	00100513          	li	a0,1
   10610:	00f005b3          	add	a1,zero,a5
   10614:	00070613          	mv	a2,a4
   10618:	00000073          	ecall
   1061c:	fe042703          	lw	a4,-32(s0)
   10620:	fe842783          	lw	a5,-24(s0)
   10624:	40f707b3          	sub	a5,a4,a5
   10628:	00078513          	mv	a0,a5
   1062c:	ca5ff0ef          	jal	102d0 <print_dec>
   10630:	00a00793          	li	a5,10
   10634:	f8f41a23          	sh	a5,-108(s0)
   10638:	f9440793          	addi	a5,s0,-108
   1063c:	00100713          	li	a4,1
   10640:	04000893          	li	a7,64
   10644:	00100513          	li	a0,1
   10648:	00f005b3          	add	a1,zero,a5
   1064c:	00070613          	mv	a2,a4
   10650:	00000073          	ecall
   10654:	00000793          	li	a5,0
   10658:	00078513          	mv	a0,a5
   1065c:	06c12083          	lw	ra,108(sp)
   10660:	06812403          	lw	s0,104(sp)
   10664:	07010113          	addi	sp,sp,112
   10668:	00008067          	ret

0001066c <get_cycles>:
   1066c:	c80025f3          	rdcycleh	a1
   10670:	c0002573          	rdcycle	a0
   10674:	c8002673          	rdcycleh	a2
   10678:	fec59ae3          	bne	a1,a2,1066c <get_cycles>
   1067c:	00008067          	ret

00010680 <get_instret>:
   10680:	c82025f3          	rdinstreth	a1
   10684:	c0202573          	rdinstret	a0
   10688:	c8202673          	rdinstreth	a2
   1068c:	fec59ae3          	bne	a1,a2,10680 <get_instret>
   10690:	00008067          	ret

00010694 <clz>:
   10694:	fd010113          	addi	sp,sp,-48
   10698:	02112623          	sw	ra,44(sp)
   1069c:	02812423          	sw	s0,40(sp)
   106a0:	03010413          	addi	s0,sp,48
   106a4:	fca42e23          	sw	a0,-36(s0)
   106a8:	02000793          	li	a5,32
   106ac:	fef42623          	sw	a5,-20(s0)
   106b0:	01000793          	li	a5,16
   106b4:	fef42423          	sw	a5,-24(s0)
   106b8:	fe842783          	lw	a5,-24(s0)
   106bc:	fdc42703          	lw	a4,-36(s0)
   106c0:	00f757b3          	srl	a5,a4,a5
   106c4:	fef42223          	sw	a5,-28(s0)
   106c8:	fe442783          	lw	a5,-28(s0)
   106cc:	00078e63          	beqz	a5,106e8 <clz+0x54>
   106d0:	fec42703          	lw	a4,-20(s0)
   106d4:	fe842783          	lw	a5,-24(s0)
   106d8:	40f707b3          	sub	a5,a4,a5
   106dc:	fef42623          	sw	a5,-20(s0)
   106e0:	fe442783          	lw	a5,-28(s0)
   106e4:	fcf42e23          	sw	a5,-36(s0)
   106e8:	fe842783          	lw	a5,-24(s0)
   106ec:	4017d793          	srai	a5,a5,0x1
   106f0:	fef42423          	sw	a5,-24(s0)
   106f4:	fe842783          	lw	a5,-24(s0)
   106f8:	fc0790e3          	bnez	a5,106b8 <clz+0x24>
   106fc:	fec42703          	lw	a4,-20(s0)
   10700:	fdc42783          	lw	a5,-36(s0)
   10704:	40f707b3          	sub	a5,a4,a5
   10708:	00078513          	mv	a0,a5
   1070c:	02c12083          	lw	ra,44(sp)
   10710:	02812403          	lw	s0,40(sp)
   10714:	03010113          	addi	sp,sp,48
   10718:	00008067          	ret

0001071c <uf8_decode>:
   1071c:	fd010113          	addi	sp,sp,-48
   10720:	02112623          	sw	ra,44(sp)
   10724:	02812423          	sw	s0,40(sp)
   10728:	03010413          	addi	s0,sp,48
   1072c:	00050793          	mv	a5,a0
   10730:	fcf40fa3          	sb	a5,-33(s0)
   10734:	fdf44783          	lbu	a5,-33(s0)
   10738:	00f7f793          	andi	a5,a5,15
   1073c:	fef42623          	sw	a5,-20(s0)
   10740:	fdf44783          	lbu	a5,-33(s0)
   10744:	0047d793          	srli	a5,a5,0x4
   10748:	fef405a3          	sb	a5,-21(s0)
   1074c:	feb44783          	lbu	a5,-21(s0)
   10750:	00f00713          	li	a4,15
   10754:	40f707b3          	sub	a5,a4,a5
   10758:	00008737          	lui	a4,0x8
   1075c:	fff70713          	addi	a4,a4,-1 # 7fff <_start-0x8001>
   10760:	40f757b3          	sra	a5,a4,a5
   10764:	00479793          	slli	a5,a5,0x4
   10768:	fef42223          	sw	a5,-28(s0)
   1076c:	feb44783          	lbu	a5,-21(s0)
   10770:	fec42703          	lw	a4,-20(s0)
   10774:	00f71733          	sll	a4,a4,a5
   10778:	fe442783          	lw	a5,-28(s0)
   1077c:	00f707b3          	add	a5,a4,a5
   10780:	00078513          	mv	a0,a5
   10784:	02c12083          	lw	ra,44(sp)
   10788:	02812403          	lw	s0,40(sp)
   1078c:	03010113          	addi	sp,sp,48
   10790:	00008067          	ret

00010794 <uf8_encode>:
   10794:	fc010113          	addi	sp,sp,-64
   10798:	02112e23          	sw	ra,60(sp)
   1079c:	02812c23          	sw	s0,56(sp)
   107a0:	04010413          	addi	s0,sp,64
   107a4:	fca42623          	sw	a0,-52(s0)
   107a8:	fcc42703          	lw	a4,-52(s0)
   107ac:	00f00793          	li	a5,15
   107b0:	00e7e863          	bltu	a5,a4,107c0 <uf8_encode+0x2c>
   107b4:	fcc42783          	lw	a5,-52(s0)
   107b8:	0ff7f793          	zext.b	a5,a5
   107bc:	1440006f          	j	10900 <uf8_encode+0x16c>
   107c0:	fcc42503          	lw	a0,-52(s0)
   107c4:	ed1ff0ef          	jal	10694 <clz>
   107c8:	00050793          	mv	a5,a0
   107cc:	fef42023          	sw	a5,-32(s0)
   107d0:	01f00713          	li	a4,31
   107d4:	fe042783          	lw	a5,-32(s0)
   107d8:	40f707b3          	sub	a5,a4,a5
   107dc:	fcf42e23          	sw	a5,-36(s0)
   107e0:	fe0407a3          	sb	zero,-17(s0)
   107e4:	fe042423          	sw	zero,-24(s0)
   107e8:	fdc42703          	lw	a4,-36(s0)
   107ec:	00400793          	li	a5,4
   107f0:	0ce7d063          	bge	a5,a4,108b0 <uf8_encode+0x11c>
   107f4:	fdc42783          	lw	a5,-36(s0)
   107f8:	0ff7f793          	zext.b	a5,a5
   107fc:	ffc78793          	addi	a5,a5,-4
   10800:	fef407a3          	sb	a5,-17(s0)
   10804:	fef44703          	lbu	a4,-17(s0)
   10808:	00f00793          	li	a5,15
   1080c:	00e7f663          	bgeu	a5,a4,10818 <uf8_encode+0x84>
   10810:	00f00793          	li	a5,15
   10814:	fef407a3          	sb	a5,-17(s0)
   10818:	fe0403a3          	sb	zero,-25(s0)
   1081c:	0200006f          	j	1083c <uf8_encode+0xa8>
   10820:	fe842783          	lw	a5,-24(s0)
   10824:	00179793          	slli	a5,a5,0x1
   10828:	01078793          	addi	a5,a5,16
   1082c:	fef42423          	sw	a5,-24(s0)
   10830:	fe744783          	lbu	a5,-25(s0)
   10834:	00178793          	addi	a5,a5,1
   10838:	fef403a3          	sb	a5,-25(s0)
   1083c:	fe744703          	lbu	a4,-25(s0)
   10840:	fef44783          	lbu	a5,-17(s0)
   10844:	fcf76ee3          	bltu	a4,a5,10820 <uf8_encode+0x8c>
   10848:	0200006f          	j	10868 <uf8_encode+0xd4>
   1084c:	fe842783          	lw	a5,-24(s0)
   10850:	ff078793          	addi	a5,a5,-16
   10854:	0017d793          	srli	a5,a5,0x1
   10858:	fef42423          	sw	a5,-24(s0)
   1085c:	fef44783          	lbu	a5,-17(s0)
   10860:	fff78793          	addi	a5,a5,-1
   10864:	fef407a3          	sb	a5,-17(s0)
   10868:	fef44783          	lbu	a5,-17(s0)
   1086c:	04078263          	beqz	a5,108b0 <uf8_encode+0x11c>
   10870:	fcc42703          	lw	a4,-52(s0)
   10874:	fe842783          	lw	a5,-24(s0)
   10878:	fcf76ae3          	bltu	a4,a5,1084c <uf8_encode+0xb8>
   1087c:	0340006f          	j	108b0 <uf8_encode+0x11c>
   10880:	fe842783          	lw	a5,-24(s0)
   10884:	00179793          	slli	a5,a5,0x1
   10888:	01078793          	addi	a5,a5,16
   1088c:	fcf42c23          	sw	a5,-40(s0)
   10890:	fcc42703          	lw	a4,-52(s0)
   10894:	fd842783          	lw	a5,-40(s0)
   10898:	02f76463          	bltu	a4,a5,108c0 <uf8_encode+0x12c>
   1089c:	fd842783          	lw	a5,-40(s0)
   108a0:	fef42423          	sw	a5,-24(s0)
   108a4:	fef44783          	lbu	a5,-17(s0)
   108a8:	00178793          	addi	a5,a5,1
   108ac:	fef407a3          	sb	a5,-17(s0)
   108b0:	fef44703          	lbu	a4,-17(s0)
   108b4:	00e00793          	li	a5,14
   108b8:	fce7f4e3          	bgeu	a5,a4,10880 <uf8_encode+0xec>
   108bc:	0080006f          	j	108c4 <uf8_encode+0x130>
   108c0:	00000013          	nop
   108c4:	fcc42703          	lw	a4,-52(s0)
   108c8:	fe842783          	lw	a5,-24(s0)
   108cc:	40f70733          	sub	a4,a4,a5
   108d0:	fef44783          	lbu	a5,-17(s0)
   108d4:	00f757b3          	srl	a5,a4,a5
   108d8:	fcf40ba3          	sb	a5,-41(s0)
   108dc:	fef40783          	lb	a5,-17(s0)
   108e0:	00479793          	slli	a5,a5,0x4
   108e4:	01879713          	slli	a4,a5,0x18
   108e8:	41875713          	srai	a4,a4,0x18
   108ec:	fd740783          	lb	a5,-41(s0)
   108f0:	00f767b3          	or	a5,a4,a5
   108f4:	01879793          	slli	a5,a5,0x18
   108f8:	4187d793          	srai	a5,a5,0x18
   108fc:	0ff7f793          	zext.b	a5,a5
   10900:	00078513          	mv	a0,a5
   10904:	03c12083          	lw	ra,60(sp)
   10908:	03812403          	lw	s0,56(sp)
   1090c:	04010113          	addi	sp,sp,64
   10910:	00008067          	ret

00010914 <test>:
   10914:	fd010113          	addi	sp,sp,-48
   10918:	02112623          	sw	ra,44(sp)
   1091c:	02812423          	sw	s0,40(sp)
   10920:	03010413          	addi	s0,sp,48
   10924:	fff00793          	li	a5,-1
   10928:	fef42623          	sw	a5,-20(s0)
   1092c:	00100793          	li	a5,1
   10930:	fef405a3          	sb	a5,-21(s0)
   10934:	fe042223          	sw	zero,-28(s0)
   10938:	0a40006f          	j	109dc <test+0xc8>
   1093c:	fe442783          	lw	a5,-28(s0)
   10940:	fef401a3          	sb	a5,-29(s0)
   10944:	fe344783          	lbu	a5,-29(s0)
   10948:	00078513          	mv	a0,a5
   1094c:	dd1ff0ef          	jal	1071c <uf8_decode>
   10950:	00050793          	mv	a5,a0
   10954:	fcf42e23          	sw	a5,-36(s0)
   10958:	fdc42783          	lw	a5,-36(s0)
   1095c:	00078513          	mv	a0,a5
   10960:	e35ff0ef          	jal	10794 <uf8_encode>
   10964:	00050793          	mv	a5,a0
   10968:	fcf40da3          	sb	a5,-37(s0)
   1096c:	fe344703          	lbu	a4,-29(s0)
   10970:	fdb44783          	lbu	a5,-37(s0)
   10974:	02f70463          	beq	a4,a5,1099c <test+0x88>
   10978:	fe344783          	lbu	a5,-29(s0)
   1097c:	fdb44703          	lbu	a4,-37(s0)
   10980:	00070693          	mv	a3,a4
   10984:	fdc42603          	lw	a2,-36(s0)
   10988:	00078593          	mv	a1,a5
   1098c:	000117b7          	lui	a5,0x11
   10990:	a9078513          	addi	a0,a5,-1392 # 10a90 <hw1_B_main+0x90>
   10994:	ae5ff0ef          	jal	10478 <printf>
   10998:	fe0405a3          	sb	zero,-21(s0)
   1099c:	fdc42703          	lw	a4,-36(s0)
   109a0:	fec42783          	lw	a5,-20(s0)
   109a4:	02e7c263          	blt	a5,a4,109c8 <test+0xb4>
   109a8:	fe344783          	lbu	a5,-29(s0)
   109ac:	fec42683          	lw	a3,-20(s0)
   109b0:	fdc42603          	lw	a2,-36(s0)
   109b4:	00078593          	mv	a1,a5
   109b8:	000117b7          	lui	a5,0x11
   109bc:	ac478513          	addi	a0,a5,-1340 # 10ac4 <hw1_B_main+0xc4>
   109c0:	ab9ff0ef          	jal	10478 <printf>
   109c4:	fe0405a3          	sb	zero,-21(s0)
   109c8:	fdc42783          	lw	a5,-36(s0)
   109cc:	fef42623          	sw	a5,-20(s0)
   109d0:	fe442783          	lw	a5,-28(s0)
   109d4:	00178793          	addi	a5,a5,1
   109d8:	fef42223          	sw	a5,-28(s0)
   109dc:	fe442703          	lw	a4,-28(s0)
   109e0:	0ff00793          	li	a5,255
   109e4:	f4e7dce3          	bge	a5,a4,1093c <test+0x28>
   109e8:	feb44783          	lbu	a5,-21(s0)
   109ec:	00078513          	mv	a0,a5
   109f0:	02c12083          	lw	ra,44(sp)
   109f4:	02812403          	lw	s0,40(sp)
   109f8:	03010113          	addi	sp,sp,48
   109fc:	00008067          	ret

00010a00 <hw1_B_main>:
   10a00:	ff010113          	addi	sp,sp,-16
   10a04:	00112623          	sw	ra,12(sp)
   10a08:	00812423          	sw	s0,8(sp)
   10a0c:	01010413          	addi	s0,sp,16
   10a10:	f05ff0ef          	jal	10914 <test>
   10a14:	00050793          	mv	a5,a0
   10a18:	00078c63          	beqz	a5,10a30 <hw1_B_main+0x30>
   10a1c:	000117b7          	lui	a5,0x11
   10a20:	aec78513          	addi	a0,a5,-1300 # 10aec <hw1_B_main+0xec>
   10a24:	9e1ff0ef          	jal	10404 <puts>
   10a28:	00000793          	li	a5,0
   10a2c:	0080006f          	j	10a34 <hw1_B_main+0x34>
   10a30:	00100793          	li	a5,1
   10a34:	00078513          	mv	a0,a5
   10a38:	00c12083          	lw	ra,12(sp)
   10a3c:	00812403          	lw	s0,8(sp)
   10a40:	01010113          	addi	sp,sp,16
   10a44:	00008067          	ret
