
test.elf:     file format elf32-littleriscv

Contents of section .text:
 10000 17210000 130101c8 97120000 9382a2c6  .!..............
 10010 17130000 130323c6 63d86200 23a00200  ......#.c.b.#...
 10020 93824200 6ff05fff ef00d014 9308d005  ..B.o._.........
 10030 13050000 73000000 6f000000 1308f6ff  ....s...o.......
 10040 630e0608 93076000 13871500 63fa0707  c.....`.....c...
 10050 b367b500 93f73700 13871500 63920706  .g....7.....c...
 10060 b307e540 93b73700 639c0704 9378c6ff  ...@..7.c....x..
 10070 b3861501 93070500 03a70500 93854500  ..............E.
 10080 93874700 23aee7fe e398b6fe 33081841  ..G.#.......3..A
 10090 b3071501 63041605 03c70600 2380e700  ....c.......#...
 100a0 630e0802 03c61600 13071000 a380c700  c...............
 100b0 6306e802 03c72600 2381e700 67800000  c.....&.#...g...
 100c0 3306c500 93070500 8346f7ff 93871700  3........F......
 100d0 13071700 a38fd7fe e398c7fe 67800000  ............g...
 100e0 13070500 13050000 63820502 93f71500  ........c.......
 100f0 b307f040 b3f7e700 93d51500 3305f500  ...@........3...
 10100 13171700 e39405fe 67800000 67800000  ........g...g...
 10110 83470500 63820702 130101ff 13051500  .G..c...........
 10120 23261100 eff0dffe 8320c100 13051500  #&....... ......
 10130 13010101 67800000 13050000 67800000  ....g.......g...
 10140 130101fe 232c8100 232e1100 83470500  ....#,..#....G..
 10150 13040500 638e0704 13051500 eff05ffb  ....c........._.
 10160 93071500 93080004 13051000 b3058000  ................
 10170 13860700 73000000 9307a000 2316f100  ....s.......#...
 10180 13071000 9307c100 93080004 13051000  ................
 10190 b305f000 13060700 73000000 8320c101  ........s.... ..
 101a0 03248101 13050000 13010102 67800000  .$..........g...
 101b0 93070000 6ff01ffb 130101fd 23248100  ....o.......#$..
 101c0 23261100 03430500 232ab100 232cc100  #&...C..#*..#,..
 101d0 232ed100 2320e102 2322f102 23240103  #...# ..#"..#$..
 101e0 23261103 13040500 630c0302 13051500  #&......c.......
 101f0 eff01ff2 93071500 93080004 13051000  ................
 10200 b3058000 13860700 73000000 8320c100  ........s.... ..
 10210 03248100 13050000 13010103 67800000  .$..........g...
 10220 93070000 6ff05ffd f32500c8 732500c0  ....o._..%..s%..
 10230 732600c8 e39ac5fe 67800000 f32520c8  s&......g....% .
 10240 732520c0 732620c8 e39ac5fe 67800000  s% .s& .....g...
 10250 93570501 93050500 13070001 63960700  .W..........c...
 10260 93070500 13070002 93d68700 63860600  ............c...
 10270 130787ff 93870600 93d64700 63860600  ..........G.c...
 10280 1307c7ff 93870600 93d62700 63860600  ..........'.c...
 10290 1307e7ff 93870600 93d61700 63860600  ............c...
 102a0 1307f7ff 93870600 b387e740 9387f701  ...........@....
 102b0 13074000 6342f716 9307f000 63feb732  ..@.cB......c..2
 102c0 13070001 93171700 93870701 63e4f548  ............c..H
 102d0 13971700 13070701 63e2e546 93060000  ........c..F....
 102e0 13063000 93171700 93870701 63ecf53e  ..0.........c..>
 102f0 13864600 1376f60f 1307f000 6300e610  ..F..v......c...
 10300 13951700 13050501 63eca52e 13865600  ........c.....V.
 10310 1376f60f 630ee630 93171500 93870701  .v..c..0........
 10320 63e8f53c 13866600 1376f60f 6308e60c  c..<..f..v..c...
 10330 13951700 13050501 63e4a52c 13867600  ........c..,..v.
 10340 1376f60f 6306e62e 93171500 93870701  .v..c...........
 10350 63e0f53a 13868600 1376f60f 6300e60a  c..:.....v..c...
 10360 13971700 13070701 63ece528 13869600  ........c..(....
 10370 1376f60f 1305f000 6302a636 93171700  .v......c..6....
 10380 93870701 63e0f536 1386a600 1376f60f  ....c..6.....v..
 10390 6306a606 13971700 13070701 63e2e526  c...........c..&
 103a0 1386b600 1376f60f 630aa632 93171700  .....v..c..2....
 103b0 93870701 63e8f532 1386c600 1376f60f  ....c..2.....v..
 103c0 630ea602 13971700 13070701 63eae522  c...........c.."
 103d0 1386d600 1376f60f 6302a630 13151700  .....v..c..0....
 103e0 13050501 63e0a530 93071000 6382f624  ....c..0....c..$
 103f0 93171500 93870701 63e8f532 1306f000  ........c..2....
 10400 b387f540 b3d7c700 130500ff 3365f500  ...@........3e..
 10410 1375f50f 67800000 9387c7ff 13f7f70f  .u..g...........
 10420 9307f000 1376f70f 63ece71e 93071000  .....v..c.......
 10430 6304f72c 93072000 6300f720 93073000  c..,.. .c.. ..0.
 10440 630af72e 93074000 630ef72e 93075000  c.....@.c.....P.
 10450 630ef72e 93076000 6304f730 93077000  c.....`.c..0..p.
 10460 6300f72c 93078000 6300f730 93079000  c..,....c..0....
 10470 6302f730 9307a000 6304f730 9307b000  c..0....c..0....
 10480 6306f730 9307c000 6308f730 9307d000  c..0....c..0....
 10490 630af730 37050400 9306e000 130505ff  c..07...........
 104a0 630ed718 b7070800 9387f7fe 63eeb732  c...........c..2
 104b0 b7070400 37050400 9387f7fe 130505ff  ....7...........
 104c0 63e6b722 9306e6ff 93571500 93f6f60f  c..".....W......
 104d0 938787ff 6386061a 63fef51a 9306d6ff  ....c...c.......
 104e0 13552500 93f6f60f 930745ff 638a0618  .U%.......E.c...
 104f0 63f2f51a 9306c6ff 93d71700 93f6f60f  c...............
 10500 938787ff 638e0616 63f6f518 9306b6ff  ....c...c.......
 10510 93d71700 93f6f60f 938787ff 63820616  ............c...
 10520 63faf516 9306a6ff 93d71700 93f6f60f  c...............
 10530 938787ff 63860614 63fef514 930696ff  ....c...c.......
 10540 93d71700 93f6f60f 938787ff 638a0612  ............c...
 10550 63f2f514 930686ff 93d71700 93f6f60f  c...............
 10560 938787ff 638e0610 63f6f512 930676ff  ....c...c.....v.
 10570 93d71700 93f6f60f 938787ff 63820610  ............c...
 10580 63faf510 930666ff 93d71700 93f6f60f  c.....f.........
 10590 938787ff 6386060e 63fef50e 930656ff  ....c...c.....V.
 105a0 93d71700 93f6f60f 938787ff 638a060c  ............c...
 105b0 63f2f50e 930646ff 93d71700 93f6f60f  c.....F.........
 105c0 938787ff 638e060a 63f6f50c 930636ff  ....c...c.....6.
 105d0 93d71700 93f6f60f 938787ff 6382060a  ............c...
 105e0 63faf50a 93d71700 9306e000 938787ff  c...............
 105f0 6304d71c 63fef51c 13060000 93070000  c...c...........
 10600 13174600 13158701 b387f540 b3d7c700  ..F........@....
 10610 13558541 3365f500 1375f50f 67800000  .U.A3e...u..g...
 10620 13f6f70f 93071000 e316f7e0 6f00c00c  ............o...
 10630 93070500 6ff09fdc 13050003 63fca500  ....o.......c...
 10640 13551500 130585ff e3eea5e6 1306f6ff  .U..............
 10650 1376f60f 93171500 93870701 63eaf508  .v..........c...
 10660 13051600 1375f50f 1307f000 e308e5d8  .....u..........
 10670 93060600 13870700 13060500 6f00c002  ............o...
 10680 13971700 13070701 e3fee5c2 13060000  ................
 10690 6ff01ff7 13971700 13861600 13070701  o...............
 106a0 1376f60f 63e6e510 93171700 93870701  .v..c...........
 106b0 63eaf502 13862600 1376f60f 1305f000  c.....&..v......
 106c0 e30ea6d2 13971700 13070701 e3eae5f2  ................
 106d0 13863600 1376f60f e316a6c0 93070700  ..6..v..........
 106e0 6ff0dfd1 93070700 6ff09ff1 13860600  o.......o.......
 106f0 93070500 6ff0dff0 9306f000 13060000  ....o...........
 10700 93070000 e3feb6ee 9307f002 63f4b70e  ............c...
 10710 93060700 13062000 13070003 6ff0dff8  ...... .....o...
 10720 1305007f 6ff09ff1 93070500 1306e000  ....o...........
 10730 6ff01fed 13050007 6ff05ff0 13062000  o.......o._... .
 10740 6ff01fec 1305000f 6ff05fef 1305001f  o.......o._.....
 10750 6ff0dfee 93070700 13061000 6ff05fea  o...........o._.
 10760 1305003f 6ff09fed 37150000 130505ff  ...?o...7.......
 10770 6ff0dfec 37250000 130505ff 6ff01fec  o...7%......o...
 10780 37450000 130505ff 6ff05feb 37850000  7E......o._.7...
 10790 130505ff 6ff09fea 37050100 130505ff  ....o...7.......
 107a0 6ff0dfe9 37050200 130505ff 6ff01fe9  o...7.......o...
 107b0 13860600 6ff0dfe4 13971700 13070701  ....o...........
 107c0 e3e6e5ec 13061000 93070001 6ff05fe3  ............o._.
 107d0 13971700 13070701 e3e0e5f8 13062000  .............. .
 107e0 93070001 6ff0dfe1 b7070800 938707ff  ....o...........
 107f0 6ff0dfc0 13060700 93070001 6ff05fe0  o...........o._.
 10800 93564500 1307f000 b7870000 3307d740  .VE.........3..@
 10810 9387f7ff b3d7e740 1375f500 3315d500  .......@.u..3...
 10820 93974700 3385a700 67800000 1307f000  ..G.3...g.......
 10830 6374a700 6ff0dfa1 1375f50f 67800000  ct..o....u..g...
 10840 130101fd 232c4101 378a0000 23229102  ....#,A.7...#"..
 10850 23202103 232e3101 232a5101 23286101  # !.#.1.#*Q.#(a.
 10860 23267101 23248101 23261102 23248102  #&q.#$..#&..#$..
 10870 23229101 130afaff 130b1000 1309f0ff  #"..............
 10880 93040000 9309f000 930a0010 371c0100  ............7...
 10890 b71b0100 93fcf40f 13d74c00 3384e940  ..........L.3..@
 108a0 33548a40 93f7fc00 13144400 b397e700  3T.@......D.....
 108b0 3304f400 13050400 63fa8906 eff05f99  3.......c....._.
 108c0 93060500 630c9501 13060400 93850400  ....c...........
 108d0 13854bc0 eff05f8e 130b0000 63548906  ..K..._.....cT..
 108e0 93841400 63865401 13090400 6ff09ffa  ....c.T.....o...
 108f0 13051000 63160b06 8320c102 03248102  ....c.... ...$..
 10900 83244102 03290102 8329c101 032a8101  .$A..)...)...*..
 10910 832a4101 032b0101 832bc100 032c8100  .*A..+...+...,..
 10920 832c4100 13010103 67800000 9376f40f  .,A.....g....v..
 10930 e39c96f9 63588900 93841400 13090400  ....cX..........
 10940 6ff05ff5 93060900 13060400 93850400  o._.............
 10950 13058cc3 eff05f86 130b0000 6ff05ff8  ......_.....o._.
 10960 37150100 130505c6 eff08ffd 13050000  7...............
 10970 6ff09ff8                             o...            
Contents of section .text.startup:
 10974 b7170100 9387c7bb 03a80700 03a54700  ..............G.
 10984 83a58700 03a6c700 83a60701 03a74701  ..............G.
 10994 83d78701 130101fb 23248104 2316f102  ........#$..#...
 109a4 23261104 23222105 23203105 232e4103  #&..#"!.# 1.#.A.
 109b4 232c5103 232a0101 232ca100 232eb100  #,Q.#*..#,..#...
 109c4 2320c102 2322d102 2324e102 13044101  # ..#"..#$....A.
 109d4 93079001 93080004 13051000 b3058000  ................
 109e4 13860700 73000000 eff0df83 2320a100  ....s.......# ..
 109f4 2322b100 eff09fe4 eff0df82 b7170100  #"..............
 10a04 938787bd 03ae0700 03a34700 83a88700  ..........G.....
 10a14 03a8c700 03a60701 83a64701 03d78701  ..........G.....
 10a24 83c7a701 2324a100 2326b100 2307f102  ....#$..#&..#...
 10a34 232ac101 232c6100 232e1101 23200103  #*..#,a.#...# ..
 10a44 2322c102 2324d102 2316e102 9307a001  #"..#$..#.......
 10a54 93080004 13051000 b3058000 13860700  ................
 10a64 73000000 b7170100 938747bf 83a50700  s.........G.....
 10a74 03a64700 83a68700 03d7c700 83c7e700  ..G.............
 10a84 232ab100 232cc100 2301f102 232ed100  #*..#,..#...#...
 10a94 2310e102 9307e000 93080004 13051000  #...............
 10aa4 b3058000 13860700 73000000 03268100  ........s....&..
 10ab4 8326c100 03270100 83274100 3305e640  .&...'...'A.3..@
 10ac4 631ae606 93070003 2303f102 13065102  c.......#.....Q.
 10ad4 93071600 13077102 3307f740 93080004  ......q.3..@....
 10ae4 13051000 b305f000 13060700 73000000  ............s...
 10af4 9307a000 231af100 93071000 93080004  ....#...........
 10b04 13051000 b3058000 13860700 73000000  ............s...
 10b14 8320c104 03248104 03294104 83290104  . ...$...)A..)..
 10b24 032ac103 832a8103 13050000 13010105  .*...*..........
 10b34 67800000 13066102 93089000 1308f0ff  g.....a.........
 10b44 13031000 1307f001 93070000 b356e500  .............V..
 10b54 93971700 93f61600 b3e7f600 1307f7ff  ................
 10b64 63f4f800 938767ff e31207ff 93870703  c.....g.........
 10b74 2300f600 9305f001 93070000 1306f6ff  #...............
 10b84 13070000 b356b500 93f61600 13171700  .....V..........
 10b94 33e7e600 b316b300 9385f5ff 63f6e800  3...........c...
 10ba4 130767ff b3e7d700 e39e05fd e38207f2  ..g.............
 10bb4 13850700 6ff01ff9                    ....o...        
Contents of section .rodata.str1.4:
 10bbc 3d3d3d20 5b52756e 6e696e67 20687731  === [Running hw1
 10bcc 5f425d20 3d3d3d0a 0a000000 0a3d3d3d  _B] ===......===
 10bdc 205b6877 315f4220 46696e69 73686564   [hw1_B Finished
 10bec 5d203d3d 3d0a0000 546f7461 6c204379  ] ===...Total Cy
 10bfc 636c6573 3a200000 25303278 3a207072  cles: ..%02x: pr
 10c0c 6f647563 65732076 616c7565 20256420  oduces value %d 
 10c1c 62757420 656e636f 64657320 6261636b  but encodes back
 10c2c 20746f20 25303278 0a000000 25303278   to %02x....%02x
 10c3c 3a207661 6c756520 2564203c 3d207072  : value %d <= pr
 10c4c 6576696f 75735f76 616c7565 2025640a  evious_value %d.
 10c5c 00000000 416c6c20 74657374 73207061  ....All tests pa
 10c6c 73736564 2e00                        ssed..          
Contents of section .riscv.attributes:
 0000 41280000 00726973 63760001 1e000000  A(...riscv......
 0010 04100572 76333269 3270315f 7a696373  ...rv32i2p1_zics
 0020 72327030 0008010a 0b                 r2p0.....       
Contents of section .comment:
 0000 4743433a 20287850 61636b20 474e5520  GCC: (xPack GNU 
 0010 52495343 2d562045 6d626564 64656420  RISC-V Embedded 
 0020 47434320 61726d36 34292031 342e322e  GCC arm64) 14.2.
 0030 3000                                 0.              
Contents of section .debug_line:
 0000 71000000 02001b00 00000101 fb0e0a00  q...............
 0010 01010101 00000001 00737461 72742e53  .........start.S
 0020 00000000 00000502 00000100 16030309  ................
 0030 08000103 01090800 01030209 08000103  ................
 0040 01090400 01030109 04000103 01090400  ................
 0050 01030409 04000103 03090400 01030109  ................
 0060 04000103 01090400 01030409 04000109  ................
 0070 04000001 016b0000 00020021 00000001  .....k.....!....
 0080 01fb0e0a 00010101 01000000 01007065  ..............pe
 0090 7266636f 756e7465 722e5300 00000000  rfcounter.S.....
 00a0 00050228 02010017 03010904 00010301  ...(............
 00b0 09040001 03010904 00010301 09040001  ................
 00c0 03080904 00010301 09040001 03010904  ................
 00d0 00010301 09040001 03010904 00010904  ................
 00e0 00000101                             ....            
Contents of section .debug_info:
 0000 31000000 02000000 00000401 00000000  1...............
 0010 00000100 3c000100 00000000 08000000  ....<...........
 0020 2e000000 0180023c 00000001 00000100  .......<........
 0030 40000100 00220000 00020021 00000004  @....".....!....
 0040 01750000 00280201 00500201 00430000  .u...(...P...C..
 0050 00080000 002e0000 000180             ...........     
Contents of section .debug_abbrev:
 0000 01110110 06110112 01030e1b 0e250e13  .............%..
 0010 05000002 2e00030e 3f0c1101 12010000  ........?.......
 0020 00011100 10061101 1201030e 1b0e250e  ..............%.
 0030 13050000 00                          .....           
Contents of section .debug_aranges:
 0000 1c000000 02000000 00000400 00000000  ................
 0010 00000100 3c000000 00000000 00000000  ....<...........
 0020 1c000000 02003500 00000400 00000000  ......5.........
 0030 28020100 28000000 00000000 00000000  (...(...........
Contents of section .debug_str:
 0000 73746172 742e5300 2f557365 72732f68  start.S./Users/h
 0010 73756873 69616f66 616e2f72 76333265  suhsiaofan/rv32e
 0020 6d752f6d 795f7072 6f6a6563 7400474e  mu/my_project.GN
 0030 55204153 20322e34 332e3100 5f737461  U AS 2.43.1._sta
 0040 72740070 65726663 6f756e74 65722e53  rt.perfcounter.S
 0050 00                                   .               

Disassembly of section .text:

00010000 <_start>:
   10000:	00002117          	auipc	sp,0x2
   10004:	c8010113          	addi	sp,sp,-896 # 11c80 <__stack_top>
   10008:	00001297          	auipc	t0,0x1
   1000c:	c6a28293          	addi	t0,t0,-918 # 10c72 <__bss_end>
   10010:	00001317          	auipc	t1,0x1
   10014:	c6230313          	addi	t1,t1,-926 # 10c72 <__bss_end>
   10018:	0062d863          	bge	t0,t1,10028 <_start+0x28>
   1001c:	0002a023          	sw	zero,0(t0)
   10020:	00428293          	addi	t0,t0,4
   10024:	ff5ff06f          	j	10018 <_start+0x18>
   10028:	14d000ef          	jal	10974 <main>
   1002c:	05d00893          	li	a7,93
   10030:	00000513          	li	a0,0
   10034:	00000073          	ecall
   10038:	0000006f          	j	10038 <_start+0x38>

0001003c <memcpy>:
   1003c:	fff60813          	addi	a6,a2,-1
   10040:	08060e63          	beqz	a2,100dc <memcpy+0xa0>
   10044:	00600793          	li	a5,6
   10048:	00158713          	addi	a4,a1,1
   1004c:	0707fa63          	bgeu	a5,a6,100c0 <memcpy+0x84>
   10050:	00b567b3          	or	a5,a0,a1
   10054:	0037f793          	andi	a5,a5,3
   10058:	00158713          	addi	a4,a1,1
   1005c:	06079263          	bnez	a5,100c0 <memcpy+0x84>
   10060:	40e507b3          	sub	a5,a0,a4
   10064:	0037b793          	sltiu	a5,a5,3
   10068:	04079c63          	bnez	a5,100c0 <memcpy+0x84>
   1006c:	ffc67893          	andi	a7,a2,-4
   10070:	011586b3          	add	a3,a1,a7
   10074:	00050793          	mv	a5,a0
   10078:	0005a703          	lw	a4,0(a1)
   1007c:	00458593          	addi	a1,a1,4
   10080:	00478793          	addi	a5,a5,4
   10084:	fee7ae23          	sw	a4,-4(a5)
   10088:	feb698e3          	bne	a3,a1,10078 <memcpy+0x3c>
   1008c:	41180833          	sub	a6,a6,a7
   10090:	011507b3          	add	a5,a0,a7
   10094:	05160463          	beq	a2,a7,100dc <memcpy+0xa0>
   10098:	0006c703          	lbu	a4,0(a3)
   1009c:	00e78023          	sb	a4,0(a5)
   100a0:	02080e63          	beqz	a6,100dc <memcpy+0xa0>
   100a4:	0016c603          	lbu	a2,1(a3)
   100a8:	00100713          	li	a4,1
   100ac:	00c780a3          	sb	a2,1(a5)
   100b0:	02e80663          	beq	a6,a4,100dc <memcpy+0xa0>
   100b4:	0026c703          	lbu	a4,2(a3)
   100b8:	00e78123          	sb	a4,2(a5)
   100bc:	00008067          	ret
   100c0:	00c50633          	add	a2,a0,a2
   100c4:	00050793          	mv	a5,a0
   100c8:	fff74683          	lbu	a3,-1(a4)
   100cc:	00178793          	addi	a5,a5,1
   100d0:	00170713          	addi	a4,a4,1
   100d4:	fed78fa3          	sb	a3,-1(a5)
   100d8:	fec798e3          	bne	a5,a2,100c8 <memcpy+0x8c>
   100dc:	00008067          	ret

000100e0 <__mulsi3>:
   100e0:	00050713          	mv	a4,a0
   100e4:	00000513          	li	a0,0
   100e8:	02058263          	beqz	a1,1010c <__mulsi3+0x2c>
   100ec:	0015f793          	andi	a5,a1,1
   100f0:	40f007b3          	neg	a5,a5
   100f4:	00e7f7b3          	and	a5,a5,a4
   100f8:	0015d593          	srli	a1,a1,0x1
   100fc:	00f50533          	add	a0,a0,a5
   10100:	00171713          	slli	a4,a4,0x1
   10104:	fe0594e3          	bnez	a1,100ec <__mulsi3+0xc>
   10108:	00008067          	ret
   1010c:	00008067          	ret

00010110 <strlen>:
   10110:	00054783          	lbu	a5,0(a0)
   10114:	02078263          	beqz	a5,10138 <strlen+0x28>
   10118:	ff010113          	addi	sp,sp,-16
   1011c:	00150513          	addi	a0,a0,1
   10120:	00112623          	sw	ra,12(sp)
   10124:	fedff0ef          	jal	10110 <strlen>
   10128:	00c12083          	lw	ra,12(sp)
   1012c:	00150513          	addi	a0,a0,1
   10130:	01010113          	addi	sp,sp,16
   10134:	00008067          	ret
   10138:	00000513          	li	a0,0
   1013c:	00008067          	ret

00010140 <puts>:
   10140:	fe010113          	addi	sp,sp,-32
   10144:	00812c23          	sw	s0,24(sp)
   10148:	00112e23          	sw	ra,28(sp)
   1014c:	00054783          	lbu	a5,0(a0)
   10150:	00050413          	mv	s0,a0
   10154:	04078e63          	beqz	a5,101b0 <puts+0x70>
   10158:	00150513          	addi	a0,a0,1
   1015c:	fb5ff0ef          	jal	10110 <strlen>
   10160:	00150793          	addi	a5,a0,1
   10164:	04000893          	li	a7,64
   10168:	00100513          	li	a0,1
   1016c:	008005b3          	add	a1,zero,s0
   10170:	00078613          	mv	a2,a5
   10174:	00000073          	ecall
   10178:	00a00793          	li	a5,10
   1017c:	00f11623          	sh	a5,12(sp)
   10180:	00100713          	li	a4,1
   10184:	00c10793          	addi	a5,sp,12
   10188:	04000893          	li	a7,64
   1018c:	00100513          	li	a0,1
   10190:	00f005b3          	add	a1,zero,a5
   10194:	00070613          	mv	a2,a4
   10198:	00000073          	ecall
   1019c:	01c12083          	lw	ra,28(sp)
   101a0:	01812403          	lw	s0,24(sp)
   101a4:	00000513          	li	a0,0
   101a8:	02010113          	addi	sp,sp,32
   101ac:	00008067          	ret
   101b0:	00000793          	li	a5,0
   101b4:	fb1ff06f          	j	10164 <puts+0x24>

000101b8 <printf>:
   101b8:	fd010113          	addi	sp,sp,-48
   101bc:	00812423          	sw	s0,8(sp)
   101c0:	00112623          	sw	ra,12(sp)
   101c4:	00054303          	lbu	t1,0(a0)
   101c8:	00b12a23          	sw	a1,20(sp)
   101cc:	00c12c23          	sw	a2,24(sp)
   101d0:	00d12e23          	sw	a3,28(sp)
   101d4:	02e12023          	sw	a4,32(sp)
   101d8:	02f12223          	sw	a5,36(sp)
   101dc:	03012423          	sw	a6,40(sp)
   101e0:	03112623          	sw	a7,44(sp)
   101e4:	00050413          	mv	s0,a0
   101e8:	02030c63          	beqz	t1,10220 <printf+0x68>
   101ec:	00150513          	addi	a0,a0,1
   101f0:	f21ff0ef          	jal	10110 <strlen>
   101f4:	00150793          	addi	a5,a0,1
   101f8:	04000893          	li	a7,64
   101fc:	00100513          	li	a0,1
   10200:	008005b3          	add	a1,zero,s0
   10204:	00078613          	mv	a2,a5
   10208:	00000073          	ecall
   1020c:	00c12083          	lw	ra,12(sp)
   10210:	00812403          	lw	s0,8(sp)
   10214:	00000513          	li	a0,0
   10218:	03010113          	addi	sp,sp,48
   1021c:	00008067          	ret
   10220:	00000793          	li	a5,0
   10224:	fd5ff06f          	j	101f8 <printf+0x40>

00010228 <get_cycles>:
   10228:	c80025f3          	rdcycleh	a1
   1022c:	c0002573          	rdcycle	a0
   10230:	c8002673          	rdcycleh	a2
   10234:	fec59ae3          	bne	a1,a2,10228 <get_cycles>
   10238:	00008067          	ret

0001023c <get_instret>:
   1023c:	c82025f3          	rdinstreth	a1
   10240:	c0202573          	rdinstret	a0
   10244:	c8202673          	rdinstreth	a2
   10248:	fec59ae3          	bne	a1,a2,1023c <get_instret>
   1024c:	00008067          	ret

00010250 <uf8_encode.part.0>:
   10250:	01055793          	srli	a5,a0,0x10
   10254:	00050593          	mv	a1,a0
   10258:	01000713          	li	a4,16
   1025c:	00079663          	bnez	a5,10268 <uf8_encode.part.0+0x18>
   10260:	00050793          	mv	a5,a0
   10264:	02000713          	li	a4,32
   10268:	0087d693          	srli	a3,a5,0x8
   1026c:	00068663          	beqz	a3,10278 <uf8_encode.part.0+0x28>
   10270:	ff870713          	addi	a4,a4,-8
   10274:	00068793          	mv	a5,a3
   10278:	0047d693          	srli	a3,a5,0x4
   1027c:	00068663          	beqz	a3,10288 <uf8_encode.part.0+0x38>
   10280:	ffc70713          	addi	a4,a4,-4
   10284:	00068793          	mv	a5,a3
   10288:	0027d693          	srli	a3,a5,0x2
   1028c:	00068663          	beqz	a3,10298 <uf8_encode.part.0+0x48>
   10290:	ffe70713          	addi	a4,a4,-2
   10294:	00068793          	mv	a5,a3
   10298:	0017d693          	srli	a3,a5,0x1
   1029c:	00068663          	beqz	a3,102a8 <uf8_encode.part.0+0x58>
   102a0:	fff70713          	addi	a4,a4,-1
   102a4:	00068793          	mv	a5,a3
   102a8:	40e787b3          	sub	a5,a5,a4
   102ac:	01f78793          	addi	a5,a5,31
   102b0:	00400713          	li	a4,4
   102b4:	16f74263          	blt	a4,a5,10418 <uf8_encode.part.0+0x1c8>
   102b8:	00f00793          	li	a5,15
   102bc:	32b7fe63          	bgeu	a5,a1,105f8 <uf8_encode.part.0+0x3a8>
   102c0:	01000713          	li	a4,16
   102c4:	00171793          	slli	a5,a4,0x1
   102c8:	01078793          	addi	a5,a5,16
   102cc:	48f5e463          	bltu	a1,a5,10754 <uf8_encode.part.0+0x504>
   102d0:	00179713          	slli	a4,a5,0x1
   102d4:	01070713          	addi	a4,a4,16
   102d8:	46e5e263          	bltu	a1,a4,1073c <uf8_encode.part.0+0x4ec>
   102dc:	00000693          	li	a3,0
   102e0:	00300613          	li	a2,3
   102e4:	00171793          	slli	a5,a4,0x1
   102e8:	01078793          	addi	a5,a5,16
   102ec:	3ef5ec63          	bltu	a1,a5,106e4 <uf8_encode.part.0+0x494>
   102f0:	00468613          	addi	a2,a3,4
   102f4:	0ff67613          	zext.b	a2,a2
   102f8:	00f00713          	li	a4,15
   102fc:	10e60063          	beq	a2,a4,103fc <uf8_encode.part.0+0x1ac>
   10300:	00179513          	slli	a0,a5,0x1
   10304:	01050513          	addi	a0,a0,16
   10308:	2ea5ec63          	bltu	a1,a0,10600 <uf8_encode.part.0+0x3b0>
   1030c:	00568613          	addi	a2,a3,5
   10310:	0ff67613          	zext.b	a2,a2
   10314:	30e60e63          	beq	a2,a4,10630 <uf8_encode.part.0+0x3e0>
   10318:	00151793          	slli	a5,a0,0x1
   1031c:	01078793          	addi	a5,a5,16
   10320:	3cf5e863          	bltu	a1,a5,106f0 <uf8_encode.part.0+0x4a0>
   10324:	00668613          	addi	a2,a3,6
   10328:	0ff67613          	zext.b	a2,a2
   1032c:	0ce60863          	beq	a2,a4,103fc <uf8_encode.part.0+0x1ac>
   10330:	00179513          	slli	a0,a5,0x1
   10334:	01050513          	addi	a0,a0,16
   10338:	2ca5e463          	bltu	a1,a0,10600 <uf8_encode.part.0+0x3b0>
   1033c:	00768613          	addi	a2,a3,7
   10340:	0ff67613          	zext.b	a2,a2
   10344:	2ee60663          	beq	a2,a4,10630 <uf8_encode.part.0+0x3e0>
   10348:	00151793          	slli	a5,a0,0x1
   1034c:	01078793          	addi	a5,a5,16
   10350:	3af5e063          	bltu	a1,a5,106f0 <uf8_encode.part.0+0x4a0>
   10354:	00868613          	addi	a2,a3,8
   10358:	0ff67613          	zext.b	a2,a2
   1035c:	0ae60063          	beq	a2,a4,103fc <uf8_encode.part.0+0x1ac>
   10360:	00179713          	slli	a4,a5,0x1
   10364:	01070713          	addi	a4,a4,16
   10368:	28e5ec63          	bltu	a1,a4,10600 <uf8_encode.part.0+0x3b0>
   1036c:	00968613          	addi	a2,a3,9
   10370:	0ff67613          	zext.b	a2,a2
   10374:	00f00513          	li	a0,15
   10378:	36a60263          	beq	a2,a0,106dc <uf8_encode.part.0+0x48c>
   1037c:	00171793          	slli	a5,a4,0x1
   10380:	01078793          	addi	a5,a5,16
   10384:	36f5e063          	bltu	a1,a5,106e4 <uf8_encode.part.0+0x494>
   10388:	00a68613          	addi	a2,a3,10
   1038c:	0ff67613          	zext.b	a2,a2
   10390:	06a60663          	beq	a2,a0,103fc <uf8_encode.part.0+0x1ac>
   10394:	00179713          	slli	a4,a5,0x1
   10398:	01070713          	addi	a4,a4,16
   1039c:	26e5e263          	bltu	a1,a4,10600 <uf8_encode.part.0+0x3b0>
   103a0:	00b68613          	addi	a2,a3,11
   103a4:	0ff67613          	zext.b	a2,a2
   103a8:	32a60a63          	beq	a2,a0,106dc <uf8_encode.part.0+0x48c>
   103ac:	00171793          	slli	a5,a4,0x1
   103b0:	01078793          	addi	a5,a5,16
   103b4:	32f5e863          	bltu	a1,a5,106e4 <uf8_encode.part.0+0x494>
   103b8:	00c68613          	addi	a2,a3,12
   103bc:	0ff67613          	zext.b	a2,a2
   103c0:	02a60e63          	beq	a2,a0,103fc <uf8_encode.part.0+0x1ac>
   103c4:	00179713          	slli	a4,a5,0x1
   103c8:	01070713          	addi	a4,a4,16
   103cc:	22e5ea63          	bltu	a1,a4,10600 <uf8_encode.part.0+0x3b0>
   103d0:	00d68613          	addi	a2,a3,13
   103d4:	0ff67613          	zext.b	a2,a2
   103d8:	30a60263          	beq	a2,a0,106dc <uf8_encode.part.0+0x48c>
   103dc:	00171513          	slli	a0,a4,0x1
   103e0:	01050513          	addi	a0,a0,16
   103e4:	30a5e063          	bltu	a1,a0,106e4 <uf8_encode.part.0+0x494>
   103e8:	00100793          	li	a5,1
   103ec:	24f68263          	beq	a3,a5,10630 <uf8_encode.part.0+0x3e0>
   103f0:	00151793          	slli	a5,a0,0x1
   103f4:	01078793          	addi	a5,a5,16
   103f8:	32f5e863          	bltu	a1,a5,10728 <uf8_encode.part.0+0x4d8>
   103fc:	00f00613          	li	a2,15
   10400:	40f587b3          	sub	a5,a1,a5
   10404:	00c7d7b3          	srl	a5,a5,a2
   10408:	ff000513          	li	a0,-16
   1040c:	00f56533          	or	a0,a0,a5
   10410:	0ff57513          	zext.b	a0,a0
   10414:	00008067          	ret
   10418:	ffc78793          	addi	a5,a5,-4
   1041c:	0ff7f713          	zext.b	a4,a5
   10420:	00f00793          	li	a5,15
   10424:	0ff77613          	zext.b	a2,a4
   10428:	1ee7ec63          	bltu	a5,a4,10620 <uf8_encode.part.0+0x3d0>
   1042c:	00100793          	li	a5,1
   10430:	2cf70463          	beq	a4,a5,106f8 <uf8_encode.part.0+0x4a8>
   10434:	00200793          	li	a5,2
   10438:	20f70063          	beq	a4,a5,10638 <uf8_encode.part.0+0x3e8>
   1043c:	00300793          	li	a5,3
   10440:	2ef70a63          	beq	a4,a5,10734 <uf8_encode.part.0+0x4e4>
   10444:	00400793          	li	a5,4
   10448:	2ef70e63          	beq	a4,a5,10744 <uf8_encode.part.0+0x4f4>
   1044c:	00500793          	li	a5,5
   10450:	2ef70e63          	beq	a4,a5,1074c <uf8_encode.part.0+0x4fc>
   10454:	00600793          	li	a5,6
   10458:	30f70463          	beq	a4,a5,10760 <uf8_encode.part.0+0x510>
   1045c:	00700793          	li	a5,7
   10460:	2cf70063          	beq	a4,a5,10720 <uf8_encode.part.0+0x4d0>
   10464:	00800793          	li	a5,8
   10468:	30f70063          	beq	a4,a5,10768 <uf8_encode.part.0+0x518>
   1046c:	00900793          	li	a5,9
   10470:	30f70263          	beq	a4,a5,10774 <uf8_encode.part.0+0x524>
   10474:	00a00793          	li	a5,10
   10478:	30f70463          	beq	a4,a5,10780 <uf8_encode.part.0+0x530>
   1047c:	00b00793          	li	a5,11
   10480:	30f70663          	beq	a4,a5,1078c <uf8_encode.part.0+0x53c>
   10484:	00c00793          	li	a5,12
   10488:	30f70863          	beq	a4,a5,10798 <uf8_encode.part.0+0x548>
   1048c:	00d00793          	li	a5,13
   10490:	30f70a63          	beq	a4,a5,107a4 <uf8_encode.part.0+0x554>
   10494:	00040537          	lui	a0,0x40
   10498:	00e00693          	li	a3,14
   1049c:	ff050513          	addi	a0,a0,-16 # 3fff0 <__stack_top+0x2e370>
   104a0:	18d70e63          	beq	a4,a3,1063c <uf8_encode.part.0+0x3ec>
   104a4:	000807b7          	lui	a5,0x80
   104a8:	fef78793          	addi	a5,a5,-17 # 7ffef <__stack_top+0x6e36f>
   104ac:	32b7ee63          	bltu	a5,a1,107e8 <uf8_encode.part.0+0x598>
   104b0:	000407b7          	lui	a5,0x40
   104b4:	00040537          	lui	a0,0x40
   104b8:	fef78793          	addi	a5,a5,-17 # 3ffef <__stack_top+0x2e36f>
   104bc:	ff050513          	addi	a0,a0,-16 # 3fff0 <__stack_top+0x2e370>
   104c0:	22b7e663          	bltu	a5,a1,106ec <uf8_encode.part.0+0x49c>
   104c4:	ffe60693          	addi	a3,a2,-2
   104c8:	00155793          	srli	a5,a0,0x1
   104cc:	0ff6f693          	zext.b	a3,a3
   104d0:	ff878793          	addi	a5,a5,-8
   104d4:	1a068663          	beqz	a3,10680 <uf8_encode.part.0+0x430>
   104d8:	1af5fe63          	bgeu	a1,a5,10694 <uf8_encode.part.0+0x444>
   104dc:	ffd60693          	addi	a3,a2,-3
   104e0:	00255513          	srli	a0,a0,0x2
   104e4:	0ff6f693          	zext.b	a3,a3
   104e8:	ff450793          	addi	a5,a0,-12
   104ec:	18068a63          	beqz	a3,10680 <uf8_encode.part.0+0x430>
   104f0:	1af5f263          	bgeu	a1,a5,10694 <uf8_encode.part.0+0x444>
   104f4:	ffc60693          	addi	a3,a2,-4
   104f8:	0017d793          	srli	a5,a5,0x1
   104fc:	0ff6f693          	zext.b	a3,a3
   10500:	ff878793          	addi	a5,a5,-8
   10504:	16068e63          	beqz	a3,10680 <uf8_encode.part.0+0x430>
   10508:	18f5f663          	bgeu	a1,a5,10694 <uf8_encode.part.0+0x444>
   1050c:	ffb60693          	addi	a3,a2,-5
   10510:	0017d793          	srli	a5,a5,0x1
   10514:	0ff6f693          	zext.b	a3,a3
   10518:	ff878793          	addi	a5,a5,-8
   1051c:	16068263          	beqz	a3,10680 <uf8_encode.part.0+0x430>
   10520:	16f5fa63          	bgeu	a1,a5,10694 <uf8_encode.part.0+0x444>
   10524:	ffa60693          	addi	a3,a2,-6
   10528:	0017d793          	srli	a5,a5,0x1
   1052c:	0ff6f693          	zext.b	a3,a3
   10530:	ff878793          	addi	a5,a5,-8
   10534:	14068663          	beqz	a3,10680 <uf8_encode.part.0+0x430>
   10538:	14f5fe63          	bgeu	a1,a5,10694 <uf8_encode.part.0+0x444>
   1053c:	ff960693          	addi	a3,a2,-7
   10540:	0017d793          	srli	a5,a5,0x1
   10544:	0ff6f693          	zext.b	a3,a3
   10548:	ff878793          	addi	a5,a5,-8
   1054c:	12068a63          	beqz	a3,10680 <uf8_encode.part.0+0x430>
   10550:	14f5f263          	bgeu	a1,a5,10694 <uf8_encode.part.0+0x444>
   10554:	ff860693          	addi	a3,a2,-8
   10558:	0017d793          	srli	a5,a5,0x1
   1055c:	0ff6f693          	zext.b	a3,a3
   10560:	ff878793          	addi	a5,a5,-8
   10564:	10068e63          	beqz	a3,10680 <uf8_encode.part.0+0x430>
   10568:	12f5f663          	bgeu	a1,a5,10694 <uf8_encode.part.0+0x444>
   1056c:	ff760693          	addi	a3,a2,-9
   10570:	0017d793          	srli	a5,a5,0x1
   10574:	0ff6f693          	zext.b	a3,a3
   10578:	ff878793          	addi	a5,a5,-8
   1057c:	10068263          	beqz	a3,10680 <uf8_encode.part.0+0x430>
   10580:	10f5fa63          	bgeu	a1,a5,10694 <uf8_encode.part.0+0x444>
   10584:	ff660693          	addi	a3,a2,-10
   10588:	0017d793          	srli	a5,a5,0x1
   1058c:	0ff6f693          	zext.b	a3,a3
   10590:	ff878793          	addi	a5,a5,-8
   10594:	0e068663          	beqz	a3,10680 <uf8_encode.part.0+0x430>
   10598:	0ef5fe63          	bgeu	a1,a5,10694 <uf8_encode.part.0+0x444>
   1059c:	ff560693          	addi	a3,a2,-11
   105a0:	0017d793          	srli	a5,a5,0x1
   105a4:	0ff6f693          	zext.b	a3,a3
   105a8:	ff878793          	addi	a5,a5,-8
   105ac:	0c068a63          	beqz	a3,10680 <uf8_encode.part.0+0x430>
   105b0:	0ef5f263          	bgeu	a1,a5,10694 <uf8_encode.part.0+0x444>
   105b4:	ff460693          	addi	a3,a2,-12
   105b8:	0017d793          	srli	a5,a5,0x1
   105bc:	0ff6f693          	zext.b	a3,a3
   105c0:	ff878793          	addi	a5,a5,-8
   105c4:	0a068e63          	beqz	a3,10680 <uf8_encode.part.0+0x430>
   105c8:	0cf5f663          	bgeu	a1,a5,10694 <uf8_encode.part.0+0x444>
   105cc:	ff360693          	addi	a3,a2,-13
   105d0:	0017d793          	srli	a5,a5,0x1
   105d4:	0ff6f693          	zext.b	a3,a3
   105d8:	ff878793          	addi	a5,a5,-8
   105dc:	0a068263          	beqz	a3,10680 <uf8_encode.part.0+0x430>
   105e0:	0af5fa63          	bgeu	a1,a5,10694 <uf8_encode.part.0+0x444>
   105e4:	0017d793          	srli	a5,a5,0x1
   105e8:	00e00693          	li	a3,14
   105ec:	ff878793          	addi	a5,a5,-8
   105f0:	1cd70463          	beq	a4,a3,107b8 <uf8_encode.part.0+0x568>
   105f4:	1cf5fe63          	bgeu	a1,a5,107d0 <uf8_encode.part.0+0x580>
   105f8:	00000613          	li	a2,0
   105fc:	00000793          	li	a5,0
   10600:	00461713          	slli	a4,a2,0x4
   10604:	01871513          	slli	a0,a4,0x18
   10608:	40f587b3          	sub	a5,a1,a5
   1060c:	00c7d7b3          	srl	a5,a5,a2
   10610:	41855513          	srai	a0,a0,0x18
   10614:	00f56533          	or	a0,a0,a5
   10618:	0ff57513          	zext.b	a0,a0
   1061c:	00008067          	ret
   10620:	0ff7f613          	zext.b	a2,a5
   10624:	00100793          	li	a5,1
   10628:	e0f716e3          	bne	a4,a5,10434 <uf8_encode.part.0+0x1e4>
   1062c:	0cc0006f          	j	106f8 <uf8_encode.part.0+0x4a8>
   10630:	00050793          	mv	a5,a0
   10634:	dc9ff06f          	j	103fc <uf8_encode.part.0+0x1ac>
   10638:	03000513          	li	a0,48
   1063c:	00a5fc63          	bgeu	a1,a0,10654 <uf8_encode.part.0+0x404>
   10640:	00155513          	srli	a0,a0,0x1
   10644:	ff850513          	addi	a0,a0,-8
   10648:	e6a5eee3          	bltu	a1,a0,104c4 <uf8_encode.part.0+0x274>
   1064c:	fff60613          	addi	a2,a2,-1
   10650:	0ff67613          	zext.b	a2,a2
   10654:	00151793          	slli	a5,a0,0x1
   10658:	01078793          	addi	a5,a5,16
   1065c:	08f5ea63          	bltu	a1,a5,106f0 <uf8_encode.part.0+0x4a0>
   10660:	00160513          	addi	a0,a2,1
   10664:	0ff57513          	zext.b	a0,a0
   10668:	00f00713          	li	a4,15
   1066c:	d8e508e3          	beq	a0,a4,103fc <uf8_encode.part.0+0x1ac>
   10670:	00060693          	mv	a3,a2
   10674:	00078713          	mv	a4,a5
   10678:	00050613          	mv	a2,a0
   1067c:	02c0006f          	j	106a8 <uf8_encode.part.0+0x458>
   10680:	00179713          	slli	a4,a5,0x1
   10684:	01070713          	addi	a4,a4,16
   10688:	c2e5fee3          	bgeu	a1,a4,102c4 <uf8_encode.part.0+0x74>
   1068c:	00000613          	li	a2,0
   10690:	f71ff06f          	j	10600 <uf8_encode.part.0+0x3b0>
   10694:	00179713          	slli	a4,a5,0x1
   10698:	00168613          	addi	a2,a3,1
   1069c:	01070713          	addi	a4,a4,16
   106a0:	0ff67613          	zext.b	a2,a2
   106a4:	10e5e663          	bltu	a1,a4,107b0 <uf8_encode.part.0+0x560>
   106a8:	00171793          	slli	a5,a4,0x1
   106ac:	01078793          	addi	a5,a5,16
   106b0:	02f5ea63          	bltu	a1,a5,106e4 <uf8_encode.part.0+0x494>
   106b4:	00268613          	addi	a2,a3,2
   106b8:	0ff67613          	zext.b	a2,a2
   106bc:	00f00513          	li	a0,15
   106c0:	d2a60ee3          	beq	a2,a0,103fc <uf8_encode.part.0+0x1ac>
   106c4:	00179713          	slli	a4,a5,0x1
   106c8:	01070713          	addi	a4,a4,16
   106cc:	f2e5eae3          	bltu	a1,a4,10600 <uf8_encode.part.0+0x3b0>
   106d0:	00368613          	addi	a2,a3,3
   106d4:	0ff67613          	zext.b	a2,a2
   106d8:	c0a616e3          	bne	a2,a0,102e4 <uf8_encode.part.0+0x94>
   106dc:	00070793          	mv	a5,a4
   106e0:	d1dff06f          	j	103fc <uf8_encode.part.0+0x1ac>
   106e4:	00070793          	mv	a5,a4
   106e8:	f19ff06f          	j	10600 <uf8_encode.part.0+0x3b0>
   106ec:	00068613          	mv	a2,a3
   106f0:	00050793          	mv	a5,a0
   106f4:	f0dff06f          	j	10600 <uf8_encode.part.0+0x3b0>
   106f8:	00f00693          	li	a3,15
   106fc:	00000613          	li	a2,0
   10700:	00000793          	li	a5,0
   10704:	eeb6fee3          	bgeu	a3,a1,10600 <uf8_encode.part.0+0x3b0>
   10708:	02f00793          	li	a5,47
   1070c:	0eb7f463          	bgeu	a5,a1,107f4 <uf8_encode.part.0+0x5a4>
   10710:	00070693          	mv	a3,a4
   10714:	00200613          	li	a2,2
   10718:	03000713          	li	a4,48
   1071c:	f8dff06f          	j	106a8 <uf8_encode.part.0+0x458>
   10720:	7f000513          	li	a0,2032
   10724:	f19ff06f          	j	1063c <uf8_encode.part.0+0x3ec>
   10728:	00050793          	mv	a5,a0
   1072c:	00e00613          	li	a2,14
   10730:	ed1ff06f          	j	10600 <uf8_encode.part.0+0x3b0>
   10734:	07000513          	li	a0,112
   10738:	f05ff06f          	j	1063c <uf8_encode.part.0+0x3ec>
   1073c:	00200613          	li	a2,2
   10740:	ec1ff06f          	j	10600 <uf8_encode.part.0+0x3b0>
   10744:	0f000513          	li	a0,240
   10748:	ef5ff06f          	j	1063c <uf8_encode.part.0+0x3ec>
   1074c:	1f000513          	li	a0,496
   10750:	eedff06f          	j	1063c <uf8_encode.part.0+0x3ec>
   10754:	00070793          	mv	a5,a4
   10758:	00100613          	li	a2,1
   1075c:	ea5ff06f          	j	10600 <uf8_encode.part.0+0x3b0>
   10760:	3f000513          	li	a0,1008
   10764:	ed9ff06f          	j	1063c <uf8_encode.part.0+0x3ec>
   10768:	00001537          	lui	a0,0x1
   1076c:	ff050513          	addi	a0,a0,-16 # ff0 <_start-0xf010>
   10770:	ecdff06f          	j	1063c <uf8_encode.part.0+0x3ec>
   10774:	00002537          	lui	a0,0x2
   10778:	ff050513          	addi	a0,a0,-16 # 1ff0 <_start-0xe010>
   1077c:	ec1ff06f          	j	1063c <uf8_encode.part.0+0x3ec>
   10780:	00004537          	lui	a0,0x4
   10784:	ff050513          	addi	a0,a0,-16 # 3ff0 <_start-0xc010>
   10788:	eb5ff06f          	j	1063c <uf8_encode.part.0+0x3ec>
   1078c:	00008537          	lui	a0,0x8
   10790:	ff050513          	addi	a0,a0,-16 # 7ff0 <_start-0x8010>
   10794:	ea9ff06f          	j	1063c <uf8_encode.part.0+0x3ec>
   10798:	00010537          	lui	a0,0x10
   1079c:	ff050513          	addi	a0,a0,-16 # fff0 <_start-0x10>
   107a0:	e9dff06f          	j	1063c <uf8_encode.part.0+0x3ec>
   107a4:	00020537          	lui	a0,0x20
   107a8:	ff050513          	addi	a0,a0,-16 # 1fff0 <__stack_top+0xe370>
   107ac:	e91ff06f          	j	1063c <uf8_encode.part.0+0x3ec>
   107b0:	00068613          	mv	a2,a3
   107b4:	e4dff06f          	j	10600 <uf8_encode.part.0+0x3b0>
   107b8:	00179713          	slli	a4,a5,0x1
   107bc:	01070713          	addi	a4,a4,16
   107c0:	ece5e6e3          	bltu	a1,a4,1068c <uf8_encode.part.0+0x43c>
   107c4:	00100613          	li	a2,1
   107c8:	01000793          	li	a5,16
   107cc:	e35ff06f          	j	10600 <uf8_encode.part.0+0x3b0>
   107d0:	00179713          	slli	a4,a5,0x1
   107d4:	01070713          	addi	a4,a4,16
   107d8:	f8e5e0e3          	bltu	a1,a4,10758 <uf8_encode.part.0+0x508>
   107dc:	00200613          	li	a2,2
   107e0:	01000793          	li	a5,16
   107e4:	e1dff06f          	j	10600 <uf8_encode.part.0+0x3b0>
   107e8:	000807b7          	lui	a5,0x80
   107ec:	ff078793          	addi	a5,a5,-16 # 7fff0 <__stack_top+0x6e370>
   107f0:	c0dff06f          	j	103fc <uf8_encode.part.0+0x1ac>
   107f4:	00070613          	mv	a2,a4
   107f8:	01000793          	li	a5,16
   107fc:	e05ff06f          	j	10600 <uf8_encode.part.0+0x3b0>

00010800 <uf8_decode>:
   10800:	00455693          	srli	a3,a0,0x4
   10804:	00f00713          	li	a4,15
   10808:	000087b7          	lui	a5,0x8
   1080c:	40d70733          	sub	a4,a4,a3
   10810:	fff78793          	addi	a5,a5,-1 # 7fff <_start-0x8001>
   10814:	40e7d7b3          	sra	a5,a5,a4
   10818:	00f57513          	andi	a0,a0,15
   1081c:	00d51533          	sll	a0,a0,a3
   10820:	00479793          	slli	a5,a5,0x4
   10824:	00a78533          	add	a0,a5,a0
   10828:	00008067          	ret

0001082c <uf8_encode>:
   1082c:	00f00713          	li	a4,15
   10830:	00a77463          	bgeu	a4,a0,10838 <uf8_encode+0xc>
   10834:	a1dff06f          	j	10250 <uf8_encode.part.0>
   10838:	0ff57513          	zext.b	a0,a0
   1083c:	00008067          	ret

00010840 <hw1_B_main>:
   10840:	fd010113          	addi	sp,sp,-48
   10844:	01412c23          	sw	s4,24(sp)
   10848:	00008a37          	lui	s4,0x8
   1084c:	02912223          	sw	s1,36(sp)
   10850:	03212023          	sw	s2,32(sp)
   10854:	01312e23          	sw	s3,28(sp)
   10858:	01512a23          	sw	s5,20(sp)
   1085c:	01612823          	sw	s6,16(sp)
   10860:	01712623          	sw	s7,12(sp)
   10864:	01812423          	sw	s8,8(sp)
   10868:	02112623          	sw	ra,44(sp)
   1086c:	02812423          	sw	s0,40(sp)
   10870:	01912223          	sw	s9,4(sp)
   10874:	fffa0a13          	addi	s4,s4,-1 # 7fff <_start-0x8001>
   10878:	00100b13          	li	s6,1
   1087c:	fff00913          	li	s2,-1
   10880:	00000493          	li	s1,0
   10884:	00f00993          	li	s3,15
   10888:	10000a93          	li	s5,256
   1088c:	00011c37          	lui	s8,0x11
   10890:	00011bb7          	lui	s7,0x11
   10894:	0ff4fc93          	zext.b	s9,s1
   10898:	004cd713          	srli	a4,s9,0x4
   1089c:	40e98433          	sub	s0,s3,a4
   108a0:	408a5433          	sra	s0,s4,s0
   108a4:	00fcf793          	andi	a5,s9,15
   108a8:	00441413          	slli	s0,s0,0x4
   108ac:	00e797b3          	sll	a5,a5,a4
   108b0:	00f40433          	add	s0,s0,a5
   108b4:	00040513          	mv	a0,s0
   108b8:	0689fa63          	bgeu	s3,s0,1092c <hw1_B_main+0xec>
   108bc:	995ff0ef          	jal	10250 <uf8_encode.part.0>
   108c0:	00050693          	mv	a3,a0
   108c4:	01950c63          	beq	a0,s9,108dc <hw1_B_main+0x9c>
   108c8:	00040613          	mv	a2,s0
   108cc:	00048593          	mv	a1,s1
   108d0:	c04b8513          	addi	a0,s7,-1020 # 10c04 <main+0x290>
   108d4:	8e5ff0ef          	jal	101b8 <printf>
   108d8:	00000b13          	li	s6,0
   108dc:	06895463          	bge	s2,s0,10944 <hw1_B_main+0x104>
   108e0:	00148493          	addi	s1,s1,1
   108e4:	01548663          	beq	s1,s5,108f0 <hw1_B_main+0xb0>
   108e8:	00040913          	mv	s2,s0
   108ec:	fa9ff06f          	j	10894 <hw1_B_main+0x54>
   108f0:	00100513          	li	a0,1
   108f4:	060b1663          	bnez	s6,10960 <hw1_B_main+0x120>
   108f8:	02c12083          	lw	ra,44(sp)
   108fc:	02812403          	lw	s0,40(sp)
   10900:	02412483          	lw	s1,36(sp)
   10904:	02012903          	lw	s2,32(sp)
   10908:	01c12983          	lw	s3,28(sp)
   1090c:	01812a03          	lw	s4,24(sp)
   10910:	01412a83          	lw	s5,20(sp)
   10914:	01012b03          	lw	s6,16(sp)
   10918:	00c12b83          	lw	s7,12(sp)
   1091c:	00812c03          	lw	s8,8(sp)
   10920:	00412c83          	lw	s9,4(sp)
   10924:	03010113          	addi	sp,sp,48
   10928:	00008067          	ret
   1092c:	0ff47693          	zext.b	a3,s0
   10930:	f9969ce3          	bne	a3,s9,108c8 <hw1_B_main+0x88>
   10934:	00895863          	bge	s2,s0,10944 <hw1_B_main+0x104>
   10938:	00148493          	addi	s1,s1,1
   1093c:	00040913          	mv	s2,s0
   10940:	f55ff06f          	j	10894 <hw1_B_main+0x54>
   10944:	00090693          	mv	a3,s2
   10948:	00040613          	mv	a2,s0
   1094c:	00048593          	mv	a1,s1
   10950:	c38c0513          	addi	a0,s8,-968 # 10c38 <main+0x2c4>
   10954:	865ff0ef          	jal	101b8 <printf>
   10958:	00000b13          	li	s6,0
   1095c:	f85ff06f          	j	108e0 <hw1_B_main+0xa0>
   10960:	00011537          	lui	a0,0x11
   10964:	c6050513          	addi	a0,a0,-928 # 10c60 <main+0x2ec>
   10968:	fd8ff0ef          	jal	10140 <puts>
   1096c:	00000513          	li	a0,0
   10970:	f89ff06f          	j	108f8 <hw1_B_main+0xb8>

Disassembly of section .text.startup:

00010974 <main>:
   10974:	000117b7          	lui	a5,0x11
   10978:	bbc78793          	addi	a5,a5,-1092 # 10bbc <main+0x248>
   1097c:	0007a803          	lw	a6,0(a5)
   10980:	0047a503          	lw	a0,4(a5)
   10984:	0087a583          	lw	a1,8(a5)
   10988:	00c7a603          	lw	a2,12(a5)
   1098c:	0107a683          	lw	a3,16(a5)
   10990:	0147a703          	lw	a4,20(a5)
   10994:	0187d783          	lhu	a5,24(a5)
   10998:	fb010113          	addi	sp,sp,-80
   1099c:	04812423          	sw	s0,72(sp)
   109a0:	02f11623          	sh	a5,44(sp)
   109a4:	04112623          	sw	ra,76(sp)
   109a8:	05212223          	sw	s2,68(sp)
   109ac:	05312023          	sw	s3,64(sp)
   109b0:	03412e23          	sw	s4,60(sp)
   109b4:	03512c23          	sw	s5,56(sp)
   109b8:	01012a23          	sw	a6,20(sp)
   109bc:	00a12c23          	sw	a0,24(sp)
   109c0:	00b12e23          	sw	a1,28(sp)
   109c4:	02c12023          	sw	a2,32(sp)
   109c8:	02d12223          	sw	a3,36(sp)
   109cc:	02e12423          	sw	a4,40(sp)
   109d0:	01410413          	addi	s0,sp,20
   109d4:	01900793          	li	a5,25
   109d8:	04000893          	li	a7,64
   109dc:	00100513          	li	a0,1
   109e0:	008005b3          	add	a1,zero,s0
   109e4:	00078613          	mv	a2,a5
   109e8:	00000073          	ecall
   109ec:	83dff0ef          	jal	10228 <get_cycles>
   109f0:	00a12023          	sw	a0,0(sp)
   109f4:	00b12223          	sw	a1,4(sp)
   109f8:	e49ff0ef          	jal	10840 <hw1_B_main>
   109fc:	82dff0ef          	jal	10228 <get_cycles>
   10a00:	000117b7          	lui	a5,0x11
   10a04:	bd878793          	addi	a5,a5,-1064 # 10bd8 <main+0x264>
   10a08:	0007ae03          	lw	t3,0(a5)
   10a0c:	0047a303          	lw	t1,4(a5)
   10a10:	0087a883          	lw	a7,8(a5)
   10a14:	00c7a803          	lw	a6,12(a5)
   10a18:	0107a603          	lw	a2,16(a5)
   10a1c:	0147a683          	lw	a3,20(a5)
   10a20:	0187d703          	lhu	a4,24(a5)
   10a24:	01a7c783          	lbu	a5,26(a5)
   10a28:	00a12423          	sw	a0,8(sp)
   10a2c:	00b12623          	sw	a1,12(sp)
   10a30:	02f10723          	sb	a5,46(sp)
   10a34:	01c12a23          	sw	t3,20(sp)
   10a38:	00612c23          	sw	t1,24(sp)
   10a3c:	01112e23          	sw	a7,28(sp)
   10a40:	03012023          	sw	a6,32(sp)
   10a44:	02c12223          	sw	a2,36(sp)
   10a48:	02d12423          	sw	a3,40(sp)
   10a4c:	02e11623          	sh	a4,44(sp)
   10a50:	01a00793          	li	a5,26
   10a54:	04000893          	li	a7,64
   10a58:	00100513          	li	a0,1
   10a5c:	008005b3          	add	a1,zero,s0
   10a60:	00078613          	mv	a2,a5
   10a64:	00000073          	ecall
   10a68:	000117b7          	lui	a5,0x11
   10a6c:	bf478793          	addi	a5,a5,-1036 # 10bf4 <main+0x280>
   10a70:	0007a583          	lw	a1,0(a5)
   10a74:	0047a603          	lw	a2,4(a5)
   10a78:	0087a683          	lw	a3,8(a5)
   10a7c:	00c7d703          	lhu	a4,12(a5)
   10a80:	00e7c783          	lbu	a5,14(a5)
   10a84:	00b12a23          	sw	a1,20(sp)
   10a88:	00c12c23          	sw	a2,24(sp)
   10a8c:	02f10123          	sb	a5,34(sp)
   10a90:	00d12e23          	sw	a3,28(sp)
   10a94:	02e11023          	sh	a4,32(sp)
   10a98:	00e00793          	li	a5,14
   10a9c:	04000893          	li	a7,64
   10aa0:	00100513          	li	a0,1
   10aa4:	008005b3          	add	a1,zero,s0
   10aa8:	00078613          	mv	a2,a5
   10aac:	00000073          	ecall
   10ab0:	00812603          	lw	a2,8(sp)
   10ab4:	00c12683          	lw	a3,12(sp)
   10ab8:	00012703          	lw	a4,0(sp)
   10abc:	00412783          	lw	a5,4(sp)
   10ac0:	40e60533          	sub	a0,a2,a4
   10ac4:	06e61a63          	bne	a2,a4,10b38 <main+0x1c4>
   10ac8:	03000793          	li	a5,48
   10acc:	02f10323          	sb	a5,38(sp)
   10ad0:	02510613          	addi	a2,sp,37
   10ad4:	00160793          	addi	a5,a2,1
   10ad8:	02710713          	addi	a4,sp,39
   10adc:	40f70733          	sub	a4,a4,a5
   10ae0:	04000893          	li	a7,64
   10ae4:	00100513          	li	a0,1
   10ae8:	00f005b3          	add	a1,zero,a5
   10aec:	00070613          	mv	a2,a4
   10af0:	00000073          	ecall
   10af4:	00a00793          	li	a5,10
   10af8:	00f11a23          	sh	a5,20(sp)
   10afc:	00100793          	li	a5,1
   10b00:	04000893          	li	a7,64
   10b04:	00100513          	li	a0,1
   10b08:	008005b3          	add	a1,zero,s0
   10b0c:	00078613          	mv	a2,a5
   10b10:	00000073          	ecall
   10b14:	04c12083          	lw	ra,76(sp)
   10b18:	04812403          	lw	s0,72(sp)
   10b1c:	04412903          	lw	s2,68(sp)
   10b20:	04012983          	lw	s3,64(sp)
   10b24:	03c12a03          	lw	s4,60(sp)
   10b28:	03812a83          	lw	s5,56(sp)
   10b2c:	00000513          	li	a0,0
   10b30:	05010113          	addi	sp,sp,80
   10b34:	00008067          	ret
   10b38:	02610613          	addi	a2,sp,38
   10b3c:	00900893          	li	a7,9
   10b40:	fff00813          	li	a6,-1
   10b44:	00100313          	li	t1,1
   10b48:	01f00713          	li	a4,31
   10b4c:	00000793          	li	a5,0
   10b50:	00e556b3          	srl	a3,a0,a4
   10b54:	00179793          	slli	a5,a5,0x1
   10b58:	0016f693          	andi	a3,a3,1
   10b5c:	00f6e7b3          	or	a5,a3,a5
   10b60:	fff70713          	addi	a4,a4,-1
   10b64:	00f8f463          	bgeu	a7,a5,10b6c <main+0x1f8>
   10b68:	ff678793          	addi	a5,a5,-10
   10b6c:	ff0712e3          	bne	a4,a6,10b50 <main+0x1dc>
   10b70:	03078793          	addi	a5,a5,48
   10b74:	00f60023          	sb	a5,0(a2)
   10b78:	01f00593          	li	a1,31
   10b7c:	00000793          	li	a5,0
   10b80:	fff60613          	addi	a2,a2,-1
   10b84:	00000713          	li	a4,0
   10b88:	00b556b3          	srl	a3,a0,a1
   10b8c:	0016f693          	andi	a3,a3,1
   10b90:	00171713          	slli	a4,a4,0x1
   10b94:	00e6e733          	or	a4,a3,a4
   10b98:	00b316b3          	sll	a3,t1,a1
   10b9c:	fff58593          	addi	a1,a1,-1
   10ba0:	00e8f663          	bgeu	a7,a4,10bac <main+0x238>
   10ba4:	ff670713          	addi	a4,a4,-10
   10ba8:	00d7e7b3          	or	a5,a5,a3
   10bac:	fd059ee3          	bne	a1,a6,10b88 <main+0x214>
   10bb0:	f20782e3          	beqz	a5,10ad4 <main+0x160>
   10bb4:	00078513          	mv	a0,a5
   10bb8:	f91ff06f          	j	10b48 <main+0x1d4>
