
test.elf:     file format elf32-littleriscv

Contents of section .text:
 10000 17210000 13010135 97120000 9382e233  .!.....5.......3
 10010 17130000 13036333 63d86200 23a00200  ......c3c.b.#...
 10020 93824200 6ff05fff ef004050 9308d005  ..B.o._...@P....
 10030 13050000 73000000 6f000000 130101fd  ....s...o.......
 10040 23261102 23248102 13040103 232ea4fc  #&..#$......#...
 10050 232cb4fc 232ac4fc 8327c4fd 2326f4fe  #,..#*...'..#&..
 10060 832784fd 2324f4fe 6f004002 032784fe  .'..#$..o.@..'..
 10070 93071700 2324f4fe 8327c4fe 93861700  ....#$...'......
 10080 2326d4fe 03470700 2380e700 832744fd  #&...G..#....'D.
 10090 1387f7ff 232ae4fc e39a07fc 8327c4fd  ....#*.......'..
 100a0 13850700 8320c102 03248102 13010103  ..... ...$......
 100b0 67800000 130101fd 23261102 23248102  g.......#&..#$..
 100c0 13040103 232ea4fc 232cb4fc 832784fd  ....#...#,...'..
 100d0 63960700 93070000 6f00c008 232604fe  c.......o...#&..
 100e0 232404fe 9307f001 2322f4fe 6f00c006  #$......#"..o...
 100f0 832784fe 93971700 2324f4fe 832744fe  .'......#$...'D.
 10100 0327c4fd b357f700 93f71700 032784fe  .'...W.......'..
 10110 b367f700 2324f4fe 032784fe 832784fd  .g..#$...'...'..
 10120 6366f702 032784fe 832784fd b307f740  cf...'...'.....@
 10130 2324f4fe 832744fe 13071000 b317f700  #$...'D.........
 10140 0327c4fe b367f700 2326f4fe 832744fe  .'...g..#&...'D.
 10150 9387f7ff 2322f4fe 832744fe e3da07f8  ....#"...'D.....
 10160 8327c4fe 13850700 8320c102 03248102  .'....... ...$..
 10170 13010103 67800000 130101fd 23261102  ....g.......#&..
 10180 23248102 13040103 232ea4fc 232cb4fc  #$......#...#,..
 10190 832784fd 63960700 93070000 6f000007  .'..c.......o...
 101a0 232604fe 9307f001 2324f4fe 6f004005  #&......#$..o.@.
 101b0 8327c4fe 93971700 2326f4fe 832784fe  .'......#&...'..
 101c0 0327c4fd b357f700 93f71700 0327c4fe  .'...W.......'..
 101d0 b367f700 2326f4fe 0327c4fe 832784fd  .g..#&...'...'..
 101e0 636af700 0327c4fe 832784fd b307f740  cj...'...'.....@
 101f0 2326f4fe 832784fe 9387f7ff 2324f4fe  #&...'......#$..
 10200 832784fe e3d607fa 8327c4fe 13850700  .'.......'......
 10210 8320c102 03248102 13010103 67800000  . ...$......g...
 10220 130101fd 23261102 23248102 13040103  ....#&..#$......
 10230 232ea4fc 232cb4fc 232604fe 6f008003  #...#,..#&..o...
 10240 832784fd 93f71700 638a0700 0327c4fe  .'......c....'..
 10250 8327c4fd b307f700 2326f4fe 8327c4fd  .'......#&...'..
 10260 93971700 232ef4fc 832784fd 93d71700  ....#....'......
 10270 232cf4fc 832784fd e39407fc 8327c4fe  #,...'.......'..
 10280 13850700 8320c102 03248102 13010103  ..... ...$......
 10290 67800000 130101fe 232e1100 232c8100  g.......#...#,..
 102a0 13040102 2326a4fe 2324b4fe 832584fe  ....#&..#$...%..
 102b0 0325c4fe eff0dff6 93070500 13850700  .%..............
 102c0 8320c101 03248101 13010102 67800000  . ...$......g...
 102d0 130101fc 232e1102 232c8102 13040104  ....#...#,......
 102e0 2326a4fc 930784fd 93873701 2326f4fe  #&........7.#&..
 102f0 8327c4fe 9387f7ff 2326f4fe 8327c4fc  .'......#&...'..
 10300 63900706 8327c4fe 13070003 2380e700  c....'......#...
 10310 8327c4fe 9387f7ff 2326f4fe 6f00c004  .'......#&..o...
 10320 9305a000 0325c4fc eff01fe5 93070500  .....%..........
 10330 93f7f70f 93870703 13f7f70f 8327c4fe  .............'..
 10340 2380e700 8327c4fe 9387f7ff 2326f4fe  #....'......#&..
 10350 9305a000 0325c4fc eff0dfd5 2326a4fc  .....%......#&..
 10360 8327c4fc e39e07fa 8327c4fe 93871700  .'.......'......
 10370 2326f4fe 930784fd 93873701 0327c4fe  #&........7..'..
 10380 3387e740 8327c4fe 93080004 13051000  3..@.'..........
 10390 b305f000 13060700 73000000 13000000  ........s.......
 103a0 8320c103 03248103 13010104 67800000  . ...$......g...
 103b0 130101fe 232e1100 232c8100 13040102  ....#...#,......
 103c0 93070500 a307f4fe 9307f4fe 13071000  ................
 103d0 93080004 13051000 b305f000 13060700  ................
 103e0 73000000 13000000 8320c101 03248101  s........ ...$..
 103f0 13010102 67800000 130101fd 23261102  ....g.......#&..
 10400 23248102 13040103 232ea4fc 232604fe  #$......#...#&..
 10410 6f000001 8327c4fe 93871700 2326f4fe  o....'......#&..
 10420 8327c4fd 13871700 232ee4fc 83c70700  .'......#.......
 10430 e39207fe 8327c4fe 13850700 8320c102  .....'....... ..
 10440 03248102 13010103 67800000 130101fd  .$......g.......
 10450 23261102 23248102 13040103 232ea4fc  #&..#$......#...
 10460 0325c4fd eff05ff9 13070500 8327c4fd  .%...._......'..
 10470 93080004 13051000 b305f000 13060700  ................
 10480 73000000 9307a000 2316f4fe 9307c4fe  s.......#.......
 10490 13071000 93080004 13051000 b305f000  ................
 104a0 13060700 73000000 93070000 13850700  ....s...........
 104b0 8320c102 03248102 13010103 67800000  . ...$......g...
 104c0 130101fc 232e1100 232c8100 13040102  ....#...#,......
 104d0 2326a4fe 2322b400 2324c400 2326d400  #&..#"..#$..#&..
 104e0 2328e400 232af400 232c0401 232e1401  #(..#*..#,..#...
 104f0 0325c4fe eff05ff0 13070500 8327c4fe  .%...._......'..
 10500 93080004 13051000 b305f000 13060700  ................
 10510 73000000 93070000 13850700 8320c101  s............ ..
 10520 03248101 13010104 67800000 130101f6  .$......g.......
 10530 232e1108 232c8108 1304010a b7170100  #...#,..........
 10540 93874719 03a80700 03a54700 83a58700  ..G.......G.....
 10550 03a6c700 83a60701 03a74701 232a04fb  ..........G.#*..
 10560 232ca4fa 232eb4fa 2320c4fc 2322d4fc  #,..#...# ..#"..
 10570 2324e4fc 83d78701 2316f4fc 930744fb  #$......#.....D.
 10580 13079001 93080004 13051000 b305f000  ................
 10590 13060700 73000000 ef004068 13070500  ....s.....@h....
 105a0 93870500 2324e4fe 2326f4fe ef004068  ....#$..#&....@h
 105b0 13070500 93870500 232ce4fc 232ef4fc  ........#,..#...
 105c0 ef00d02a ef008065 13070500 93870500  ...*...e........
 105d0 2320e4fe 2322f4fe ef008065 13070500  # ..#".....e....
 105e0 93870500 2328e4fc 232af4fc b7170100  ....#(..#*......
 105f0 9387071b 03a80700 03a54700 83a58700  ..........G.....
 10600 03a6c700 83a60701 03a74701 232c04f9  ..........G.#,..
 10610 232ea4f8 2320b4fa 2322c4fa 2324d4fa  #...# ..#"..#$..
 10620 2326e4fa 03d78701 2318e4fa 83c7a701  #&......#.......
 10630 2309f4fa 930784f9 1307a001 93080004  #...............
 10640 13051000 b305f000 13060700 73000000  ............s...
 10650 b7170100 9387c71c 03a60700 83a64700  ..............G.
 10660 03a78700 2324c4f8 2326d4f8 2328e4f8  ....#$..#&..#(..
 10670 03d7c700 231ae4f8 83c7e700 230bf4f8  ....#.......#...
 10680 930784f8 1307e000 93080004 13051000  ................
 10690 b305f000 13060700 73000000 032704fe  ........s....'..
 106a0 832744fe 93060700 032784fe 8327c4fe  .'D......'...'..
 106b0 93070700 b387f640 13850700 eff05fc1  .......@......_.
 106c0 b7170100 9387c71d 03a50700 83a54700  ..............G.
 106d0 03a68700 83a6c700 03a70701 2328a4f6  ............#(..
 106e0 232ab4f6 232cc4f6 232ed4f6 2320e4f8  #*..#,..#...# ..
 106f0 83d74701 2312f4f8 930704f7 13075001  ..G.#.........P.
 10700 93080004 13051000 b305f000 13060700  ................
 10710 73000000 032704fd 832744fd 93060700  s....'...'D.....
 10720 032784fd 8327c4fd 93070700 b387f640  .'...'.........@
 10730 13850700 eff0dfb9 9307a000 2316f4f6  ............#...
 10740 9307c4f6 13071000 93080004 13051000  ................
 10750 b305f000 13060700 73000000 93070000  ........s.......
 10760 13850700 8320c109 03248109 1301010a  ..... ...$......
 10770 67800000 130101fd 23261102 23248102  g.......#&..#$..
 10780 13040103 232ea4fc 232604fe 6f004002  ....#...#&..o.@.
 10790 8327c4fd 9387f7ff 0327c4fd b377f700  .'.......'...w..
 107a0 232ef4fc 8327c4fe 93871700 2326f4fe  #....'......#&..
 107b0 8327c4fd e39e07fc 8327c4fe 13850700  .'.......'......
 107c0 8320c102 03248102 13010103 67800000  . ...$......g...
 107d0 130101fd 23261102 23248102 13040103  ....#&..#$......
 107e0 232ca4fc 232eb4fc 2328c4fc 232ad4fc  #,..#...#(..#*..
 107f0 13060000 93060000 2324c4fe 2326d4fe  ........#$..#&..
 10800 6f008009 832604fd 13f31600 832644fd  o....&.......&D.
 10810 93f30600 93060300 b3e67600 638a0602  ..........v.c...
 10820 032584fe 8325c4fe 032e84fd 832ec4fd  .%...%..........
 10830 3306c501 130f0600 333faf00 b386d501  3.......3?......
 10840 b305df00 93860500 2324c4fe 2326d4fe  ........#$..#&..
 10850 832684fd 93d6f601 0326c4fd 93171600  .&.......&......
 10860 b3e7f600 832684fd 13971600 232ce4fc  .....&......#,..
 10870 232ef4fc 832644fd 9396f601 032604fd  #....&D......&..
 10880 13581600 33e80601 832644fd 93d81600  .X..3....&D.....
 10890 232804fd 232a14fd 832604fd 032644fd  #(..#*...&...&D.
 108a0 b3e6c600 e39006f6 032784fe 8327c4fe  .........'...'..
 108b0 13050700 93850700 8320c102 03248102  ......... ...$..
 108c0 13010103 67800000 130101fb 23261104  ....g.......#&..
 108d0 23248104 23222105 23203105 232e4103  #$..#"!.# 1.#.A.
 108e0 232c5103 13040105 232ca4fa 232eb4fa  #,Q.....#,..#...
 108f0 2328c4fa 232ad4fa 832604fb 032644fb  #(..#*...&...&D.
 10900 b3e6c600 63980600 13070000 93070000  ....c...........
 10910 6f000017 13060000 93060000 232cc4fc  o...........#,..
 10920 232ed4fc 2328c4fc 232ad4fc 9306f003  #...#(..#*......
 10930 2326d4fc 6f00c013 832604fd 93d6f601  #&..o....&......
 10940 032644fd 93181600 b3e81601 832604fd  .&D..........&..
 10950 13981600 232804fd 232a14fd 8326c4fc  ....#(..#*...&..
 10960 938606fe 63ca0600 0326c4fb 3357d600  ....c....&..3W..
 10970 93070000 6f008003 8326c4fb 13961600  ....o....&......
 10980 9305f001 8326c4fc b386d540 b316d600  .....&.....@....
 10990 0326c4fc 832584fb 33d7c500 33e7e600  .&...%..3...3...
 109a0 8326c4fc 0326c4fb b357d600 137e1700  .&...&...W...~..
 109b0 93fe0700 832604fd 33efc601 832644fd  .....&..3....&D.
 109c0 b3efd601 2328e4fd 232af4fd 032644fb  ....#(..#*...&D.
 109d0 832644fd 63e8c608 032644fb 832644fd  .&D.c....&D..&D.
 109e0 6318d600 032604fb 832604fd 63ecc606  c....&...&..c...
 109f0 032504fd 832544fd 032a04fb 832a44fb  .%...%D..*...*D.
 10a00 33064541 93020600 b3325500 b3865541  3.EA.....2U...UA
 10a10 b3855640 93860500 2328c4fc 232ad4fc  ..V@....#(..#*..
 10a20 8326c4fc 938606fe 63ca0600 13061000  .&......c.......
 10a30 b313d600 13030000 6f004001 93030000  ........o.@.....
 10a40 8326c4fc 13061000 3313d600 832684fd  .&......3....&..
 10a50 33e96600 8326c4fd b3e97600 232c24fd  3.f..&....v.#,$.
 10a60 232e34fd 8326c4fc 9386f6ff 2326d4fc  #.4..&......#&..
 10a70 8326c4fc e3d206ec 032784fd 8327c4fd  .&.......'...'..
 10a80 13050700 93850700 8320c104 03248104  ......... ...$..
 10a90 03294104 83290104 032ac103 832a8103  .)A..)...*...*..
 10aa0 13010105 67800000 130101fd 23261102  ....g.......#&..
 10ab0 23248102 13040103 232ca4fc 232eb4fc  #$......#,..#...
 10ac0 2328c4fc 232ad4fc 832604fd 032644fd  #(..#*...&...&D.
 10ad0 b3e6c600 63980600 13070000 93070000  ....c...........
 10ae0 6f004012 13060000 93060000 2324c4fe  o.@.........#$..
 10af0 2326d4fe 9306f003 2322d4fe 6f00800f  #&......#"..o...
 10b00 832684fe 93d6f601 0326c4fe 93181600  .&.......&......
 10b10 b3e81601 832684fe 13981600 232404ff  .....&......#$..
 10b20 232614ff 832644fe 938606fe 63ca0600  #&...&D.....c...
 10b30 0326c4fd 3357d600 93070000 6f008003  .&..3W......o...
 10b40 8326c4fd 13961600 9305f001 832644fe  .&...........&D.
 10b50 b386d540 b316d600 032644fe 832584fd  ...@.....&D..%..
 10b60 33d7c500 33e7e600 832644fe 0326c4fd  3...3....&D..&..
 10b70 b357d600 13731700 93f30700 832684fe  .W...s.......&..
 10b80 33ee6600 8326c4fe b3ee7600 2324c4ff  3.f..&....v.#$..
 10b90 2326d4ff 032644fd 8326c4fe 63e6c604  #&...&D..&..c...
 10ba0 032644fd 8326c4fe 6318d600 032604fd  .&D..&..c....&..
 10bb0 832684fe 63eac602 032584fe 8325c4fe  .&..c....%...%..
 10bc0 032f04fd 832f44fd 3306e541 93020600  ./.../D.3..A....
 10bd0 b3325500 b386f541 b3855640 93860500  .2U....A..V@....
 10be0 2324c4fe 2326d4fe 832644fe 9386f6ff  #$..#&...&D.....
 10bf0 2322d4fe 832644fe e3d406f0 032784fe  #"...&D......'..
 10c00 8327c4fe 13050700 93850700 8320c102  .'........... ..
 10c10 03248102 13010103 67800000 f32500c8  .$......g....%..
 10c20 732500c0 732600c8 e39ac5fe 67800000  s%..s&......g...
 10c30 f32520c8 732520c0 732620c8 e39ac5fe  .% .s% .s& .....
 10c40 67800000 130101fd 23261102 23248102  g.......#&..#$..
 10c50 13040103 232ea4fc 8327c4fd 63960700  ....#....'..c...
 10c60 93070002 6f000003 232604fe 6f00c001  ....o...#&..o...
 10c70 8327c4fe 93871700 2326f4fe 8327c4fd  .'......#&...'..
 10c80 93971700 232ef4fc 8327c4fd e3d207fe  ....#....'......
 10c90 8327c4fe 13850700 8320c102 03248102  .'....... ...$..
 10ca0 13010103 67800000 130101fc 232e1102  ....g.......#...
 10cb0 232c8102 13040104 2326a4fc 2324b4fc  #,......#&..#$..
 10cc0 8327c4fc 93d70701 2326f4fe 8327c4fc  .'......#&...'..
 10cd0 93970701 93d70701 2324f4fe 832784fc  ........#$...'..
 10ce0 93d70701 2322f4fe 832784fc 93970701  ....#"...'......
 10cf0 93d70701 2320f4fe 0327c4fe 832744fe  ....# ...'...'D.
 10d00 b307f702 232ef4fc 0327c4fe 832704fe  ....#....'...'..
 10d10 3307f702 832684fe 832744fe b387f602  3....&...'D.....
 10d20 b307f700 232cf4fc 032784fe 832704fe  ....#,...'...'..
 10d30 b307f702 232af4fc 8327c4fd 13970701  ....#*...'......
 10d40 832784fd 3307f700 832744fd 93d70701  .'..3....'D.....
 10d50 b307f700 13850700 8320c103 03248103  ......... ...$..
 10d60 13010104 67800000 130101fc 232e1102  ....g.......#...
 10d70 232c8102 13040104 2326a4fc 2324b4fc  #,......#&..#$..
 10d80 8325c4fc 0325c4fc eff01ff2 2326a4fe  .%...%......#&..
 10d90 8325c4fe 032584fc eff01ff1 2324a4fe  .%...%......#$..
 10da0 832784fe 93d71700 2322f4fe b7870100  .'......#"......
 10db0 2320f4fe 032704fe 832744fe 63fae700  # ...'...'D.c...
 10dc0 032704fe 832744fe b307f740 6f008000  .'...'D....@o...
 10dd0 93070000 232ef4fc 8325c4fd 0325c4fc  ....#....%...%..
 10de0 eff09fec 93070500 13850700 8320c103  ............. ..
 10df0 03248103 13010104 67800000 130101fc  .$......g.......
 10e00 232e1102 232c8102 13040104 2326a4fc  #...#,......#&..
 10e10 8327c4fc 63960700 9307f0ff 6f004011  .'..c.......o.@.
 10e20 0325c4fc eff01fe2 13070500 9307f001  .%..............
 10e30 b387e740 2326f4fe b7170100 1387471f  ...@#&........G.
 10e40 8327c4fe 93972700 b307f700 83a70700  .'....'.........
 10e50 2324f4fe 0327c4fe 9307e001 63c2e702  #$...'......c...
 10e60 8327c4fe 93871700 37170100 1307471f  .'......7.....G.
 10e70 93972700 b307f700 83a70700 6f008000  ..'.........o...
 10e80 93070000 2322f4fe 032784fe 832744fe  ....#"...'...'D.
 10e90 b307f740 2320f4fe 8327c4fe 13071000  ...@# ...'......
 10ea0 b317f700 232ef4fc 0327c4fc 8327c4fd  ....#....'...'..
 10eb0 b307f740 232cf4fc 0327c4fe 93070001  ...@#,...'......
 10ec0 63cee700 13070001 8327c4fe b307f740  c........'.....@
 10ed0 032784fd b317f700 6f004001 8327c4fe  .'......o.@..'..
 10ee0 938707ff 032784fd b357f700 232af4fc  .....'...W..#*..
 10ef0 032704fe 832744fd b307f702 93d70701  .'...'D.........
 10f00 032784fe b307f740 2324f4fe 8325c4fc  .'.....@#$...%..
 10f10 032584fe eff05fe5 2324a4fe 8325c4fc  .%...._.#$...%..
 10f20 032584fe eff05fe4 2324a4fe 832784fe  .%...._.#$...'..
 10f30 13850700 8320c103 03248103 13010104  ..... ...$......
 10f40 67800000 130101fc 232e1102 232c8102  g.......#...#,..
 10f50 13040104 2326a4fc 2324b4fc 2322c4fc  ....#&..#$..#"..
 10f60 8327c4fc b387f702 2326f4fe 832784fc  .'......#&...'..
 10f70 b387f702 2324f4fe 832744fc b387f702  ....#$...'D.....
 10f80 2322f4fe 0327c4fe 832784fe b307f700  #"...'...'......
 10f90 032744fe b307f700 2320f4fe 832704fe  .'D.....# ...'..
 10fa0 63960700 93070000 6f000002 032504fe  c.......o....%..
 10fb0 eff0dfe4 232ea4fc 8325c4fd 032504fe  ....#....%...%..
 10fc0 eff09fce 93070500 13850700 8320c103  ............. ..
 10fd0 03248103 13010104 67800000 130101fe  .$......g.......
 10fe0 232e1100 232c8100 13040102 2326a4fe  #...#,......#&..
 10ff0 2324b4fe 2322c4fe b7170100 13854727  #$..#"........G'
 11000 eff00fcc b7170100 1385c727 eff04fcb  ...........'..O.
 11010 032544fe eff0cfab 832744fe 9387e7ff  .%D......'D.....
 11020 032784fe 6362f702 832744fe 93872700  .'..cb...'D...'.
 11030 032784fe 63eae700 b7170100 13858728  .'..c..........(
 11040 eff0cfc0 6f004001 b7170100 13850729  ....o.@........)
 11050 eff0cfbf 13000000 13000000 8320c101  ............. ..
 11060 03248101 13010102 67800000 130101ff  .$......g.......
 11070 23261100 23248100 13040101 b7170100  #&..#$..........
 11080 1385c729 eff08fbc 13051000 eff01fd7  ...)............
 11090 93070500 37060100 93850700 b7170100  ....7...........
 110a0 1385872b eff09ff3 13050001 eff01fd5  ...+............
 110b0 93070500 37460000 93850700 b7170100  ....7F..........
 110c0 1385472c eff09ff1 13050040 eff01fd3  ..G,.......@....
 110d0 13070500 b7170000 13860780 93050700  ................
 110e0 b7170100 1385072d eff05fef b7170100  .......-.._.....
 110f0 1385c72d eff08fb5 13060000 93054000  ...-..........@.
 11100 13053000 eff01fe4 93070500 13065000  ..0...........P.
 11110 93850700 b7170100 13850730 eff01fec  ...........0....
 11120 13060000 93050000 1305a000 eff09fe1  ................
 11130 93070500 1306a000 93850700 b7170100  ................
 11140 1385c730 eff09fe9 1306a000 9305a000  ...0............
 11150 1305a000 eff01fdf 93070500 13061001  ................
 11160 93850700 b7170100 1385c731 eff01fe7  ...........1....
 11170 b7170100 1385c732 eff04fad 93070000  .......2..O.....
 11180 13850700 8320c100 03248100 13010101  ..... ...$......
 11190 67800000                             g...            
Contents of section .rodata:
 11194 3d3d3d20 5b52756e 6e696e67 20717a33  === [Running qz3
 111a4 5f435d20 3d3d3d0a 0a000000 0a3d3d3d  _C] ===......===
 111b4 205b717a 335f4320 46696e69 73686564   [qz3_C Finished
 111c4 5d203d3d 3d0a0000 546f7461 6c204379  ] ===...Total Cy
 111d4 636c6573 3a200000 0a546f74 616c2049  cles: ...Total I
 111e4 6e737472 75637469 6f6e733a 20000000  nstructions: ...
 111f4 00000100 05b50000 00800000 825a0000  .............Z..
 11204 00400000 412d0000 00200000 a1160000  .@..A-... ......
 11214 00100000 500b0000 00080000 a8050000  ....P...........
 11224 00040000 d4020000 00020000 6a010000  ............j...
 11234 00010000 b5000000 80000000 5a000000  ............Z...
 11244 40000000 2d000000 20000000 17000000  @...-... .......
 11254 10000000 0b000000 08000000 06000000  ................
 11264 04000000 03000000 02000000 01000000  ................
 11274 20676f74 207e2000 20657870 6563743d   got ~ . expect=
 11284 00000000 2077726f 6e672000 20636f72  .... wrong . cor
 11294 72656374 20000000 2d2d2d20 54657374  rect ...--- Test
 112a4 20666173 745f7273 71727428 7829202d   fast_rsqrt(x) -
 112b4 2d2d0000 72737172 74283129 00000000  --..rsqrt(1)....
 112c4 72737172 74283136 29000000 72737172  rsqrt(16)...rsqr
 112d4 74283130 32342900 0a2d2d2d 20546573  t(1024)..--- Tes
 112e4 74206661 73745f64 69737461 6e63655f  t fast_distance_
 112f4 33642829 202d2d2d 00000000 64697374  3d() ---....dist
 11304 28332c34 2c302900 64697374 2831302c  (3,4,0).dist(10,
 11314 302c3029 00000000 64697374 2831302c  0,0)....dist(10,
 11324 31302c31 30290000 0a3d3d3d 20416c6c  10,10)...=== All
 11334 20746573 74732070 61737365 64203d3d   tests passed ==
 11344 3d00                                 =.              
Contents of section .riscv.attributes:
 0000 41360000 00726973 63760001 2c000000  A6...riscv..,...
 0010 04100572 76333269 3270315f 6d327030  ...rv32i2p1_m2p0
 0020 5f7a6963 73723270 305f7a6d 6d756c31  _zicsr2p0_zmmul1
 0030 70300008 010a0b                      p0.....         
Contents of section .comment:
 0000 4743433a 20287850 61636b20 474e5520  GCC: (xPack GNU 
 0010 52495343 2d562045 6d626564 64656420  RISC-V Embedded 
 0020 47434320 61726d36 34292031 342e322e  GCC arm64) 14.2.
 0030 3000                                 0.              
Contents of section .debug_line:
 0000 71000000 02001b00 00000101 fb0e0a00  q...............
 0010 01010101 00000001 00737461 72742e53  .........start.S
 0020 00000000 00000502 00000100 16030309  ................
 0030 08000103 01090800 01030209 08000103  ................
 0040 01090400 01030109 04000103 01090400  ................
 0050 01030409 04000103 03090400 01030109  ................
 0060 04000103 01090400 01030409 04000109  ................
 0070 04000001 011d0600 00050004 00450000  .............E..
 0080 00010101 fb0e0d00 01010101 00000001  ................
 0090 00000101 011f0400 0000002d 00000072  ...........-...r
 00a0 000000b3 00000002 011f020f 05260000  .............&..
 00b0 00002600 000000ff 00000001 10010000  ..&.............
 00c0 021a0100 00030535 0005023c 00010003  .......5...<....
 00d0 1d01050e 0301091c 00010514 03010908  ................
 00e0 0001050b 03010908 00010512 03010904  ................
 00f0 0001050b 0300090c 00010510 0300090c  ................
 0100 0001050e 03000904 0001050d 037f0904  ................
 0110 0001050c 0300090c 00010302 09040001  ................
 0120 05010301 09040001 054a0302 09140001  .........J......
 0130 05080301 09180001 051e0002 04010300  ................
 0140 09080001 06030009 04000105 13060301  ................
 0150 09040001 05210300 09040001 050e0301  .....!..........
 0160 09040001 05050300 09080001 05130301  ................
 0170 09040001 05200301 090c0001 05260300  ..... .......&..
 0180 090c0001 05130300 09040001 050c0301  ................
 0190 090c0001 05170301 090c0001 051e0301  ................
 01a0 09100001 05160300 090c0001 051f0002  ................
 01b0 0402037b 090c0001 05180002 04010300  ...{............
 01c0 090c0001 050c0308 09080001 05010301  ................
 01d0 09040001 054a0301 09140001 05080301  .....J..........
 01e0 09180001 051e0002 04010300 09080001  ................
 01f0 06030009 04000105 13060301 09040001  ................
 0200 050e0301 09040001 05050300 09080001  ................
 0210 05130301 09040001 05200301 090c0001  ......... ......
 0220 05260300 090c0001 05130300 09040001  .&..............
 0230 050c0301 090c0001 05170301 090c0001  ................
 0240 051f0002 0402037c 09100001 05180002  .......|........
 0250 04010300 090c0001 050c0307 09080001  ................
 0260 05010301 09040001 052e0301 09140001  ................
 0270 050e0301 09180001 050b0301 09040001  ................
 0280 050f0301 09040001 050c0300 09080001  ................
 0290 051b0002 04010300 09040001 050b0301  ................
 02a0 09100001 0301090c 0001050c 037d090c  .............}..
 02b0 00010305 09080001 05010301 09040001  ................
 02c0 052b0301 09140001 050c0301 09180001  .+..............
 02d0 05010301 09100001 05230306 09140001  .........#......
 02e0 050b0302 09140001 05060301 090c0001  ................
 02f0 05080301 090c0001 050c0301 09080001  ................
 0300 050a0301 090c0001 05180303 09100001  ................
 0310 05160002 04010300 09100001 05100002  ................
 0320 04010300 090c0001 050e0301 09080001  ................
 0330 05130301 090c0001 0514037d 09100001  ...........}....
 0340 05060306 09080001 05050301 090c0001  ................
 0350 05010301 09280001 05190302 09140001  .....(..........
 0360 05050301 09180001 05010301 091c0001  ................
 0370 051e0306 09140001 050c0301 09140001  ................
 0380 050b0301 09040001 05170002 04020300  ................
 0390 09040001 050e0002 04010300 090c0001  ................
 03a0 050c0002 04010300 090c0001 03010908  ................
 03b0 00010501 03010904 00010519 03010914  ................
 03c0 00010505 03010914 00010002 04010603  ................
 03d0 00090c00 01060301 09180001 050c0301  ................
 03e0 09240001 05010301 09040001 05250302  .$...........%..
 03f0 09140001 05050301 09300001 00020401  .........0......
 0400 06030009 0c000105 0c060301 09180001  ................
 0410 05010301 09040001 05100309 09140001  ................
 0420 05050304 09100001 05140302 095c0001  .............\..
 0430 05120002 04010300 090c0001 05150301  ................
 0440 09080001 05130002 04010300 090c0001  ................
 0450 05050302 09080001 05120302 09040001  ................
 0460 05100002 04010300 090c0001 05130301  ................
 0470 09080001 05110002 04010300 090c0001  ................
 0480 05050303 09080001 03030964 00010301  ...........d....
 0490 094c0001 03030924 00010301 09540001  .L.....$.....T..
 04a0 03020924 0001050c 03020924 00010501  ...$.......$....
 04b0 03010904 0001051a 03060914 00010509  ................
 04c0 03010914 0001050b 03010904 00010511  ................
 04d0 03010904 0001050b 03000908 0001050e  ................
 04e0 0301090c 0001050c 037e090c 00010304  .........~......
 04f0 09080001 05010301 09040001 05490308  .............I..
 0500 09140001 05180301 09200001 050b0301  ......... ......
 0510 09100001 050f0301 09040001 050c0300  ................
 0520 09100001 05140301 090c0001 050b0301  ................
 0530 09300001 03010924 0001050c 037c0924  .0.....$.....|.$
 0540 00010306 09100001 05010301 09080001  ................
 0550 05570303 09180001 05080301 09300001  .W...........0..
 0560 05210002 04010300 09100001 06030009  .!..............
 0570 08000105 18060301 09040001 05260300  .............&..
 0580 09100001 050e0301 09080001 05050300  ................
 0590 09080001 05130301 09040001 05200301  ............. ..
 05a0 09240001 05260300 09500001 05130300  .$...&...P......
 05b0 09080001 050c0301 09180001 05170301  ................
 05c0 09240001 051f0301 09300001 05160300  .$.......0......
 05d0 092c0001 051f0002 0402037b 09180001  .,.........{....
 05e0 05180002 04010300 090c0001 050c0308  ................
 05f0 09080001 05010301 09080001 05570303  .............W..
 0600 09280001 05080301 09200001 05210002  .(....... ...!..
 0610 04010300 09100001 06030009 08000105  ................
 0620 18060301 09040001 050e0301 09100001  ................
 0630 05050300 09080001 05130301 09040001  ................
 0640 05200301 09240001 05260300 09500001  . ...$...&...P..
 0650 05130300 09080001 050c0301 09180001  ................
 0660 05170301 09240001 051f0002 0402037c  .....$.........|
 0670 09300001 05180002 04010300 090c0001  .0..............
 0680 050c0306 09080001 05010301 09080001  ................
 0690 09180000 01016b00 00000200 21000000  ......k.....!...
 06a0 0101fb0e 0a000101 01010000 00010070  ...............p
 06b0 65726663 6f756e74 65722e53 00000000  erfcounter.S....
 06c0 00000502 1c0c0100 17030109 04000103  ................
 06d0 01090400 01030109 04000103 01090400  ................
 06e0 01030809 04000103 01090400 01030109  ................
 06f0 04000103 01090400 01030109 04000109  ................
 0700 04000001 01fe0300 00050004 003c0000  .............<..
 0710 00010101 fb0e0d00 01010101 00000001  ................
 0720 00000101 011f0300 0000002d 00000072  ...........-...r
 0730 00000002 011f020f 04230100 00002301  .........#....#.
 0740 000000ff 00000001 10010000 02052300  ..............#.
 0750 0502440c 0100030a 01050803 01091400  ..D.............
 0760 01051800 02040103 00090800 01060300  ................
 0770 09040001 05090603 01090400 01050b03  ................
 0780 01090400 01052800 02040203 00090400  ......(.........
 0790 01052e00 02040203 00090c00 01051e00  ................
 07a0 02040103 00090c00 01050c03 01090800  ................
 07b0 01050103 01090400 01053103 0f091400  ..........1.....
 07c0 01050e03 01091800 01051e03 00090c00  ................
 07d0 01050e03 01091000 01051e03 00090c00  ................
 07e0 01050e03 02091000 01051903 01091000  ................
 07f0 01052703 00090c00 01050e03 00090c00  ..'.............
 0800 01030109 08000105 10030309 10000105  ................
 0810 17030009 08000105 23030009 08000105  ........#.......
 0820 1d030009 08000105 01030109 04000105  ................
 0830 35030509 14000105 13030109 18000105  5...............
 0840 14030109 10000105 0e030109 10000103  ................
 0850 01090c00 01053b03 01090800 01000204  ......;.........
 0860 01060300 090c0001 00020402 03000910  ................
 0870 0001050e 00020404 06030009 04000105  ................
 0880 0c030109 04000105 01030109 10000105  ................
 0890 21030509 14000105 08030109 14000105  !...............
 08a0 18000204 01030009 08000106 03000904  ................
 08b0 00010514 06030209 04000105 09000204  ................
 08c0 01030009 0c000105 0e030109 0c000105  ................
 08d0 39030109 1c000105 34000204 01030009  9.......4.......
 08e0 0c000105 39000204 01030009 08000100  ....9...........
 08f0 02040206 03000918 0001050e 00020404  ................
 0900 06030009 04000103 01090400 01030309  ................
 0910 10000103 01091000 01053803 01091000  ..........8.....
 0920 01053000 02040103 00090c00 01053800  ..0...........8.
 0930 02040103 00090c00 01054800 02040203  ..........H.....
 0940 00090c00 01053800 02040203 00090800  ......8.........
 0950 01050e00 02040403 00090800 01051103  ................
 0960 02090400 01051903 00090c00 01050703  ................
 0970 00090400 01050903 01090c00 01030109  ................
 0980 10000105 0c030109 10000105 01030109  ................
 0990 04000105 3f030509 14000105 21030109  ....?.......!...
 09a0 1c000105 0e030009 08000105 21030109  ............!...
 09b0 04000105 0e030009 08000105 21030109  ............!...
 09c0 04000105 0e030009 08000105 1b030109  ................
 09d0 04000105 0e030009 0c000105 08030209  ................
 09e0 0c000105 1e000204 01030009 08000106  ................
 09f0 03000904 00010514 06030109 04000105  ................
 0a00 0c030109 0c000105 01030109 10000105  ................
 0a10 4b030509 14000105 05030109 1c000103  K...............
 0a20 01090c00 01030109 0c000105 17030109  ................
 0a30 08000105 08030009 08000105 2c000204  ............,...
 0a40 01030009 08000105 1b000204 01030009  ................
 0a50 08000105 09030109 08000103 02091000  ................
 0a60 01050103 01090c00 01051603 02091800  ................
 0a70 01050503 01091000 01030109 0c000100  ................
 0a80 02040106 0300090c 00010603 01091400  ................
 0a90 01000204 01060300 090c0001 06030109  ................
 0aa0 14000100 02040106 0300090c 00010603  ................
 0ab0 02091800 01030109 0c000100 02040106  ................
 0ac0 03000914 00010603 01091400 01000204  ................
 0ad0 01060300 09140001 06030109 14000100  ................
 0ae0 02040106 03000914 00010603 02091400  ................
 0af0 01050c03 01090c00 01050103 01090400  ................
 0b00 01091400 000101                      .......         
Contents of section .debug_info:
 0000 31000000 02000000 00000401 00000000  1...............
 0010 00000100 3c000100 00000000 08000000  ....<...........
 0020 2e000000 0180023c 00000001 00000100  .......<........
 0030 40000100 00190600 00050001 04210000  @............!..
 0040 0011ab00 00001d26 00000000 0000003c  .......&.......<
 0050 000100e0 0b000075 00000003 01065401  .......u......T.
 0060 00000621 01000002 2b183900 00000301  ...!....+.9.....
 0070 08520100 00030205 75000000 0302078a  .R......u.......
 0080 01000003 04050301 00000690 00000002  ................
 0090 4f196100 00000304 076e0100 00030805  O.a......n......
 00a0 fe000000 06b90100 00026919 7b000000  ..........i.{...
 00b0 03080769 01000012 0405696e 74000304  ...i......int...
 00c0 07730100 00062301 00000318 132d0000  .s....#......-..
 00d0 00109000 00000692 00000003 30145500  ............0.U.
 00e0 000006bb 01000003 3c146f00 000013ad  ........<.o.....
 00f0 00000006 7f000000 04d61789 00000003  ................
 0100 10044601 00000ed8 0100007f 05820000  ..F.............
 0110 000e3501 00001c11 ad000000 0ef70100  ..5.............
 0120 001b11ad 00000007 2b010000 cd147b00  ........+.....{.
 0130 0000a80a 01007401 0000019c 4c010000  ......t.....L...
 0140 04600100 00cd317b 00000002 915804e8  .`....1{.....X..
 0150 010000cd 4e7b0000 00029150 016b0000  ....N{.....P.k..
 0160 00cf187b 00000002 916808f4 0a010008  ...{.....h......
 0170 01000005 6900d00e 82000000 02916400  ....i.........d.
 0180 00074300 0000be14 7b000000 c8080100  ..C.....{.......
 0190 e0010000 019cb601 00000460 010000be  ...........`....
 01a0 317b0000 000391b8 7f04e801 0000be4e  1{.............N
 01b0 7b000000 0391b07f 01a20000 00c0187b  {..............{
 01c0 00000002 9158016b 000000c0 267b0000  .....X.k....&{..
 01d0 00029150 082c0901 004c0100 00056900  ...P.,...L....i.
 01e0 c10e8200 00000291 4c000007 c9010000  ........L.......
 01f0 b2147b00 0000d007 0100f800 0000019c  ..{.............
 0200 f6010000 026100b2 307b0000 00029158  .....a..0{.....X
 0210 026200b2 467b0000 00029150 019e0200  .b..F{.....P....
 0220 00b3187b 00000002 91680007 4d000000  ...{.....h..M...
 0230 a3058200 00007407 01005c00 0000019c  ......t...\.....
 0240 2a020000 026e00a3 17820000 0002915c  *....n.........\
 0250 01d20100 00a40982 00000002 916c000c  .............l..
 0260 de010000 81058200 00002c05 01004802  ..........,...H.
 0270 0000019c 09030000 01f10000 008217b9  ................
 0280 00000002 91680102 02000082 25b90000  .....h......%...
 0290 00029160 010c0100 008317b9 00000002  ...`............
 02a0 9158019d 01000083 26b90000 00029150  .X......&......P
 02b0 0d3c0501 005c0000 00980200 0001c401  .<...\..........
 02c0 00008505 09030000 0391b47f 000dec05  ................
 02d0 01006400 0000b502 000001c4 01000090  ..d.............
 02e0 05250300 00039198 7f000d50 0601004c  .%.........P...L
 02f0 000000d2 02000001 c4010000 93053503  ..............5.
 0300 00000391 887f000d c0060100 54000000  ............T...
 0310 ef020000 01c40100 00970545 03000003  ...........E....
 0320 91f07e00 08380701 00240000 0001c401  ..~..8...$......
 0330 00009a05 55030000 0391ec7e 00000919  ....U......~....
 0340 03000019 0300000a 89000000 19000301  ................
 0350 085b0100 00101903 00000919 03000035  .[.............5
 0360 0300000a 89000000 1a000919 03000045  ...............E
 0370 0300000a 89000000 0e000919 03000055  ...............U
 0380 0300000a 89000000 15000919 03000065  ...............e
 0390 0300000a 89000000 01000c1a 01000075  ...............u
 03a0 05820000 00c00401 006c0000 00019c8e  .........l......
 03b0 03000004 f0010000 75188e03 00000291  ........u.......
 03c0 4c14000b 20030000 0c850100 006f0582  L... ........o..
 03d0 0000004c 04010074 00000001 9cd10300  ...L...t........
 03e0 00027300 6f168e03 00000291 5c088404  ..s.o.......\...
 03f0 01002400 000001c4 01000071 05550300  ..$........q.U..
 0400 0002916c 000007a9 0100006a 08be0000  ...l.......j....
 0410 00f80301 00540000 00019c05 04000002  .....T..........
 0420 73006a1b 8e030000 02915c01 d2010000  s.j.......\.....
 0430 6b0cbe00 00000291 6c001560 00000001  k.......l..`....
 0440 6206b003 01004800 0000019c 28040000  b.....H.....(...
 0450 02630062 16190300 0002916f 00168600  .c.b.......o....
 0460 00000150 06d00201 00e00000 00019c67  ...P...........g
 0470 04000002 76616c00 501e6100 00000291  ....val.P.a.....
 0480 4c056275 6600510a 67040000 02915805  L.buf.Q.g.....X.
 0490 7000520b 77040000 02916c00 09190300  p.R.w.....l.....
 04a0 00770400 000a8900 00001300 0b190300  .w..............
 04b0 000cb001 0000480a a1000000 94020100  ......H.........
 04c0 3c000000 019cae04 00000261 00481ca1  <..........a.H..
 04d0 00000002 916c0262 004828a1 00000002  .....l.b.H(.....
 04e0 9168000f 80010000 3f11a100 00002002  .h......?..... .
 04f0 01007400 0000019c ee040000 0261003f  ..t..........a.?
 0500 1fa10000 0002915c 0262003f 2ba10000  .......\.b.?+...
 0510 00029158 019e0200 00400ea1 00000002  ...X.....@......
 0520 916c000f e3010000 33166100 00007801  .l......3.a...x.
 0530 0100a800 0000019c 48050000 04600100  ........H....`..
 0540 00332961 00000002 915c04e8 01000033  .3)a.....\.....3
 0550 41610000 00029158 016b0000 00351361  Aa.....X.k...5.a
 0560 00000002 916c08a4 01010064 00000005  .....l.....d....
 0570 6900360e 82000000 02916800 000f4101  i.6.......h...A.
 0580 00002616 61000000 b4000100 c4000000  ..&.a...........
 0590 019cb005 00000460 01000026 29610000  .......`...&)a..
 05a0 0002915c 04e80100 00264161 00000002  ...\.....&Aa....
 05b0 915801a2 00000028 13610000 0002916c  .X.....(.a.....l
 05c0 016b0000 00282161 00000002 916808e4  .k...(!a.....h..
 05d0 0001007c 00000005 6900290e 82000000  ...|....i.).....
 05e0 02916400 00079b00 00001e07 0a060000  ..d.............
 05f0 3c000100 78000000 019c0a06 0000045b  <...x..........[
 0600 0000001e 140a0600 0002915c 02737263  ...........\.src
 0610 001e260c 06000002 9158026e 001e32be  ..&......X.n..2.
 0620 00000002 91540564 001f0e12 06000002  .....T.d........
 0630 916c0573 00201417 06000002 91680017  .l.s. .......h..
 0640 040b1106 0000180b 90000000 0b9c0000  ................
 0650 00002200 00000200 95010000 04019606  ..".............
 0660 00001c0c 0100440c 01000d02 00000800  ......D.........
 0670 00002e00 00000180 9f030000 05000104  ................
 0680 a9010000 0aab0000 001d2301 00000000  ..........#.....
 0690 0000440c 01005005 00000507 00000301  ..D...P.........
 06a0 06540100 00030108 52010000 03020575  .T......R......u
 06b0 00000003 02078a01 000005a5 02000002  ................
 06c0 4d184e00 00000304 05030100 00059000  M.N.............
 06d0 0000024f 19610000 00030407 6e010000  ...O.a......n...
 06e0 030805fe 00000003 08076901 00000b04  ..........i.....
 06f0 05696e74 00030407 73010000 05a70200  .int....s.......
 0700 00032c13 42000000 05920000 00033014  ..,.B.........0.
 0710 55000000 06900000 00031004 46010000  U...........F...
 0720 0c9c0000 00b80000 000d7d00 00001f00  ..........}.....
 0730 06a80000 00011b02 00001517 b8000000  ................
 0740 0503f411 01000e86 00000001 050de000  ................
 0750 00000761 00000000 0f1a0100 0001060c  ...a............
 0760 76000000 f7000000 07f70000 00100011  v...............
 0770 04040100 00030108 5b010000 06fd0000  ........[.......
 0780 0012d801 00000168 05760000 006c1001  .......h.v...l..
 0790 00280100 00019c13 98020000 015e0ddc  .(...........^..
 07a0 0f010090 00000001 9c600100 00089302  .........`......
 07b0 00005e26 f7000000 02916c04 676f7400  ..^&......l.got.
 07c0 5e359000 00000291 6808af02 00005e43  ^5......h.....^C
 07d0 90000000 02916400 09630200 00509000  ......d..c...P..
 07e0 0000440f 01009800 0000019c e3010000  ..D.............
 07f0 04647800 50238400 00000291 4c046479  .dx.P#......L.dy
 0800 00502f84 00000002 91480464 7a00503b  .P/......H.dz.P;
 0810 84000000 02914402 64310051 0e900000  ......D.d1.Q....
 0820 0002916c 02643200 520e9000 00000291  ...l.d2.R.......
 0830 68026433 00530e90 00000002 91640139  h.d3.S.......d.9
 0840 02000054 0e900000 00029160 02696e76  ...T.......`.inv
 0850 00570e90 00000002 915c0009 41020000  .W.......\..A...
 0860 3a900000 00fc0d01 00480100 00019c68  :........H.....h
 0870 02000004 78003a1e 90000000 02914c02  ....x.:.......L.
 0880 65787000 3d097600 00000291 6c027900  exp.=.v.....l.y.
 0890 3e0e9000 00000291 68014c02 00003f0e  >.......h.L...?.
 08a0 90000000 02916401 53020000 400e9000  ......d.S...@...
 08b0 00000291 6001b602 0000430e 90000000  ....`.....C.....
 08c0 02915c01 2f020000 440e9000 00000291  ..\./...D.......
 08d0 58015902 0000450e 90000000 02915400  X.Y...E.......T.
 08e0 14740200 00012e11 90000000 680d0100  .t..........h...
 08f0 94000000 019ce002 00000479 002e2690  ...........y..&.
 0900 00000002 914c0478 002e3290 00000002  .....L.x..2.....
 0910 91480279 32002f0e 90000000 02916c02  .H.y2./.......l.
 0920 78793200 300e9000 00000291 68018002  xy2.0.......h...
 0930 0000310e 90000000 02916401 8e020000  ..1.......d.....
 0940 320e9000 00000291 60012f02 0000330e  2.......`./...3.
 0950 90000000 02915c00 15270200 00011f11  ......\..'......
 0960 90000000 a80c0100 c0000000 019c7303  ..............s.
 0970 00000461 001f2290 00000002 914c0462  ...a.."......L.b
 0980 001f2e90 00000002 914801bb 02000020  .........H..... 
 0990 0e900000 0002916c 01340200 00201e90  .......l.4... ..
 09a0 00000002 9168015e 02000021 0e900000  .....h.^...!....
 09b0 00029164 01890200 00211e90 00000002  ...d.....!......
 09c0 91600268 6900230e 90000000 02915c02  .`.hi.#.......\.
 09d0 6d696400 240e9000 00000291 58026c6f  mid.$.......X.lo
 09e0 00250e90 00000002 91540016 636c7a00  .%.......T..clz.
 09f0 010b1376 00000044 0c010064 00000001  ...v...D...d....
 0a00 9c047800 0b209000 00000291 5c026e00  ..x.. ......\.n.
 0a10 0d097600 00000291 6c0000             ..v.....l..     
Contents of section .debug_abbrev:
 0000 01110110 06110112 01030e1b 0e250e13  .............%..
 0010 05000002 2e00030e 3f0c1101 12010000  ........?.......
 0020 00013400 030e3a21 013b0b39 0b491302  ..4...:!.;.9.I..
 0030 18000002 05000308 3a21013b 0b390b49  ........:!.;.9.I
 0040 13021800 00032400 0b0b3e0b 030e0000  ......$...>.....
 0050 04050003 0e3a2101 3b0b390b 49130218  .....:!.;.9.I...
 0060 00000534 0003083a 21013b0b 390b4913  ...4...:!.;.9.I.
 0070 02180000 06160003 0e3a0b3b 0b390b49  .........:.;.9.I
 0080 13000007 2e013f19 030e3a21 013b0b39  ......?...:!.;.9
 0090 0b271949 13110112 0640187a 19011300  .'.I.....@.z....
 00a0 00080b01 11011206 00000901 01491301  .............I..
 00b0 1300000a 21004913 2f0b0000 0b0f000b  ....!.I./.......
 00c0 21044913 00000c2e 013f1903 0e3a2101  !.I......?...:!.
 00d0 3b0b390b 27194913 11011206 40187c19  ;.9.'.I.....@.|.
 00e0 01130000 0d0b0111 01120601 1300000e  ................
 00f0 2e003f19 030e3a21 013b0b39 0b271949  ..?...:!.;.9.'.I
 0100 133c1900 000f2e01 030e3a21 013b0b39  .<........:!.;.9
 0110 0b271949 13110112 0640187a 19011300  .'.I.....@.z....
 0120 00102600 49130000 11110125 0e130b03  ..&.I......%....
 0130 1f1b1f11 01120610 17000012 24000b0b  ............$...
 0140 3e0b0308 00001335 00491300 00141800  >......5.I......
 0150 0000152e 013f1903 0e3a0b3b 0b390b27  .....?...:.;.9.'
 0160 19110112 0640187a 19011300 00162e01  .....@.z........
 0170 3f19030e 3a0b3b0b 390b2719 11011206  ?...:.;.9.'.....
 0180 40187c19 01130000 170f000b 0b000018  @.|.............
 0190 26000000 00011100 10061101 1201030e  &...............
 01a0 1b0e250e 13050000 00013400 030e3a21  ..%.......4...:!
 01b0 013b0b39 0b491302 18000002 34000308  .;.9.I......4...
 01c0 3a21013b 0b390b49 13021800 00032400  :!.;.9.I......$.
 01d0 0b0b3e0b 030e0000 04050003 083a2101  ..>..........:!.
 01e0 3b0b390b 49130218 00000516 00030e3a  ;.9.I..........:
 01f0 0b3b0b39 0b491300 00062600 49130000  .;.9.I....&.I...
 0200 07050049 13000008 0500030e 3a21013b  ...I........:!.;
 0210 0b390b49 13021800 00092e01 3f19030e  .9.I........?...
 0220 3a21013b 0b39210a 27194913 11011206  :!.;.9!.'.I.....
 0230 40187c19 01130000 0a110125 0e130b03  @.|........%....
 0240 1f1b1f11 01120610 1700000b 24000b0b  ............$...
 0250 3e0b0308 00000c01 01491301 1300000d  >........I......
 0260 21004913 2f0b0000 0e2e013f 19030e3a  !.I./......?...:
 0270 0b3b0b39 0b27193c 19011300 000f2e01  .;.9.'.<........
 0280 3f19030e 3a0b3b0b 390b2719 49133c19  ?...:.;.9.'.I.<.
 0290 01130000 10180000 00110f00 0b0b4913  ..............I.
 02a0 0000122e 003f1903 0e3a0b3b 0b390b27  .....?...:.;.9.'
 02b0 19491311 01120640 187c1900 00132e01  .I.....@.|......
 02c0 030e3a0b 3b0b390b 27191101 12064018  ..:.;.9.'.....@.
 02d0 7c190113 0000142e 01030e3a 0b3b0b39  |..........:.;.9
 02e0 0b271949 13110112 0640187c 19011300  .'.I.....@.|....
 02f0 00152e01 030e3a0b 3b0b390b 27194913  ......:.;.9.'.I.
 0300 11011206 40187a19 01130000 162e0103  ....@.z.........
 0310 083a0b3b 0b390b27 19491311 01120640  .:.;.9.'.I.....@
 0320 187a1900 0000                        .z....          
Contents of section .debug_aranges:
 0000 1c000000 02000000 00000400 00000000  ................
 0010 00000100 3c000000 00000000 00000000  ....<...........
 0020 1c000000 02003500 00000400 00000000  ......5.........
 0030 3c000100 e00b0000 00000000 00000000  <...............
 0040 1c000000 02005206 00000400 00000000  ......R.........
 0050 1c0c0100 28000000 00000000 00000000  ....(...........
 0060 1c000000 02007806 00000400 00000000  ......x.........
 0070 440c0100 50050000 00000000 00000000  D...P...........
Contents of section .debug_str:
 0000 73746172 742e5300 2f557365 72732f68  start.S./Users/h
 0010 73756873 69616f66 616e2f72 76333265  suhsiaofan/rv32e
 0020 6d752f6d 795f7072 6f6a6563 7400474e  mu/my_project.GN
 0030 55204153 20322e34 332e3100 5f737461  U AS 2.43.1._sta
 0040 7274005f 5f756469 76646933 005f5f70  rt.__udivdi3.__p
 0050 6f70636f 756e7473 69320064 65737400  opcountsi2.dest.
 0060 7072696e 745f6368 61720072 656d6169  print_char.remai
 0070 6e646572 0073686f 72742069 6e740073  nder.short int.s
 0080 697a655f 74007072 696e745f 696e7400  ize_t.print_int.
 0090 5f5f7569 6e743332 5f74006d 656d6370  __uint32_t.memcp
 00a0 79007175 6f746965 6e740047 4e552043  y.quotient.GNU C
 00b0 31372031 342e322e 30202d6d 6162693d  17 14.2.0 -mabi=
 00c0 696c7033 32202d6d 6973612d 73706563  ilp32 -misa-spec
 00d0 3d323031 39313231 33202d6d 61726368  =20191213 -march
 00e0 3d727633 32696d5f 7a696373 72202d67  =rv32im_zicsr -g
 00f0 00737461 72745f63 79636c65 73006c6f  .start_cycles.lo
 0100 6e67206c 6f6e6720 696e7400 73746172  ng long int.star
 0110 745f696e 73747265 74007072 696e7466  t_instret.printf
 0120 005f5f75 696e7438 5f74005f 5f756d6f  .__uint8_t.__umo
 0130 64646933 00676574 5f696e73 74726574  ddi3.get_instret
 0140 00756469 76006c6f 6e672064 6f75626c  .udiv.long doubl
 0150 6500756e 7369676e 65642063 68617200  e.unsigned char.
 0160 64697669 64656e64 006c6f6e 67206c6f  dividend.long lo
 0170 6e672075 6e736967 6e656420 696e7400  ng unsigned int.
 0180 756d756c 00707574 73007368 6f727420  umul.puts.short 
 0190 756e7369 676e6564 20696e74 00656e64  unsigned int.end
 01a0 5f696e73 74726574 00737472 6c656e00  _instret.strlen.
 01b0 5f5f6d75 6c736933 005f5f75 696e7436  __mulsi3.__uint6
 01c0 345f7400 5f6d7367 005f5f6d 756c6469  4_t._msg.__muldi
 01d0 3300636f 756e7400 717a335f 435f6d61  3.count.qz3_C_ma
 01e0 696e0075 6d6f6400 64697669 736f7200  in.umod.divisor.
 01f0 666f726d 61740067 65745f63 79636c65  format.get_cycle
 0200 7300656e 645f6379 636c6573 00706572  s.end_cycles.per
 0210 66636f75 6e746572 2e530072 73717274  fcounter.S.rsqrt
 0220 5f746162 6c65006d 756c5f71 31360064  _table.mul_q16.d
 0230 69666600 615f6c6f 00646973 745f7371  iff.a_lo.dist_sq
 0240 00666173 745f7273 71727400 795f6e65  .fast_rsqrt.y_ne
 0250 78740064 656c7461 00667261 6300625f  xt.delta.frac.b_
 0260 68690066 6173745f 64697374 616e6365  hi.fast_distance
 0270 5f336400 6e657774 6f6e5f73 74657000  _3d.newton_step.
 0280 68616c66 5f787932 00625f6c 6f007465  half_xy2.b_lo.te
 0290 726d006e 616d6500 63686563 6b5f7265  rm.name.check_re
 02a0 73756c74 005f5f69 6e743332 5f740065  sult.__int32_t.e
 02b0 78706563 74006261 73650061 5f686900  xpect.base.a_hi.
Contents of section .debug_line_str:
 0000 2f557365 72732f68 73756873 69616f66  /Users/hsuhsiaof
 0010 616e2f72 76333265 6d752f6d 795f7072  an/rv32emu/my_pr
 0020 6f6a6563 74006d61 696e2e63 002f5573  oject.main.c./Us
 0030 6572732f 68737568 7369616f 66616e2f  ers/hsuhsiaofan/
 0040 72697363 762d6e6f 6e652d65 6c662d67  riscv-none-elf-g
 0050 63632f72 69736376 2d6e6f6e 652d656c  cc/riscv-none-el
 0060 662f696e 636c7564 652f6d61 6368696e  f/include/machin
 0070 65002f55 73657273 2f687375 68736961  e./Users/hsuhsia
 0080 6f66616e 2f726973 63762d6e 6f6e652d  ofan/riscv-none-
 0090 656c662d 6763632f 72697363 762d6e6f  elf-gcc/riscv-no
 00a0 6e652d65 6c662f69 6e636c75 64652f73  ne-elf/include/s
 00b0 7973002f 55736572 732f6873 75687369  ys./Users/hsuhsi
 00c0 616f6661 6e2f7269 7363762d 6e6f6e65  aofan/riscv-none
 00d0 2d656c66 2d676363 2f6c6962 2f676363  -elf-gcc/lib/gcc
 00e0 2f726973 63762d6e 6f6e652d 656c662f  /riscv-none-elf/
 00f0 31342e32 2e302f69 6e636c75 6465005f  14.2.0/include._
 0100 64656661 756c745f 74797065 732e6800  default_types.h.
 0110 5f737464 696e742e 68007374 64646566  _stdint.h.stddef
 0120 2e680071 7a335f43 2e6300             .h.qz3_C.c.     
Contents of section .debug_frame:
 0000 0c000000 ffffffff 0300017c 010c0200  ...........|....
 0010 24000000 00000000 3c000100 78000000  $.......<...x...
 0020 440e3048 81018802 440c0800 025cc144  D.0H....D....\.D
 0030 c80c0230 440e0000 24000000 00000000  ...0D...$.......
 0040 b4000100 c4000000 440e3048 81018802  ........D.0H....
 0050 440c0800 02a8c144 c80c0230 440e0000  D......D...0D...
 0060 24000000 00000000 78010100 a8000000  $.......x.......
 0070 440e3048 81018802 440c0800 028cc144  D.0H....D......D
 0080 c80c0230 440e0000 24000000 00000000  ...0D...$.......
 0090 20020100 74000000 440e3048 81018802   ...t...D.0H....
 00a0 440c0800 0258c144 c80c0230 440e0000  D....X.D...0D...
 00b0 24000000 00000000 94020100 3c000000  $...........<...
 00c0 440e2048 81018802 440c0800 60c144c8  D. H....D...`.D.
 00d0 0c022044 0e000000 24000000 00000000  .. D....$.......
 00e0 d0020100 e0000000 440e4048 81018802  ........D.@H....
 00f0 440c0800 02c4c144 c80c0240 440e0000  D......D...@D...
 0100 24000000 00000000 b0030100 48000000  $...........H...
 0110 440e2048 81018802 440c0800 6cc144c8  D. H....D...l.D.
 0120 0c022044 0e000000 24000000 00000000  .. D....$.......
 0130 f8030100 54000000 440e3048 81018802  ....T...D.0H....
 0140 440c0800 78c144c8 0c023044 0e000000  D...x.D...0D....
 0150 24000000 00000000 4c040100 74000000  $.......L...t...
 0160 440e3048 81018802 440c0800 0258c144  D.0H....D....X.D
 0170 c80c0230 440e0000 24000000 00000000  ...0D...$.......
 0180 c0040100 6c000000 440e4048 8109880a  ....l...D.@H....
 0190 440c0820 0250c144 c80c0240 440e0000  D.. .P.D...@D...
 01a0 28000000 00000000 2c050100 48020000  (.......,...H...
 01b0 440ea001 48810188 02440c08 00032c02  D...H....D....,.
 01c0 c144c80c 02a00144 0e000000 24000000  .D.....D....$...
 01d0 00000000 74070100 5c000000 440e3048  ....t...\...D.0H
 01e0 81018802 440c0800 0240c144 c80c0230  ....D....@.D...0
 01f0 440e0000 24000000 00000000 d0070100  D...$...........
 0200 f8000000 440e3048 81018802 440c0800  ....D.0H....D...
 0210 02dcc144 c80c0230 440e0000 34000000  ...D...0D...4...
 0220 00000000 c8080100 e0010000 440e5058  ............D.PX
 0230 81018802 92039304 94059506 440c0800  ............D...
 0240 03a401c1 44c80c02 5044d244 d344d444  ....D...PD.D.D.D
 0250 d5440e00 24000000 00000000 a80a0100  .D..$...........
 0260 74010000 440e3048 81018802 440c0800  t...D.0H....D...
 0270 035801c1 44c80c02 30440e00 0c000000  .X..D...0D......
 0280 ffffffff 0300017c 010c0200 24000000  .......|....$...
 0290 7c020000 440c0100 64000000 440e3048  |...D...d...D.0H
 02a0 81018802 440c0800 0248c144 c80c0230  ....D....H.D...0
 02b0 440e0000 24000000 7c020000 a80c0100  D...$...|.......
 02c0 c0000000 440e4048 81018802 440c0800  ....D.@H....D...
 02d0 02a4c144 c80c0240 440e0000 24000000  ...D...@D...$...
 02e0 7c020000 680d0100 94000000 440e4048  |...h.......D.@H
 02f0 81018802 440c0800 0278c144 c80c0240  ....D....x.D...@
 0300 440e0000 24000000 7c020000 fc0d0100  D...$...|.......
 0310 48010000 440e4048 81018802 440c0800  H...D.@H....D...
 0320 032c01c1 44c80c02 40440e00 24000000  .,..D...@D..$...
 0330 7c020000 440f0100 98000000 440e4048  |...D.......D.@H
 0340 81018802 440c0800 027cc144 c80c0240  ....D....|.D...@
 0350 440e0000 24000000 7c020000 dc0f0100  D...$...|.......
 0360 90000000 440e2048 81018802 440c0800  ....D. H....D...
 0370 0274c144 c80c0220 440e0000 24000000  .t.D... D...$...
 0380 7c020000 6c100100 28010000 440e1048  |...l...(...D..H
 0390 81018802 440c0800 030c01c1 44c80c02  ....D.......D...
 03a0 10440e00                             .D..            

Disassembly of section .text:

00010000 <_start>:
   10000:	00002117          	auipc	sp,0x2
   10004:	35010113          	addi	sp,sp,848 # 12350 <__stack_top>
   10008:	00001297          	auipc	t0,0x1
   1000c:	33e28293          	addi	t0,t0,830 # 11346 <__bss_end>
   10010:	00001317          	auipc	t1,0x1
   10014:	33630313          	addi	t1,t1,822 # 11346 <__bss_end>
   10018:	0062d863          	bge	t0,t1,10028 <_start+0x28>
   1001c:	0002a023          	sw	zero,0(t0)
   10020:	00428293          	addi	t0,t0,4
   10024:	ff5ff06f          	j	10018 <_start+0x18>
   10028:	504000ef          	jal	1052c <main>
   1002c:	05d00893          	li	a7,93
   10030:	00000513          	li	a0,0
   10034:	00000073          	ecall
   10038:	0000006f          	j	10038 <_start+0x38>

0001003c <memcpy>:
   1003c:	fd010113          	addi	sp,sp,-48
   10040:	02112623          	sw	ra,44(sp)
   10044:	02812423          	sw	s0,40(sp)
   10048:	03010413          	addi	s0,sp,48
   1004c:	fca42e23          	sw	a0,-36(s0)
   10050:	fcb42c23          	sw	a1,-40(s0)
   10054:	fcc42a23          	sw	a2,-44(s0)
   10058:	fdc42783          	lw	a5,-36(s0)
   1005c:	fef42623          	sw	a5,-20(s0)
   10060:	fd842783          	lw	a5,-40(s0)
   10064:	fef42423          	sw	a5,-24(s0)
   10068:	0240006f          	j	1008c <memcpy+0x50>
   1006c:	fe842703          	lw	a4,-24(s0)
   10070:	00170793          	addi	a5,a4,1
   10074:	fef42423          	sw	a5,-24(s0)
   10078:	fec42783          	lw	a5,-20(s0)
   1007c:	00178693          	addi	a3,a5,1
   10080:	fed42623          	sw	a3,-20(s0)
   10084:	00074703          	lbu	a4,0(a4)
   10088:	00e78023          	sb	a4,0(a5)
   1008c:	fd442783          	lw	a5,-44(s0)
   10090:	fff78713          	addi	a4,a5,-1
   10094:	fce42a23          	sw	a4,-44(s0)
   10098:	fc079ae3          	bnez	a5,1006c <memcpy+0x30>
   1009c:	fdc42783          	lw	a5,-36(s0)
   100a0:	00078513          	mv	a0,a5
   100a4:	02c12083          	lw	ra,44(sp)
   100a8:	02812403          	lw	s0,40(sp)
   100ac:	03010113          	addi	sp,sp,48
   100b0:	00008067          	ret

000100b4 <udiv>:
   100b4:	fd010113          	addi	sp,sp,-48
   100b8:	02112623          	sw	ra,44(sp)
   100bc:	02812423          	sw	s0,40(sp)
   100c0:	03010413          	addi	s0,sp,48
   100c4:	fca42e23          	sw	a0,-36(s0)
   100c8:	fcb42c23          	sw	a1,-40(s0)
   100cc:	fd842783          	lw	a5,-40(s0)
   100d0:	00079663          	bnez	a5,100dc <udiv+0x28>
   100d4:	00000793          	li	a5,0
   100d8:	08c0006f          	j	10164 <udiv+0xb0>
   100dc:	fe042623          	sw	zero,-20(s0)
   100e0:	fe042423          	sw	zero,-24(s0)
   100e4:	01f00793          	li	a5,31
   100e8:	fef42223          	sw	a5,-28(s0)
   100ec:	06c0006f          	j	10158 <udiv+0xa4>
   100f0:	fe842783          	lw	a5,-24(s0)
   100f4:	00179793          	slli	a5,a5,0x1
   100f8:	fef42423          	sw	a5,-24(s0)
   100fc:	fe442783          	lw	a5,-28(s0)
   10100:	fdc42703          	lw	a4,-36(s0)
   10104:	00f757b3          	srl	a5,a4,a5
   10108:	0017f793          	andi	a5,a5,1
   1010c:	fe842703          	lw	a4,-24(s0)
   10110:	00f767b3          	or	a5,a4,a5
   10114:	fef42423          	sw	a5,-24(s0)
   10118:	fe842703          	lw	a4,-24(s0)
   1011c:	fd842783          	lw	a5,-40(s0)
   10120:	02f76663          	bltu	a4,a5,1014c <udiv+0x98>
   10124:	fe842703          	lw	a4,-24(s0)
   10128:	fd842783          	lw	a5,-40(s0)
   1012c:	40f707b3          	sub	a5,a4,a5
   10130:	fef42423          	sw	a5,-24(s0)
   10134:	fe442783          	lw	a5,-28(s0)
   10138:	00100713          	li	a4,1
   1013c:	00f717b3          	sll	a5,a4,a5
   10140:	fec42703          	lw	a4,-20(s0)
   10144:	00f767b3          	or	a5,a4,a5
   10148:	fef42623          	sw	a5,-20(s0)
   1014c:	fe442783          	lw	a5,-28(s0)
   10150:	fff78793          	addi	a5,a5,-1
   10154:	fef42223          	sw	a5,-28(s0)
   10158:	fe442783          	lw	a5,-28(s0)
   1015c:	f807dae3          	bgez	a5,100f0 <udiv+0x3c>
   10160:	fec42783          	lw	a5,-20(s0)
   10164:	00078513          	mv	a0,a5
   10168:	02c12083          	lw	ra,44(sp)
   1016c:	02812403          	lw	s0,40(sp)
   10170:	03010113          	addi	sp,sp,48
   10174:	00008067          	ret

00010178 <umod>:
   10178:	fd010113          	addi	sp,sp,-48
   1017c:	02112623          	sw	ra,44(sp)
   10180:	02812423          	sw	s0,40(sp)
   10184:	03010413          	addi	s0,sp,48
   10188:	fca42e23          	sw	a0,-36(s0)
   1018c:	fcb42c23          	sw	a1,-40(s0)
   10190:	fd842783          	lw	a5,-40(s0)
   10194:	00079663          	bnez	a5,101a0 <umod+0x28>
   10198:	00000793          	li	a5,0
   1019c:	0700006f          	j	1020c <umod+0x94>
   101a0:	fe042623          	sw	zero,-20(s0)
   101a4:	01f00793          	li	a5,31
   101a8:	fef42423          	sw	a5,-24(s0)
   101ac:	0540006f          	j	10200 <umod+0x88>
   101b0:	fec42783          	lw	a5,-20(s0)
   101b4:	00179793          	slli	a5,a5,0x1
   101b8:	fef42623          	sw	a5,-20(s0)
   101bc:	fe842783          	lw	a5,-24(s0)
   101c0:	fdc42703          	lw	a4,-36(s0)
   101c4:	00f757b3          	srl	a5,a4,a5
   101c8:	0017f793          	andi	a5,a5,1
   101cc:	fec42703          	lw	a4,-20(s0)
   101d0:	00f767b3          	or	a5,a4,a5
   101d4:	fef42623          	sw	a5,-20(s0)
   101d8:	fec42703          	lw	a4,-20(s0)
   101dc:	fd842783          	lw	a5,-40(s0)
   101e0:	00f76a63          	bltu	a4,a5,101f4 <umod+0x7c>
   101e4:	fec42703          	lw	a4,-20(s0)
   101e8:	fd842783          	lw	a5,-40(s0)
   101ec:	40f707b3          	sub	a5,a4,a5
   101f0:	fef42623          	sw	a5,-20(s0)
   101f4:	fe842783          	lw	a5,-24(s0)
   101f8:	fff78793          	addi	a5,a5,-1
   101fc:	fef42423          	sw	a5,-24(s0)
   10200:	fe842783          	lw	a5,-24(s0)
   10204:	fa07d6e3          	bgez	a5,101b0 <umod+0x38>
   10208:	fec42783          	lw	a5,-20(s0)
   1020c:	00078513          	mv	a0,a5
   10210:	02c12083          	lw	ra,44(sp)
   10214:	02812403          	lw	s0,40(sp)
   10218:	03010113          	addi	sp,sp,48
   1021c:	00008067          	ret

00010220 <umul>:
   10220:	fd010113          	addi	sp,sp,-48
   10224:	02112623          	sw	ra,44(sp)
   10228:	02812423          	sw	s0,40(sp)
   1022c:	03010413          	addi	s0,sp,48
   10230:	fca42e23          	sw	a0,-36(s0)
   10234:	fcb42c23          	sw	a1,-40(s0)
   10238:	fe042623          	sw	zero,-20(s0)
   1023c:	0380006f          	j	10274 <umul+0x54>
   10240:	fd842783          	lw	a5,-40(s0)
   10244:	0017f793          	andi	a5,a5,1
   10248:	00078a63          	beqz	a5,1025c <umul+0x3c>
   1024c:	fec42703          	lw	a4,-20(s0)
   10250:	fdc42783          	lw	a5,-36(s0)
   10254:	00f707b3          	add	a5,a4,a5
   10258:	fef42623          	sw	a5,-20(s0)
   1025c:	fdc42783          	lw	a5,-36(s0)
   10260:	00179793          	slli	a5,a5,0x1
   10264:	fcf42e23          	sw	a5,-36(s0)
   10268:	fd842783          	lw	a5,-40(s0)
   1026c:	0017d793          	srli	a5,a5,0x1
   10270:	fcf42c23          	sw	a5,-40(s0)
   10274:	fd842783          	lw	a5,-40(s0)
   10278:	fc0794e3          	bnez	a5,10240 <umul+0x20>
   1027c:	fec42783          	lw	a5,-20(s0)
   10280:	00078513          	mv	a0,a5
   10284:	02c12083          	lw	ra,44(sp)
   10288:	02812403          	lw	s0,40(sp)
   1028c:	03010113          	addi	sp,sp,48
   10290:	00008067          	ret

00010294 <__mulsi3>:
   10294:	fe010113          	addi	sp,sp,-32
   10298:	00112e23          	sw	ra,28(sp)
   1029c:	00812c23          	sw	s0,24(sp)
   102a0:	02010413          	addi	s0,sp,32
   102a4:	fea42623          	sw	a0,-20(s0)
   102a8:	feb42423          	sw	a1,-24(s0)
   102ac:	fe842583          	lw	a1,-24(s0)
   102b0:	fec42503          	lw	a0,-20(s0)
   102b4:	f6dff0ef          	jal	10220 <umul>
   102b8:	00050793          	mv	a5,a0
   102bc:	00078513          	mv	a0,a5
   102c0:	01c12083          	lw	ra,28(sp)
   102c4:	01812403          	lw	s0,24(sp)
   102c8:	02010113          	addi	sp,sp,32
   102cc:	00008067          	ret

000102d0 <print_int>:
   102d0:	fc010113          	addi	sp,sp,-64
   102d4:	02112e23          	sw	ra,60(sp)
   102d8:	02812c23          	sw	s0,56(sp)
   102dc:	04010413          	addi	s0,sp,64
   102e0:	fca42623          	sw	a0,-52(s0)
   102e4:	fd840793          	addi	a5,s0,-40
   102e8:	01378793          	addi	a5,a5,19
   102ec:	fef42623          	sw	a5,-20(s0)
   102f0:	fec42783          	lw	a5,-20(s0)
   102f4:	fff78793          	addi	a5,a5,-1
   102f8:	fef42623          	sw	a5,-20(s0)
   102fc:	fcc42783          	lw	a5,-52(s0)
   10300:	06079063          	bnez	a5,10360 <print_int+0x90>
   10304:	fec42783          	lw	a5,-20(s0)
   10308:	03000713          	li	a4,48
   1030c:	00e78023          	sb	a4,0(a5)
   10310:	fec42783          	lw	a5,-20(s0)
   10314:	fff78793          	addi	a5,a5,-1
   10318:	fef42623          	sw	a5,-20(s0)
   1031c:	04c0006f          	j	10368 <print_int+0x98>
   10320:	00a00593          	li	a1,10
   10324:	fcc42503          	lw	a0,-52(s0)
   10328:	e51ff0ef          	jal	10178 <umod>
   1032c:	00050793          	mv	a5,a0
   10330:	0ff7f793          	zext.b	a5,a5
   10334:	03078793          	addi	a5,a5,48
   10338:	0ff7f713          	zext.b	a4,a5
   1033c:	fec42783          	lw	a5,-20(s0)
   10340:	00e78023          	sb	a4,0(a5)
   10344:	fec42783          	lw	a5,-20(s0)
   10348:	fff78793          	addi	a5,a5,-1
   1034c:	fef42623          	sw	a5,-20(s0)
   10350:	00a00593          	li	a1,10
   10354:	fcc42503          	lw	a0,-52(s0)
   10358:	d5dff0ef          	jal	100b4 <udiv>
   1035c:	fca42623          	sw	a0,-52(s0)
   10360:	fcc42783          	lw	a5,-52(s0)
   10364:	fa079ee3          	bnez	a5,10320 <print_int+0x50>
   10368:	fec42783          	lw	a5,-20(s0)
   1036c:	00178793          	addi	a5,a5,1
   10370:	fef42623          	sw	a5,-20(s0)
   10374:	fd840793          	addi	a5,s0,-40
   10378:	01378793          	addi	a5,a5,19
   1037c:	fec42703          	lw	a4,-20(s0)
   10380:	40e78733          	sub	a4,a5,a4
   10384:	fec42783          	lw	a5,-20(s0)
   10388:	04000893          	li	a7,64
   1038c:	00100513          	li	a0,1
   10390:	00f005b3          	add	a1,zero,a5
   10394:	00070613          	mv	a2,a4
   10398:	00000073          	ecall
   1039c:	00000013          	nop
   103a0:	03c12083          	lw	ra,60(sp)
   103a4:	03812403          	lw	s0,56(sp)
   103a8:	04010113          	addi	sp,sp,64
   103ac:	00008067          	ret

000103b0 <print_char>:
   103b0:	fe010113          	addi	sp,sp,-32
   103b4:	00112e23          	sw	ra,28(sp)
   103b8:	00812c23          	sw	s0,24(sp)
   103bc:	02010413          	addi	s0,sp,32
   103c0:	00050793          	mv	a5,a0
   103c4:	fef407a3          	sb	a5,-17(s0)
   103c8:	fef40793          	addi	a5,s0,-17
   103cc:	00100713          	li	a4,1
   103d0:	04000893          	li	a7,64
   103d4:	00100513          	li	a0,1
   103d8:	00f005b3          	add	a1,zero,a5
   103dc:	00070613          	mv	a2,a4
   103e0:	00000073          	ecall
   103e4:	00000013          	nop
   103e8:	01c12083          	lw	ra,28(sp)
   103ec:	01812403          	lw	s0,24(sp)
   103f0:	02010113          	addi	sp,sp,32
   103f4:	00008067          	ret

000103f8 <strlen>:
   103f8:	fd010113          	addi	sp,sp,-48
   103fc:	02112623          	sw	ra,44(sp)
   10400:	02812423          	sw	s0,40(sp)
   10404:	03010413          	addi	s0,sp,48
   10408:	fca42e23          	sw	a0,-36(s0)
   1040c:	fe042623          	sw	zero,-20(s0)
   10410:	0100006f          	j	10420 <strlen+0x28>
   10414:	fec42783          	lw	a5,-20(s0)
   10418:	00178793          	addi	a5,a5,1
   1041c:	fef42623          	sw	a5,-20(s0)
   10420:	fdc42783          	lw	a5,-36(s0)
   10424:	00178713          	addi	a4,a5,1
   10428:	fce42e23          	sw	a4,-36(s0)
   1042c:	0007c783          	lbu	a5,0(a5)
   10430:	fe0792e3          	bnez	a5,10414 <strlen+0x1c>
   10434:	fec42783          	lw	a5,-20(s0)
   10438:	00078513          	mv	a0,a5
   1043c:	02c12083          	lw	ra,44(sp)
   10440:	02812403          	lw	s0,40(sp)
   10444:	03010113          	addi	sp,sp,48
   10448:	00008067          	ret

0001044c <puts>:
   1044c:	fd010113          	addi	sp,sp,-48
   10450:	02112623          	sw	ra,44(sp)
   10454:	02812423          	sw	s0,40(sp)
   10458:	03010413          	addi	s0,sp,48
   1045c:	fca42e23          	sw	a0,-36(s0)
   10460:	fdc42503          	lw	a0,-36(s0)
   10464:	f95ff0ef          	jal	103f8 <strlen>
   10468:	00050713          	mv	a4,a0
   1046c:	fdc42783          	lw	a5,-36(s0)
   10470:	04000893          	li	a7,64
   10474:	00100513          	li	a0,1
   10478:	00f005b3          	add	a1,zero,a5
   1047c:	00070613          	mv	a2,a4
   10480:	00000073          	ecall
   10484:	00a00793          	li	a5,10
   10488:	fef41623          	sh	a5,-20(s0)
   1048c:	fec40793          	addi	a5,s0,-20
   10490:	00100713          	li	a4,1
   10494:	04000893          	li	a7,64
   10498:	00100513          	li	a0,1
   1049c:	00f005b3          	add	a1,zero,a5
   104a0:	00070613          	mv	a2,a4
   104a4:	00000073          	ecall
   104a8:	00000793          	li	a5,0
   104ac:	00078513          	mv	a0,a5
   104b0:	02c12083          	lw	ra,44(sp)
   104b4:	02812403          	lw	s0,40(sp)
   104b8:	03010113          	addi	sp,sp,48
   104bc:	00008067          	ret

000104c0 <printf>:
   104c0:	fc010113          	addi	sp,sp,-64
   104c4:	00112e23          	sw	ra,28(sp)
   104c8:	00812c23          	sw	s0,24(sp)
   104cc:	02010413          	addi	s0,sp,32
   104d0:	fea42623          	sw	a0,-20(s0)
   104d4:	00b42223          	sw	a1,4(s0)
   104d8:	00c42423          	sw	a2,8(s0)
   104dc:	00d42623          	sw	a3,12(s0)
   104e0:	00e42823          	sw	a4,16(s0)
   104e4:	00f42a23          	sw	a5,20(s0)
   104e8:	01042c23          	sw	a6,24(s0)
   104ec:	01142e23          	sw	a7,28(s0)
   104f0:	fec42503          	lw	a0,-20(s0)
   104f4:	f05ff0ef          	jal	103f8 <strlen>
   104f8:	00050713          	mv	a4,a0
   104fc:	fec42783          	lw	a5,-20(s0)
   10500:	04000893          	li	a7,64
   10504:	00100513          	li	a0,1
   10508:	00f005b3          	add	a1,zero,a5
   1050c:	00070613          	mv	a2,a4
   10510:	00000073          	ecall
   10514:	00000793          	li	a5,0
   10518:	00078513          	mv	a0,a5
   1051c:	01c12083          	lw	ra,28(sp)
   10520:	01812403          	lw	s0,24(sp)
   10524:	04010113          	addi	sp,sp,64
   10528:	00008067          	ret

0001052c <main>:
   1052c:	f6010113          	addi	sp,sp,-160
   10530:	08112e23          	sw	ra,156(sp)
   10534:	08812c23          	sw	s0,152(sp)
   10538:	0a010413          	addi	s0,sp,160
   1053c:	000117b7          	lui	a5,0x11
   10540:	19478793          	addi	a5,a5,404 # 11194 <qz3_C_main+0x128>
   10544:	0007a803          	lw	a6,0(a5)
   10548:	0047a503          	lw	a0,4(a5)
   1054c:	0087a583          	lw	a1,8(a5)
   10550:	00c7a603          	lw	a2,12(a5)
   10554:	0107a683          	lw	a3,16(a5)
   10558:	0147a703          	lw	a4,20(a5)
   1055c:	fb042a23          	sw	a6,-76(s0)
   10560:	faa42c23          	sw	a0,-72(s0)
   10564:	fab42e23          	sw	a1,-68(s0)
   10568:	fcc42023          	sw	a2,-64(s0)
   1056c:	fcd42223          	sw	a3,-60(s0)
   10570:	fce42423          	sw	a4,-56(s0)
   10574:	0187d783          	lhu	a5,24(a5)
   10578:	fcf41623          	sh	a5,-52(s0)
   1057c:	fb440793          	addi	a5,s0,-76
   10580:	01900713          	li	a4,25
   10584:	04000893          	li	a7,64
   10588:	00100513          	li	a0,1
   1058c:	00f005b3          	add	a1,zero,a5
   10590:	00070613          	mv	a2,a4
   10594:	00000073          	ecall
   10598:	684000ef          	jal	10c1c <get_cycles>
   1059c:	00050713          	mv	a4,a0
   105a0:	00058793          	mv	a5,a1
   105a4:	fee42423          	sw	a4,-24(s0)
   105a8:	fef42623          	sw	a5,-20(s0)
   105ac:	684000ef          	jal	10c30 <get_instret>
   105b0:	00050713          	mv	a4,a0
   105b4:	00058793          	mv	a5,a1
   105b8:	fce42c23          	sw	a4,-40(s0)
   105bc:	fcf42e23          	sw	a5,-36(s0)
   105c0:	2ad000ef          	jal	1106c <qz3_C_main>
   105c4:	658000ef          	jal	10c1c <get_cycles>
   105c8:	00050713          	mv	a4,a0
   105cc:	00058793          	mv	a5,a1
   105d0:	fee42023          	sw	a4,-32(s0)
   105d4:	fef42223          	sw	a5,-28(s0)
   105d8:	658000ef          	jal	10c30 <get_instret>
   105dc:	00050713          	mv	a4,a0
   105e0:	00058793          	mv	a5,a1
   105e4:	fce42823          	sw	a4,-48(s0)
   105e8:	fcf42a23          	sw	a5,-44(s0)
   105ec:	000117b7          	lui	a5,0x11
   105f0:	1b078793          	addi	a5,a5,432 # 111b0 <qz3_C_main+0x144>
   105f4:	0007a803          	lw	a6,0(a5)
   105f8:	0047a503          	lw	a0,4(a5)
   105fc:	0087a583          	lw	a1,8(a5)
   10600:	00c7a603          	lw	a2,12(a5)
   10604:	0107a683          	lw	a3,16(a5)
   10608:	0147a703          	lw	a4,20(a5)
   1060c:	f9042c23          	sw	a6,-104(s0)
   10610:	f8a42e23          	sw	a0,-100(s0)
   10614:	fab42023          	sw	a1,-96(s0)
   10618:	fac42223          	sw	a2,-92(s0)
   1061c:	fad42423          	sw	a3,-88(s0)
   10620:	fae42623          	sw	a4,-84(s0)
   10624:	0187d703          	lhu	a4,24(a5)
   10628:	fae41823          	sh	a4,-80(s0)
   1062c:	01a7c783          	lbu	a5,26(a5)
   10630:	faf40923          	sb	a5,-78(s0)
   10634:	f9840793          	addi	a5,s0,-104
   10638:	01a00713          	li	a4,26
   1063c:	04000893          	li	a7,64
   10640:	00100513          	li	a0,1
   10644:	00f005b3          	add	a1,zero,a5
   10648:	00070613          	mv	a2,a4
   1064c:	00000073          	ecall
   10650:	000117b7          	lui	a5,0x11
   10654:	1cc78793          	addi	a5,a5,460 # 111cc <qz3_C_main+0x160>
   10658:	0007a603          	lw	a2,0(a5)
   1065c:	0047a683          	lw	a3,4(a5)
   10660:	0087a703          	lw	a4,8(a5)
   10664:	f8c42423          	sw	a2,-120(s0)
   10668:	f8d42623          	sw	a3,-116(s0)
   1066c:	f8e42823          	sw	a4,-112(s0)
   10670:	00c7d703          	lhu	a4,12(a5)
   10674:	f8e41a23          	sh	a4,-108(s0)
   10678:	00e7c783          	lbu	a5,14(a5)
   1067c:	f8f40b23          	sb	a5,-106(s0)
   10680:	f8840793          	addi	a5,s0,-120
   10684:	00e00713          	li	a4,14
   10688:	04000893          	li	a7,64
   1068c:	00100513          	li	a0,1
   10690:	00f005b3          	add	a1,zero,a5
   10694:	00070613          	mv	a2,a4
   10698:	00000073          	ecall
   1069c:	fe042703          	lw	a4,-32(s0)
   106a0:	fe442783          	lw	a5,-28(s0)
   106a4:	00070693          	mv	a3,a4
   106a8:	fe842703          	lw	a4,-24(s0)
   106ac:	fec42783          	lw	a5,-20(s0)
   106b0:	00070793          	mv	a5,a4
   106b4:	40f687b3          	sub	a5,a3,a5
   106b8:	00078513          	mv	a0,a5
   106bc:	c15ff0ef          	jal	102d0 <print_int>
   106c0:	000117b7          	lui	a5,0x11
   106c4:	1dc78793          	addi	a5,a5,476 # 111dc <qz3_C_main+0x170>
   106c8:	0007a503          	lw	a0,0(a5)
   106cc:	0047a583          	lw	a1,4(a5)
   106d0:	0087a603          	lw	a2,8(a5)
   106d4:	00c7a683          	lw	a3,12(a5)
   106d8:	0107a703          	lw	a4,16(a5)
   106dc:	f6a42823          	sw	a0,-144(s0)
   106e0:	f6b42a23          	sw	a1,-140(s0)
   106e4:	f6c42c23          	sw	a2,-136(s0)
   106e8:	f6d42e23          	sw	a3,-132(s0)
   106ec:	f8e42023          	sw	a4,-128(s0)
   106f0:	0147d783          	lhu	a5,20(a5)
   106f4:	f8f41223          	sh	a5,-124(s0)
   106f8:	f7040793          	addi	a5,s0,-144
   106fc:	01500713          	li	a4,21
   10700:	04000893          	li	a7,64
   10704:	00100513          	li	a0,1
   10708:	00f005b3          	add	a1,zero,a5
   1070c:	00070613          	mv	a2,a4
   10710:	00000073          	ecall
   10714:	fd042703          	lw	a4,-48(s0)
   10718:	fd442783          	lw	a5,-44(s0)
   1071c:	00070693          	mv	a3,a4
   10720:	fd842703          	lw	a4,-40(s0)
   10724:	fdc42783          	lw	a5,-36(s0)
   10728:	00070793          	mv	a5,a4
   1072c:	40f687b3          	sub	a5,a3,a5
   10730:	00078513          	mv	a0,a5
   10734:	b9dff0ef          	jal	102d0 <print_int>
   10738:	00a00793          	li	a5,10
   1073c:	f6f41623          	sh	a5,-148(s0)
   10740:	f6c40793          	addi	a5,s0,-148
   10744:	00100713          	li	a4,1
   10748:	04000893          	li	a7,64
   1074c:	00100513          	li	a0,1
   10750:	00f005b3          	add	a1,zero,a5
   10754:	00070613          	mv	a2,a4
   10758:	00000073          	ecall
   1075c:	00000793          	li	a5,0
   10760:	00078513          	mv	a0,a5
   10764:	09c12083          	lw	ra,156(sp)
   10768:	09812403          	lw	s0,152(sp)
   1076c:	0a010113          	addi	sp,sp,160
   10770:	00008067          	ret

00010774 <__popcountsi2>:
   10774:	fd010113          	addi	sp,sp,-48
   10778:	02112623          	sw	ra,44(sp)
   1077c:	02812423          	sw	s0,40(sp)
   10780:	03010413          	addi	s0,sp,48
   10784:	fca42e23          	sw	a0,-36(s0)
   10788:	fe042623          	sw	zero,-20(s0)
   1078c:	0240006f          	j	107b0 <__popcountsi2+0x3c>
   10790:	fdc42783          	lw	a5,-36(s0)
   10794:	fff78793          	addi	a5,a5,-1
   10798:	fdc42703          	lw	a4,-36(s0)
   1079c:	00f777b3          	and	a5,a4,a5
   107a0:	fcf42e23          	sw	a5,-36(s0)
   107a4:	fec42783          	lw	a5,-20(s0)
   107a8:	00178793          	addi	a5,a5,1
   107ac:	fef42623          	sw	a5,-20(s0)
   107b0:	fdc42783          	lw	a5,-36(s0)
   107b4:	fc079ee3          	bnez	a5,10790 <__popcountsi2+0x1c>
   107b8:	fec42783          	lw	a5,-20(s0)
   107bc:	00078513          	mv	a0,a5
   107c0:	02c12083          	lw	ra,44(sp)
   107c4:	02812403          	lw	s0,40(sp)
   107c8:	03010113          	addi	sp,sp,48
   107cc:	00008067          	ret

000107d0 <__muldi3>:
   107d0:	fd010113          	addi	sp,sp,-48
   107d4:	02112623          	sw	ra,44(sp)
   107d8:	02812423          	sw	s0,40(sp)
   107dc:	03010413          	addi	s0,sp,48
   107e0:	fca42c23          	sw	a0,-40(s0)
   107e4:	fcb42e23          	sw	a1,-36(s0)
   107e8:	fcc42823          	sw	a2,-48(s0)
   107ec:	fcd42a23          	sw	a3,-44(s0)
   107f0:	00000613          	li	a2,0
   107f4:	00000693          	li	a3,0
   107f8:	fec42423          	sw	a2,-24(s0)
   107fc:	fed42623          	sw	a3,-20(s0)
   10800:	0980006f          	j	10898 <__muldi3+0xc8>
   10804:	fd042683          	lw	a3,-48(s0)
   10808:	0016f313          	andi	t1,a3,1
   1080c:	fd442683          	lw	a3,-44(s0)
   10810:	0006f393          	andi	t2,a3,0
   10814:	00030693          	mv	a3,t1
   10818:	0076e6b3          	or	a3,a3,t2
   1081c:	02068a63          	beqz	a3,10850 <__muldi3+0x80>
   10820:	fe842503          	lw	a0,-24(s0)
   10824:	fec42583          	lw	a1,-20(s0)
   10828:	fd842e03          	lw	t3,-40(s0)
   1082c:	fdc42e83          	lw	t4,-36(s0)
   10830:	01c50633          	add	a2,a0,t3
   10834:	00060f13          	mv	t5,a2
   10838:	00af3f33          	sltu	t5,t5,a0
   1083c:	01d586b3          	add	a3,a1,t4
   10840:	00df05b3          	add	a1,t5,a3
   10844:	00058693          	mv	a3,a1
   10848:	fec42423          	sw	a2,-24(s0)
   1084c:	fed42623          	sw	a3,-20(s0)
   10850:	fd842683          	lw	a3,-40(s0)
   10854:	01f6d693          	srli	a3,a3,0x1f
   10858:	fdc42603          	lw	a2,-36(s0)
   1085c:	00161793          	slli	a5,a2,0x1
   10860:	00f6e7b3          	or	a5,a3,a5
   10864:	fd842683          	lw	a3,-40(s0)
   10868:	00169713          	slli	a4,a3,0x1
   1086c:	fce42c23          	sw	a4,-40(s0)
   10870:	fcf42e23          	sw	a5,-36(s0)
   10874:	fd442683          	lw	a3,-44(s0)
   10878:	01f69693          	slli	a3,a3,0x1f
   1087c:	fd042603          	lw	a2,-48(s0)
   10880:	00165813          	srli	a6,a2,0x1
   10884:	0106e833          	or	a6,a3,a6
   10888:	fd442683          	lw	a3,-44(s0)
   1088c:	0016d893          	srli	a7,a3,0x1
   10890:	fd042823          	sw	a6,-48(s0)
   10894:	fd142a23          	sw	a7,-44(s0)
   10898:	fd042683          	lw	a3,-48(s0)
   1089c:	fd442603          	lw	a2,-44(s0)
   108a0:	00c6e6b3          	or	a3,a3,a2
   108a4:	f60690e3          	bnez	a3,10804 <__muldi3+0x34>
   108a8:	fe842703          	lw	a4,-24(s0)
   108ac:	fec42783          	lw	a5,-20(s0)
   108b0:	00070513          	mv	a0,a4
   108b4:	00078593          	mv	a1,a5
   108b8:	02c12083          	lw	ra,44(sp)
   108bc:	02812403          	lw	s0,40(sp)
   108c0:	03010113          	addi	sp,sp,48
   108c4:	00008067          	ret

000108c8 <__udivdi3>:
   108c8:	fb010113          	addi	sp,sp,-80
   108cc:	04112623          	sw	ra,76(sp)
   108d0:	04812423          	sw	s0,72(sp)
   108d4:	05212223          	sw	s2,68(sp)
   108d8:	05312023          	sw	s3,64(sp)
   108dc:	03412e23          	sw	s4,60(sp)
   108e0:	03512c23          	sw	s5,56(sp)
   108e4:	05010413          	addi	s0,sp,80
   108e8:	faa42c23          	sw	a0,-72(s0)
   108ec:	fab42e23          	sw	a1,-68(s0)
   108f0:	fac42823          	sw	a2,-80(s0)
   108f4:	fad42a23          	sw	a3,-76(s0)
   108f8:	fb042683          	lw	a3,-80(s0)
   108fc:	fb442603          	lw	a2,-76(s0)
   10900:	00c6e6b3          	or	a3,a3,a2
   10904:	00069863          	bnez	a3,10914 <__udivdi3+0x4c>
   10908:	00000713          	li	a4,0
   1090c:	00000793          	li	a5,0
   10910:	1700006f          	j	10a80 <__udivdi3+0x1b8>
   10914:	00000613          	li	a2,0
   10918:	00000693          	li	a3,0
   1091c:	fcc42c23          	sw	a2,-40(s0)
   10920:	fcd42e23          	sw	a3,-36(s0)
   10924:	fcc42823          	sw	a2,-48(s0)
   10928:	fcd42a23          	sw	a3,-44(s0)
   1092c:	03f00693          	li	a3,63
   10930:	fcd42623          	sw	a3,-52(s0)
   10934:	13c0006f          	j	10a70 <__udivdi3+0x1a8>
   10938:	fd042683          	lw	a3,-48(s0)
   1093c:	01f6d693          	srli	a3,a3,0x1f
   10940:	fd442603          	lw	a2,-44(s0)
   10944:	00161893          	slli	a7,a2,0x1
   10948:	0116e8b3          	or	a7,a3,a7
   1094c:	fd042683          	lw	a3,-48(s0)
   10950:	00169813          	slli	a6,a3,0x1
   10954:	fd042823          	sw	a6,-48(s0)
   10958:	fd142a23          	sw	a7,-44(s0)
   1095c:	fcc42683          	lw	a3,-52(s0)
   10960:	fe068693          	addi	a3,a3,-32
   10964:	0006ca63          	bltz	a3,10978 <__udivdi3+0xb0>
   10968:	fbc42603          	lw	a2,-68(s0)
   1096c:	00d65733          	srl	a4,a2,a3
   10970:	00000793          	li	a5,0
   10974:	0380006f          	j	109ac <__udivdi3+0xe4>
   10978:	fbc42683          	lw	a3,-68(s0)
   1097c:	00169613          	slli	a2,a3,0x1
   10980:	01f00593          	li	a1,31
   10984:	fcc42683          	lw	a3,-52(s0)
   10988:	40d586b3          	sub	a3,a1,a3
   1098c:	00d616b3          	sll	a3,a2,a3
   10990:	fcc42603          	lw	a2,-52(s0)
   10994:	fb842583          	lw	a1,-72(s0)
   10998:	00c5d733          	srl	a4,a1,a2
   1099c:	00e6e733          	or	a4,a3,a4
   109a0:	fcc42683          	lw	a3,-52(s0)
   109a4:	fbc42603          	lw	a2,-68(s0)
   109a8:	00d657b3          	srl	a5,a2,a3
   109ac:	00177e13          	andi	t3,a4,1
   109b0:	0007fe93          	andi	t4,a5,0
   109b4:	fd042683          	lw	a3,-48(s0)
   109b8:	01c6ef33          	or	t5,a3,t3
   109bc:	fd442683          	lw	a3,-44(s0)
   109c0:	01d6efb3          	or	t6,a3,t4
   109c4:	fde42823          	sw	t5,-48(s0)
   109c8:	fdf42a23          	sw	t6,-44(s0)
   109cc:	fb442603          	lw	a2,-76(s0)
   109d0:	fd442683          	lw	a3,-44(s0)
   109d4:	08c6e863          	bltu	a3,a2,10a64 <__udivdi3+0x19c>
   109d8:	fb442603          	lw	a2,-76(s0)
   109dc:	fd442683          	lw	a3,-44(s0)
   109e0:	00d61863          	bne	a2,a3,109f0 <__udivdi3+0x128>
   109e4:	fb042603          	lw	a2,-80(s0)
   109e8:	fd042683          	lw	a3,-48(s0)
   109ec:	06c6ec63          	bltu	a3,a2,10a64 <__udivdi3+0x19c>
   109f0:	fd042503          	lw	a0,-48(s0)
   109f4:	fd442583          	lw	a1,-44(s0)
   109f8:	fb042a03          	lw	s4,-80(s0)
   109fc:	fb442a83          	lw	s5,-76(s0)
   10a00:	41450633          	sub	a2,a0,s4
   10a04:	00060293          	mv	t0,a2
   10a08:	005532b3          	sltu	t0,a0,t0
   10a0c:	415586b3          	sub	a3,a1,s5
   10a10:	405685b3          	sub	a1,a3,t0
   10a14:	00058693          	mv	a3,a1
   10a18:	fcc42823          	sw	a2,-48(s0)
   10a1c:	fcd42a23          	sw	a3,-44(s0)
   10a20:	fcc42683          	lw	a3,-52(s0)
   10a24:	fe068693          	addi	a3,a3,-32
   10a28:	0006ca63          	bltz	a3,10a3c <__udivdi3+0x174>
   10a2c:	00100613          	li	a2,1
   10a30:	00d613b3          	sll	t2,a2,a3
   10a34:	00000313          	li	t1,0
   10a38:	0140006f          	j	10a4c <__udivdi3+0x184>
   10a3c:	00000393          	li	t2,0
   10a40:	fcc42683          	lw	a3,-52(s0)
   10a44:	00100613          	li	a2,1
   10a48:	00d61333          	sll	t1,a2,a3
   10a4c:	fd842683          	lw	a3,-40(s0)
   10a50:	0066e933          	or	s2,a3,t1
   10a54:	fdc42683          	lw	a3,-36(s0)
   10a58:	0076e9b3          	or	s3,a3,t2
   10a5c:	fd242c23          	sw	s2,-40(s0)
   10a60:	fd342e23          	sw	s3,-36(s0)
   10a64:	fcc42683          	lw	a3,-52(s0)
   10a68:	fff68693          	addi	a3,a3,-1
   10a6c:	fcd42623          	sw	a3,-52(s0)
   10a70:	fcc42683          	lw	a3,-52(s0)
   10a74:	ec06d2e3          	bgez	a3,10938 <__udivdi3+0x70>
   10a78:	fd842703          	lw	a4,-40(s0)
   10a7c:	fdc42783          	lw	a5,-36(s0)
   10a80:	00070513          	mv	a0,a4
   10a84:	00078593          	mv	a1,a5
   10a88:	04c12083          	lw	ra,76(sp)
   10a8c:	04812403          	lw	s0,72(sp)
   10a90:	04412903          	lw	s2,68(sp)
   10a94:	04012983          	lw	s3,64(sp)
   10a98:	03c12a03          	lw	s4,60(sp)
   10a9c:	03812a83          	lw	s5,56(sp)
   10aa0:	05010113          	addi	sp,sp,80
   10aa4:	00008067          	ret

00010aa8 <__umoddi3>:
   10aa8:	fd010113          	addi	sp,sp,-48
   10aac:	02112623          	sw	ra,44(sp)
   10ab0:	02812423          	sw	s0,40(sp)
   10ab4:	03010413          	addi	s0,sp,48
   10ab8:	fca42c23          	sw	a0,-40(s0)
   10abc:	fcb42e23          	sw	a1,-36(s0)
   10ac0:	fcc42823          	sw	a2,-48(s0)
   10ac4:	fcd42a23          	sw	a3,-44(s0)
   10ac8:	fd042683          	lw	a3,-48(s0)
   10acc:	fd442603          	lw	a2,-44(s0)
   10ad0:	00c6e6b3          	or	a3,a3,a2
   10ad4:	00069863          	bnez	a3,10ae4 <__umoddi3+0x3c>
   10ad8:	00000713          	li	a4,0
   10adc:	00000793          	li	a5,0
   10ae0:	1240006f          	j	10c04 <__umoddi3+0x15c>
   10ae4:	00000613          	li	a2,0
   10ae8:	00000693          	li	a3,0
   10aec:	fec42423          	sw	a2,-24(s0)
   10af0:	fed42623          	sw	a3,-20(s0)
   10af4:	03f00693          	li	a3,63
   10af8:	fed42223          	sw	a3,-28(s0)
   10afc:	0f80006f          	j	10bf4 <__umoddi3+0x14c>
   10b00:	fe842683          	lw	a3,-24(s0)
   10b04:	01f6d693          	srli	a3,a3,0x1f
   10b08:	fec42603          	lw	a2,-20(s0)
   10b0c:	00161893          	slli	a7,a2,0x1
   10b10:	0116e8b3          	or	a7,a3,a7
   10b14:	fe842683          	lw	a3,-24(s0)
   10b18:	00169813          	slli	a6,a3,0x1
   10b1c:	ff042423          	sw	a6,-24(s0)
   10b20:	ff142623          	sw	a7,-20(s0)
   10b24:	fe442683          	lw	a3,-28(s0)
   10b28:	fe068693          	addi	a3,a3,-32
   10b2c:	0006ca63          	bltz	a3,10b40 <__umoddi3+0x98>
   10b30:	fdc42603          	lw	a2,-36(s0)
   10b34:	00d65733          	srl	a4,a2,a3
   10b38:	00000793          	li	a5,0
   10b3c:	0380006f          	j	10b74 <__umoddi3+0xcc>
   10b40:	fdc42683          	lw	a3,-36(s0)
   10b44:	00169613          	slli	a2,a3,0x1
   10b48:	01f00593          	li	a1,31
   10b4c:	fe442683          	lw	a3,-28(s0)
   10b50:	40d586b3          	sub	a3,a1,a3
   10b54:	00d616b3          	sll	a3,a2,a3
   10b58:	fe442603          	lw	a2,-28(s0)
   10b5c:	fd842583          	lw	a1,-40(s0)
   10b60:	00c5d733          	srl	a4,a1,a2
   10b64:	00e6e733          	or	a4,a3,a4
   10b68:	fe442683          	lw	a3,-28(s0)
   10b6c:	fdc42603          	lw	a2,-36(s0)
   10b70:	00d657b3          	srl	a5,a2,a3
   10b74:	00177313          	andi	t1,a4,1
   10b78:	0007f393          	andi	t2,a5,0
   10b7c:	fe842683          	lw	a3,-24(s0)
   10b80:	0066ee33          	or	t3,a3,t1
   10b84:	fec42683          	lw	a3,-20(s0)
   10b88:	0076eeb3          	or	t4,a3,t2
   10b8c:	ffc42423          	sw	t3,-24(s0)
   10b90:	ffd42623          	sw	t4,-20(s0)
   10b94:	fd442603          	lw	a2,-44(s0)
   10b98:	fec42683          	lw	a3,-20(s0)
   10b9c:	04c6e663          	bltu	a3,a2,10be8 <__umoddi3+0x140>
   10ba0:	fd442603          	lw	a2,-44(s0)
   10ba4:	fec42683          	lw	a3,-20(s0)
   10ba8:	00d61863          	bne	a2,a3,10bb8 <__umoddi3+0x110>
   10bac:	fd042603          	lw	a2,-48(s0)
   10bb0:	fe842683          	lw	a3,-24(s0)
   10bb4:	02c6ea63          	bltu	a3,a2,10be8 <__umoddi3+0x140>
   10bb8:	fe842503          	lw	a0,-24(s0)
   10bbc:	fec42583          	lw	a1,-20(s0)
   10bc0:	fd042f03          	lw	t5,-48(s0)
   10bc4:	fd442f83          	lw	t6,-44(s0)
   10bc8:	41e50633          	sub	a2,a0,t5
   10bcc:	00060293          	mv	t0,a2
   10bd0:	005532b3          	sltu	t0,a0,t0
   10bd4:	41f586b3          	sub	a3,a1,t6
   10bd8:	405685b3          	sub	a1,a3,t0
   10bdc:	00058693          	mv	a3,a1
   10be0:	fec42423          	sw	a2,-24(s0)
   10be4:	fed42623          	sw	a3,-20(s0)
   10be8:	fe442683          	lw	a3,-28(s0)
   10bec:	fff68693          	addi	a3,a3,-1
   10bf0:	fed42223          	sw	a3,-28(s0)
   10bf4:	fe442683          	lw	a3,-28(s0)
   10bf8:	f006d4e3          	bgez	a3,10b00 <__umoddi3+0x58>
   10bfc:	fe842703          	lw	a4,-24(s0)
   10c00:	fec42783          	lw	a5,-20(s0)
   10c04:	00070513          	mv	a0,a4
   10c08:	00078593          	mv	a1,a5
   10c0c:	02c12083          	lw	ra,44(sp)
   10c10:	02812403          	lw	s0,40(sp)
   10c14:	03010113          	addi	sp,sp,48
   10c18:	00008067          	ret

00010c1c <get_cycles>:
   10c1c:	c80025f3          	rdcycleh	a1
   10c20:	c0002573          	rdcycle	a0
   10c24:	c8002673          	rdcycleh	a2
   10c28:	fec59ae3          	bne	a1,a2,10c1c <get_cycles>
   10c2c:	00008067          	ret

00010c30 <get_instret>:
   10c30:	c82025f3          	rdinstreth	a1
   10c34:	c0202573          	rdinstret	a0
   10c38:	c8202673          	rdinstreth	a2
   10c3c:	fec59ae3          	bne	a1,a2,10c30 <get_instret>
   10c40:	00008067          	ret

00010c44 <clz>:
   10c44:	fd010113          	addi	sp,sp,-48
   10c48:	02112623          	sw	ra,44(sp)
   10c4c:	02812423          	sw	s0,40(sp)
   10c50:	03010413          	addi	s0,sp,48
   10c54:	fca42e23          	sw	a0,-36(s0)
   10c58:	fdc42783          	lw	a5,-36(s0)
   10c5c:	00079663          	bnez	a5,10c68 <clz+0x24>
   10c60:	02000793          	li	a5,32
   10c64:	0300006f          	j	10c94 <clz+0x50>
   10c68:	fe042623          	sw	zero,-20(s0)
   10c6c:	01c0006f          	j	10c88 <clz+0x44>
   10c70:	fec42783          	lw	a5,-20(s0)
   10c74:	00178793          	addi	a5,a5,1
   10c78:	fef42623          	sw	a5,-20(s0)
   10c7c:	fdc42783          	lw	a5,-36(s0)
   10c80:	00179793          	slli	a5,a5,0x1
   10c84:	fcf42e23          	sw	a5,-36(s0)
   10c88:	fdc42783          	lw	a5,-36(s0)
   10c8c:	fe07d2e3          	bgez	a5,10c70 <clz+0x2c>
   10c90:	fec42783          	lw	a5,-20(s0)
   10c94:	00078513          	mv	a0,a5
   10c98:	02c12083          	lw	ra,44(sp)
   10c9c:	02812403          	lw	s0,40(sp)
   10ca0:	03010113          	addi	sp,sp,48
   10ca4:	00008067          	ret

00010ca8 <mul_q16>:
   10ca8:	fc010113          	addi	sp,sp,-64
   10cac:	02112e23          	sw	ra,60(sp)
   10cb0:	02812c23          	sw	s0,56(sp)
   10cb4:	04010413          	addi	s0,sp,64
   10cb8:	fca42623          	sw	a0,-52(s0)
   10cbc:	fcb42423          	sw	a1,-56(s0)
   10cc0:	fcc42783          	lw	a5,-52(s0)
   10cc4:	0107d793          	srli	a5,a5,0x10
   10cc8:	fef42623          	sw	a5,-20(s0)
   10ccc:	fcc42783          	lw	a5,-52(s0)
   10cd0:	01079793          	slli	a5,a5,0x10
   10cd4:	0107d793          	srli	a5,a5,0x10
   10cd8:	fef42423          	sw	a5,-24(s0)
   10cdc:	fc842783          	lw	a5,-56(s0)
   10ce0:	0107d793          	srli	a5,a5,0x10
   10ce4:	fef42223          	sw	a5,-28(s0)
   10ce8:	fc842783          	lw	a5,-56(s0)
   10cec:	01079793          	slli	a5,a5,0x10
   10cf0:	0107d793          	srli	a5,a5,0x10
   10cf4:	fef42023          	sw	a5,-32(s0)
   10cf8:	fec42703          	lw	a4,-20(s0)
   10cfc:	fe442783          	lw	a5,-28(s0)
   10d00:	02f707b3          	mul	a5,a4,a5
   10d04:	fcf42e23          	sw	a5,-36(s0)
   10d08:	fec42703          	lw	a4,-20(s0)
   10d0c:	fe042783          	lw	a5,-32(s0)
   10d10:	02f70733          	mul	a4,a4,a5
   10d14:	fe842683          	lw	a3,-24(s0)
   10d18:	fe442783          	lw	a5,-28(s0)
   10d1c:	02f687b3          	mul	a5,a3,a5
   10d20:	00f707b3          	add	a5,a4,a5
   10d24:	fcf42c23          	sw	a5,-40(s0)
   10d28:	fe842703          	lw	a4,-24(s0)
   10d2c:	fe042783          	lw	a5,-32(s0)
   10d30:	02f707b3          	mul	a5,a4,a5
   10d34:	fcf42a23          	sw	a5,-44(s0)
   10d38:	fdc42783          	lw	a5,-36(s0)
   10d3c:	01079713          	slli	a4,a5,0x10
   10d40:	fd842783          	lw	a5,-40(s0)
   10d44:	00f70733          	add	a4,a4,a5
   10d48:	fd442783          	lw	a5,-44(s0)
   10d4c:	0107d793          	srli	a5,a5,0x10
   10d50:	00f707b3          	add	a5,a4,a5
   10d54:	00078513          	mv	a0,a5
   10d58:	03c12083          	lw	ra,60(sp)
   10d5c:	03812403          	lw	s0,56(sp)
   10d60:	04010113          	addi	sp,sp,64
   10d64:	00008067          	ret

00010d68 <newton_step>:
   10d68:	fc010113          	addi	sp,sp,-64
   10d6c:	02112e23          	sw	ra,60(sp)
   10d70:	02812c23          	sw	s0,56(sp)
   10d74:	04010413          	addi	s0,sp,64
   10d78:	fca42623          	sw	a0,-52(s0)
   10d7c:	fcb42423          	sw	a1,-56(s0)
   10d80:	fcc42583          	lw	a1,-52(s0)
   10d84:	fcc42503          	lw	a0,-52(s0)
   10d88:	f21ff0ef          	jal	10ca8 <mul_q16>
   10d8c:	fea42623          	sw	a0,-20(s0)
   10d90:	fec42583          	lw	a1,-20(s0)
   10d94:	fc842503          	lw	a0,-56(s0)
   10d98:	f11ff0ef          	jal	10ca8 <mul_q16>
   10d9c:	fea42423          	sw	a0,-24(s0)
   10da0:	fe842783          	lw	a5,-24(s0)
   10da4:	0017d793          	srli	a5,a5,0x1
   10da8:	fef42223          	sw	a5,-28(s0)
   10dac:	000187b7          	lui	a5,0x18
   10db0:	fef42023          	sw	a5,-32(s0)
   10db4:	fe042703          	lw	a4,-32(s0)
   10db8:	fe442783          	lw	a5,-28(s0)
   10dbc:	00e7fa63          	bgeu	a5,a4,10dd0 <newton_step+0x68>
   10dc0:	fe042703          	lw	a4,-32(s0)
   10dc4:	fe442783          	lw	a5,-28(s0)
   10dc8:	40f707b3          	sub	a5,a4,a5
   10dcc:	0080006f          	j	10dd4 <newton_step+0x6c>
   10dd0:	00000793          	li	a5,0
   10dd4:	fcf42e23          	sw	a5,-36(s0)
   10dd8:	fdc42583          	lw	a1,-36(s0)
   10ddc:	fcc42503          	lw	a0,-52(s0)
   10de0:	ec9ff0ef          	jal	10ca8 <mul_q16>
   10de4:	00050793          	mv	a5,a0
   10de8:	00078513          	mv	a0,a5
   10dec:	03c12083          	lw	ra,60(sp)
   10df0:	03812403          	lw	s0,56(sp)
   10df4:	04010113          	addi	sp,sp,64
   10df8:	00008067          	ret

00010dfc <fast_rsqrt>:
   10dfc:	fc010113          	addi	sp,sp,-64
   10e00:	02112e23          	sw	ra,60(sp)
   10e04:	02812c23          	sw	s0,56(sp)
   10e08:	04010413          	addi	s0,sp,64
   10e0c:	fca42623          	sw	a0,-52(s0)
   10e10:	fcc42783          	lw	a5,-52(s0)
   10e14:	00079663          	bnez	a5,10e20 <fast_rsqrt+0x24>
   10e18:	fff00793          	li	a5,-1
   10e1c:	1140006f          	j	10f30 <fast_rsqrt+0x134>
   10e20:	fcc42503          	lw	a0,-52(s0)
   10e24:	e21ff0ef          	jal	10c44 <clz>
   10e28:	00050713          	mv	a4,a0
   10e2c:	01f00793          	li	a5,31
   10e30:	40e787b3          	sub	a5,a5,a4
   10e34:	fef42623          	sw	a5,-20(s0)
   10e38:	000117b7          	lui	a5,0x11
   10e3c:	1f478713          	addi	a4,a5,500 # 111f4 <rsqrt_table>
   10e40:	fec42783          	lw	a5,-20(s0)
   10e44:	00279793          	slli	a5,a5,0x2
   10e48:	00f707b3          	add	a5,a4,a5
   10e4c:	0007a783          	lw	a5,0(a5)
   10e50:	fef42423          	sw	a5,-24(s0)
   10e54:	fec42703          	lw	a4,-20(s0)
   10e58:	01e00793          	li	a5,30
   10e5c:	02e7c263          	blt	a5,a4,10e80 <fast_rsqrt+0x84>
   10e60:	fec42783          	lw	a5,-20(s0)
   10e64:	00178793          	addi	a5,a5,1
   10e68:	00011737          	lui	a4,0x11
   10e6c:	1f470713          	addi	a4,a4,500 # 111f4 <rsqrt_table>
   10e70:	00279793          	slli	a5,a5,0x2
   10e74:	00f707b3          	add	a5,a4,a5
   10e78:	0007a783          	lw	a5,0(a5)
   10e7c:	0080006f          	j	10e84 <fast_rsqrt+0x88>
   10e80:	00000793          	li	a5,0
   10e84:	fef42223          	sw	a5,-28(s0)
   10e88:	fe842703          	lw	a4,-24(s0)
   10e8c:	fe442783          	lw	a5,-28(s0)
   10e90:	40f707b3          	sub	a5,a4,a5
   10e94:	fef42023          	sw	a5,-32(s0)
   10e98:	fec42783          	lw	a5,-20(s0)
   10e9c:	00100713          	li	a4,1
   10ea0:	00f717b3          	sll	a5,a4,a5
   10ea4:	fcf42e23          	sw	a5,-36(s0)
   10ea8:	fcc42703          	lw	a4,-52(s0)
   10eac:	fdc42783          	lw	a5,-36(s0)
   10eb0:	40f707b3          	sub	a5,a4,a5
   10eb4:	fcf42c23          	sw	a5,-40(s0)
   10eb8:	fec42703          	lw	a4,-20(s0)
   10ebc:	01000793          	li	a5,16
   10ec0:	00e7ce63          	blt	a5,a4,10edc <fast_rsqrt+0xe0>
   10ec4:	01000713          	li	a4,16
   10ec8:	fec42783          	lw	a5,-20(s0)
   10ecc:	40f707b3          	sub	a5,a4,a5
   10ed0:	fd842703          	lw	a4,-40(s0)
   10ed4:	00f717b3          	sll	a5,a4,a5
   10ed8:	0140006f          	j	10eec <fast_rsqrt+0xf0>
   10edc:	fec42783          	lw	a5,-20(s0)
   10ee0:	ff078793          	addi	a5,a5,-16
   10ee4:	fd842703          	lw	a4,-40(s0)
   10ee8:	00f757b3          	srl	a5,a4,a5
   10eec:	fcf42a23          	sw	a5,-44(s0)
   10ef0:	fe042703          	lw	a4,-32(s0)
   10ef4:	fd442783          	lw	a5,-44(s0)
   10ef8:	02f707b3          	mul	a5,a4,a5
   10efc:	0107d793          	srli	a5,a5,0x10
   10f00:	fe842703          	lw	a4,-24(s0)
   10f04:	40f707b3          	sub	a5,a4,a5
   10f08:	fef42423          	sw	a5,-24(s0)
   10f0c:	fcc42583          	lw	a1,-52(s0)
   10f10:	fe842503          	lw	a0,-24(s0)
   10f14:	e55ff0ef          	jal	10d68 <newton_step>
   10f18:	fea42423          	sw	a0,-24(s0)
   10f1c:	fcc42583          	lw	a1,-52(s0)
   10f20:	fe842503          	lw	a0,-24(s0)
   10f24:	e45ff0ef          	jal	10d68 <newton_step>
   10f28:	fea42423          	sw	a0,-24(s0)
   10f2c:	fe842783          	lw	a5,-24(s0)
   10f30:	00078513          	mv	a0,a5
   10f34:	03c12083          	lw	ra,60(sp)
   10f38:	03812403          	lw	s0,56(sp)
   10f3c:	04010113          	addi	sp,sp,64
   10f40:	00008067          	ret

00010f44 <fast_distance_3d>:
   10f44:	fc010113          	addi	sp,sp,-64
   10f48:	02112e23          	sw	ra,60(sp)
   10f4c:	02812c23          	sw	s0,56(sp)
   10f50:	04010413          	addi	s0,sp,64
   10f54:	fca42623          	sw	a0,-52(s0)
   10f58:	fcb42423          	sw	a1,-56(s0)
   10f5c:	fcc42223          	sw	a2,-60(s0)
   10f60:	fcc42783          	lw	a5,-52(s0)
   10f64:	02f787b3          	mul	a5,a5,a5
   10f68:	fef42623          	sw	a5,-20(s0)
   10f6c:	fc842783          	lw	a5,-56(s0)
   10f70:	02f787b3          	mul	a5,a5,a5
   10f74:	fef42423          	sw	a5,-24(s0)
   10f78:	fc442783          	lw	a5,-60(s0)
   10f7c:	02f787b3          	mul	a5,a5,a5
   10f80:	fef42223          	sw	a5,-28(s0)
   10f84:	fec42703          	lw	a4,-20(s0)
   10f88:	fe842783          	lw	a5,-24(s0)
   10f8c:	00f707b3          	add	a5,a4,a5
   10f90:	fe442703          	lw	a4,-28(s0)
   10f94:	00f707b3          	add	a5,a4,a5
   10f98:	fef42023          	sw	a5,-32(s0)
   10f9c:	fe042783          	lw	a5,-32(s0)
   10fa0:	00079663          	bnez	a5,10fac <fast_distance_3d+0x68>
   10fa4:	00000793          	li	a5,0
   10fa8:	0200006f          	j	10fc8 <fast_distance_3d+0x84>
   10fac:	fe042503          	lw	a0,-32(s0)
   10fb0:	e4dff0ef          	jal	10dfc <fast_rsqrt>
   10fb4:	fca42e23          	sw	a0,-36(s0)
   10fb8:	fdc42583          	lw	a1,-36(s0)
   10fbc:	fe042503          	lw	a0,-32(s0)
   10fc0:	ce9ff0ef          	jal	10ca8 <mul_q16>
   10fc4:	00050793          	mv	a5,a0
   10fc8:	00078513          	mv	a0,a5
   10fcc:	03c12083          	lw	ra,60(sp)
   10fd0:	03812403          	lw	s0,56(sp)
   10fd4:	04010113          	addi	sp,sp,64
   10fd8:	00008067          	ret

00010fdc <check_result>:
   10fdc:	fe010113          	addi	sp,sp,-32
   10fe0:	00112e23          	sw	ra,28(sp)
   10fe4:	00812c23          	sw	s0,24(sp)
   10fe8:	02010413          	addi	s0,sp,32
   10fec:	fea42623          	sw	a0,-20(s0)
   10ff0:	feb42423          	sw	a1,-24(s0)
   10ff4:	fec42223          	sw	a2,-28(s0)
   10ff8:	000117b7          	lui	a5,0x11
   10ffc:	27478513          	addi	a0,a5,628 # 11274 <rsqrt_table+0x80>
   11000:	cc0ff0ef          	jal	104c0 <printf>
   11004:	000117b7          	lui	a5,0x11
   11008:	27c78513          	addi	a0,a5,636 # 1127c <rsqrt_table+0x88>
   1100c:	cb4ff0ef          	jal	104c0 <printf>
   11010:	fe442503          	lw	a0,-28(s0)
   11014:	abcff0ef          	jal	102d0 <print_int>
   11018:	fe442783          	lw	a5,-28(s0)
   1101c:	ffe78793          	addi	a5,a5,-2
   11020:	fe842703          	lw	a4,-24(s0)
   11024:	02f76263          	bltu	a4,a5,11048 <check_result+0x6c>
   11028:	fe442783          	lw	a5,-28(s0)
   1102c:	00278793          	addi	a5,a5,2
   11030:	fe842703          	lw	a4,-24(s0)
   11034:	00e7ea63          	bltu	a5,a4,11048 <check_result+0x6c>
   11038:	000117b7          	lui	a5,0x11
   1103c:	28878513          	addi	a0,a5,648 # 11288 <rsqrt_table+0x94>
   11040:	c0cff0ef          	jal	1044c <puts>
   11044:	0140006f          	j	11058 <check_result+0x7c>
   11048:	000117b7          	lui	a5,0x11
   1104c:	29078513          	addi	a0,a5,656 # 11290 <rsqrt_table+0x9c>
   11050:	bfcff0ef          	jal	1044c <puts>
   11054:	00000013          	nop
   11058:	00000013          	nop
   1105c:	01c12083          	lw	ra,28(sp)
   11060:	01812403          	lw	s0,24(sp)
   11064:	02010113          	addi	sp,sp,32
   11068:	00008067          	ret

0001106c <qz3_C_main>:
   1106c:	ff010113          	addi	sp,sp,-16
   11070:	00112623          	sw	ra,12(sp)
   11074:	00812423          	sw	s0,8(sp)
   11078:	01010413          	addi	s0,sp,16
   1107c:	000117b7          	lui	a5,0x11
   11080:	29c78513          	addi	a0,a5,668 # 1129c <rsqrt_table+0xa8>
   11084:	bc8ff0ef          	jal	1044c <puts>
   11088:	00100513          	li	a0,1
   1108c:	d71ff0ef          	jal	10dfc <fast_rsqrt>
   11090:	00050793          	mv	a5,a0
   11094:	00010637          	lui	a2,0x10
   11098:	00078593          	mv	a1,a5
   1109c:	000117b7          	lui	a5,0x11
   110a0:	2b878513          	addi	a0,a5,696 # 112b8 <rsqrt_table+0xc4>
   110a4:	f39ff0ef          	jal	10fdc <check_result>
   110a8:	01000513          	li	a0,16
   110ac:	d51ff0ef          	jal	10dfc <fast_rsqrt>
   110b0:	00050793          	mv	a5,a0
   110b4:	00004637          	lui	a2,0x4
   110b8:	00078593          	mv	a1,a5
   110bc:	000117b7          	lui	a5,0x11
   110c0:	2c478513          	addi	a0,a5,708 # 112c4 <rsqrt_table+0xd0>
   110c4:	f19ff0ef          	jal	10fdc <check_result>
   110c8:	40000513          	li	a0,1024
   110cc:	d31ff0ef          	jal	10dfc <fast_rsqrt>
   110d0:	00050713          	mv	a4,a0
   110d4:	000017b7          	lui	a5,0x1
   110d8:	80078613          	addi	a2,a5,-2048 # 800 <_start-0xf800>
   110dc:	00070593          	mv	a1,a4
   110e0:	000117b7          	lui	a5,0x11
   110e4:	2d078513          	addi	a0,a5,720 # 112d0 <rsqrt_table+0xdc>
   110e8:	ef5ff0ef          	jal	10fdc <check_result>
   110ec:	000117b7          	lui	a5,0x11
   110f0:	2dc78513          	addi	a0,a5,732 # 112dc <rsqrt_table+0xe8>
   110f4:	b58ff0ef          	jal	1044c <puts>
   110f8:	00000613          	li	a2,0
   110fc:	00400593          	li	a1,4
   11100:	00300513          	li	a0,3
   11104:	e41ff0ef          	jal	10f44 <fast_distance_3d>
   11108:	00050793          	mv	a5,a0
   1110c:	00500613          	li	a2,5
   11110:	00078593          	mv	a1,a5
   11114:	000117b7          	lui	a5,0x11
   11118:	30078513          	addi	a0,a5,768 # 11300 <rsqrt_table+0x10c>
   1111c:	ec1ff0ef          	jal	10fdc <check_result>
   11120:	00000613          	li	a2,0
   11124:	00000593          	li	a1,0
   11128:	00a00513          	li	a0,10
   1112c:	e19ff0ef          	jal	10f44 <fast_distance_3d>
   11130:	00050793          	mv	a5,a0
   11134:	00a00613          	li	a2,10
   11138:	00078593          	mv	a1,a5
   1113c:	000117b7          	lui	a5,0x11
   11140:	30c78513          	addi	a0,a5,780 # 1130c <rsqrt_table+0x118>
   11144:	e99ff0ef          	jal	10fdc <check_result>
   11148:	00a00613          	li	a2,10
   1114c:	00a00593          	li	a1,10
   11150:	00a00513          	li	a0,10
   11154:	df1ff0ef          	jal	10f44 <fast_distance_3d>
   11158:	00050793          	mv	a5,a0
   1115c:	01100613          	li	a2,17
   11160:	00078593          	mv	a1,a5
   11164:	000117b7          	lui	a5,0x11
   11168:	31c78513          	addi	a0,a5,796 # 1131c <rsqrt_table+0x128>
   1116c:	e71ff0ef          	jal	10fdc <check_result>
   11170:	000117b7          	lui	a5,0x11
   11174:	32c78513          	addi	a0,a5,812 # 1132c <rsqrt_table+0x138>
   11178:	ad4ff0ef          	jal	1044c <puts>
   1117c:	00000793          	li	a5,0
   11180:	00078513          	mv	a0,a5
   11184:	00c12083          	lw	ra,12(sp)
   11188:	00812403          	lw	s0,8(sp)
   1118c:	01010113          	addi	sp,sp,16
   11190:	00008067          	ret

Disassembly of section .rodata:

00011194 <rsqrt_table-0x60>:
   11194:	3d3d                	.insn	2, 0x3d3d
   11196:	203d                	.insn	2, 0x203d
   11198:	6e75525b          	.insn	4, 0x6e75525b
   1119c:	696e                	.insn	2, 0x696e
   1119e:	676e                	.insn	2, 0x676e
   111a0:	7120                	.insn	2, 0x7120
   111a2:	337a                	.insn	2, 0x337a
   111a4:	435f 205d 3d3d      	.insn	6, 0x3d3d205d435f
   111aa:	0a3d                	.insn	2, 0x0a3d
   111ac:	000a                	.insn	2, 0x000a
   111ae:	0000                	.insn	2, 0x
   111b0:	3d0a                	.insn	2, 0x3d0a
   111b2:	3d3d                	.insn	2, 0x3d3d
   111b4:	5b20                	.insn	2, 0x5b20
   111b6:	7a71                	.insn	2, 0x7a71
   111b8:	20435f33          	.insn	4, 0x20435f33
   111bc:	6946                	.insn	2, 0x6946
   111be:	696e                	.insn	2, 0x696e
   111c0:	64656873          	csrrsi	a6,hviprio1,10
   111c4:	205d                	.insn	2, 0x205d
   111c6:	3d3d                	.insn	2, 0x3d3d
   111c8:	0a3d                	.insn	2, 0x0a3d
   111ca:	0000                	.insn	2, 0x
   111cc:	6f54                	.insn	2, 0x6f54
   111ce:	6174                	.insn	2, 0x6174
   111d0:	206c                	.insn	2, 0x206c
   111d2:	6c637943          	.insn	4, 0x6c637943
   111d6:	7365                	.insn	2, 0x7365
   111d8:	203a                	.insn	2, 0x203a
   111da:	0000                	.insn	2, 0x
   111dc:	540a                	.insn	2, 0x540a
   111de:	6c61746f          	jal	s0,288a4 <__stack_top+0x16554>
   111e2:	4920                	.insn	2, 0x4920
   111e4:	736e                	.insn	2, 0x736e
   111e6:	7274                	.insn	2, 0x7274
   111e8:	6375                	.insn	2, 0x6375
   111ea:	6974                	.insn	2, 0x6974
   111ec:	3a736e6f          	jal	t3,47d92 <__stack_top+0x35a42>
   111f0:	0020                	.insn	2, 0x0020
	...

000111f4 <rsqrt_table>:
   111f4:	0000                	.insn	2, 0x
   111f6:	0001                	.insn	2, 0x0001
   111f8:	b505                	.insn	2, 0xb505
   111fa:	0000                	.insn	2, 0x
   111fc:	8000                	.insn	2, 0x8000
   111fe:	0000                	.insn	2, 0x
   11200:	5a82                	.insn	2, 0x5a82
   11202:	0000                	.insn	2, 0x
   11204:	4000                	.insn	2, 0x4000
   11206:	0000                	.insn	2, 0x
   11208:	2d41                	.insn	2, 0x2d41
   1120a:	0000                	.insn	2, 0x
   1120c:	2000                	.insn	2, 0x2000
   1120e:	0000                	.insn	2, 0x
   11210:	16a1                	.insn	2, 0x16a1
   11212:	0000                	.insn	2, 0x
   11214:	1000                	.insn	2, 0x1000
   11216:	0000                	.insn	2, 0x
   11218:	0b50                	.insn	2, 0x0b50
   1121a:	0000                	.insn	2, 0x
   1121c:	0800                	.insn	2, 0x0800
   1121e:	0000                	.insn	2, 0x
   11220:	05a8                	.insn	2, 0x05a8
   11222:	0000                	.insn	2, 0x
   11224:	0400                	.insn	2, 0x0400
   11226:	0000                	.insn	2, 0x
   11228:	02d4                	.insn	2, 0x02d4
   1122a:	0000                	.insn	2, 0x
   1122c:	0200                	.insn	2, 0x0200
   1122e:	0000                	.insn	2, 0x
   11230:	016a                	.insn	2, 0x016a
   11232:	0000                	.insn	2, 0x
   11234:	0100                	.insn	2, 0x0100
   11236:	0000                	.insn	2, 0x
   11238:	00b5                	.insn	2, 0x00b5
   1123a:	0000                	.insn	2, 0x
   1123c:	0080                	.insn	2, 0x0080
   1123e:	0000                	.insn	2, 0x
   11240:	005a                	.insn	2, 0x005a
   11242:	0000                	.insn	2, 0x
   11244:	0040                	.insn	2, 0x0040
   11246:	0000                	.insn	2, 0x
   11248:	002d                	.insn	2, 0x002d
   1124a:	0000                	.insn	2, 0x
   1124c:	0020                	.insn	2, 0x0020
   1124e:	0000                	.insn	2, 0x
   11250:	00000017          	auipc	zero,0x0
   11254:	0010                	.insn	2, 0x0010
   11256:	0000                	.insn	2, 0x
   11258:	0000000b          	.insn	4, 0x000b
   1125c:	0008                	.insn	2, 0x0008
   1125e:	0000                	.insn	2, 0x
   11260:	0006                	.insn	2, 0x0006
   11262:	0000                	.insn	2, 0x
   11264:	0004                	.insn	2, 0x0004
   11266:	0000                	.insn	2, 0x
   11268:	00000003          	lb	zero,0(zero) # 0 <_start-0x10000>
   1126c:	0002                	.insn	2, 0x0002
   1126e:	0000                	.insn	2, 0x
   11270:	0001                	.insn	2, 0x0001
   11272:	0000                	.insn	2, 0x
   11274:	6720                	.insn	2, 0x6720
   11276:	7e20746f          	jal	s0,18a58 <__stack_top+0x6708>
   1127a:	0020                	.insn	2, 0x0020
   1127c:	6520                	.insn	2, 0x6520
   1127e:	7078                	.insn	2, 0x7078
   11280:	6365                	.insn	2, 0x6365
   11282:	3d74                	.insn	2, 0x3d74
   11284:	0000                	.insn	2, 0x
   11286:	0000                	.insn	2, 0x
   11288:	7720                	.insn	2, 0x7720
   1128a:	6f72                	.insn	2, 0x6f72
   1128c:	676e                	.insn	2, 0x676e
   1128e:	0020                	.insn	2, 0x0020
   11290:	6320                	.insn	2, 0x6320
   11292:	6572726f          	jal	tp,390e8 <__stack_top+0x26d98>
   11296:	00207463          	bgeu	zero,sp,1129e <rsqrt_table+0xaa>
   1129a:	0000                	.insn	2, 0x
   1129c:	2d2d                	.insn	2, 0x2d2d
   1129e:	202d                	.insn	2, 0x202d
   112a0:	6554                	.insn	2, 0x6554
   112a2:	66207473          	csrrci	s0,0x662,0
   112a6:	7361                	.insn	2, 0x7361
   112a8:	5f74                	.insn	2, 0x5f74
   112aa:	7372                	.insn	2, 0x7372
   112ac:	7271                	.insn	2, 0x7271
   112ae:	2874                	.insn	2, 0x2874
   112b0:	2978                	.insn	2, 0x2978
   112b2:	2d20                	.insn	2, 0x2d20
   112b4:	2d2d                	.insn	2, 0x2d2d
   112b6:	0000                	.insn	2, 0x
   112b8:	7372                	.insn	2, 0x7372
   112ba:	7271                	.insn	2, 0x7271
   112bc:	2874                	.insn	2, 0x2874
   112be:	2931                	.insn	2, 0x2931
   112c0:	0000                	.insn	2, 0x
   112c2:	0000                	.insn	2, 0x
   112c4:	7372                	.insn	2, 0x7372
   112c6:	7271                	.insn	2, 0x7271
   112c8:	2874                	.insn	2, 0x2874
   112ca:	3631                	.insn	2, 0x3631
   112cc:	0029                	.insn	2, 0x0029
   112ce:	0000                	.insn	2, 0x
   112d0:	7372                	.insn	2, 0x7372
   112d2:	7271                	.insn	2, 0x7271
   112d4:	2874                	.insn	2, 0x2874
   112d6:	3031                	.insn	2, 0x3031
   112d8:	3432                	.insn	2, 0x3432
   112da:	0029                	.insn	2, 0x0029
   112dc:	2d0a                	.insn	2, 0x2d0a
   112de:	2d2d                	.insn	2, 0x2d2d
   112e0:	5420                	.insn	2, 0x5420
   112e2:	7365                	.insn	2, 0x7365
   112e4:	2074                	.insn	2, 0x2074
   112e6:	6166                	.insn	2, 0x6166
   112e8:	645f7473          	csrrci	s0,hvip,30
   112ec:	7369                	.insn	2, 0x7369
   112ee:	6174                	.insn	2, 0x6174
   112f0:	636e                	.insn	2, 0x636e
   112f2:	5f65                	.insn	2, 0x5f65
   112f4:	29286433          	.insn	4, 0x29286433
   112f8:	2d20                	.insn	2, 0x2d20
   112fa:	2d2d                	.insn	2, 0x2d2d
   112fc:	0000                	.insn	2, 0x
   112fe:	0000                	.insn	2, 0x
   11300:	6964                	.insn	2, 0x6964
   11302:	33287473          	csrrci	s0,mhpmevent18,16
   11306:	342c                	.insn	2, 0x342c
   11308:	302c                	.insn	2, 0x302c
   1130a:	0029                	.insn	2, 0x0029
   1130c:	6964                	.insn	2, 0x6964
   1130e:	31287473          	csrrci	s0,0x312,16
   11312:	2c30                	.insn	2, 0x2c30
   11314:	2c30                	.insn	2, 0x2c30
   11316:	2930                	.insn	2, 0x2930
   11318:	0000                	.insn	2, 0x
   1131a:	0000                	.insn	2, 0x
   1131c:	6964                	.insn	2, 0x6964
   1131e:	31287473          	csrrci	s0,0x312,16
   11322:	2c30                	.insn	2, 0x2c30
   11324:	3031                	.insn	2, 0x3031
   11326:	312c                	.insn	2, 0x312c
   11328:	2930                	.insn	2, 0x2930
   1132a:	0000                	.insn	2, 0x
   1132c:	3d0a                	.insn	2, 0x3d0a
   1132e:	3d3d                	.insn	2, 0x3d3d
   11330:	4120                	.insn	2, 0x4120
   11332:	6c6c                	.insn	2, 0x6c6c
   11334:	7420                	.insn	2, 0x7420
   11336:	7365                	.insn	2, 0x7365
   11338:	7374                	.insn	2, 0x7374
   1133a:	7020                	.insn	2, 0x7020
   1133c:	7361                	.insn	2, 0x7361
   1133e:	20646573          	csrrsi	a0,0x206,8
   11342:	3d3d                	.insn	2, 0x3d3d
   11344:	003d                	.insn	2, 0x003d

Disassembly of section .riscv.attributes:

00000000 <.riscv.attributes>:
   0:	3641                	.insn	2, 0x3641
   2:	0000                	.insn	2, 0x
   4:	7200                	.insn	2, 0x7200
   6:	7369                	.insn	2, 0x7369
   8:	01007663          	bgeu	zero,a6,14 <_start-0xffec>
   c:	002c                	.insn	2, 0x002c
   e:	0000                	.insn	2, 0x
  10:	1004                	.insn	2, 0x1004
  12:	7205                	.insn	2, 0x7205
  14:	3376                	.insn	2, 0x3376
  16:	6932                	.insn	2, 0x6932
  18:	7032                	.insn	2, 0x7032
  1a:	5f31                	.insn	2, 0x5f31
  1c:	326d                	.insn	2, 0x326d
  1e:	3070                	.insn	2, 0x3070
  20:	7a5f 6369 7273      	.insn	6, 0x727363697a5f
  26:	7032                	.insn	2, 0x7032
  28:	5f30                	.insn	2, 0x5f30
  2a:	6d7a                	.insn	2, 0x6d7a
  2c:	756d                	.insn	2, 0x756d
  2e:	316c                	.insn	2, 0x316c
  30:	3070                	.insn	2, 0x3070
  32:	0800                	.insn	2, 0x0800
  34:	0a01                	.insn	2, 0x0a01
  36:	Address 0x36 is out of bounds.


Disassembly of section .comment:

00000000 <.comment>:
   0:	3a434347          	.insn	4, 0x3a434347
   4:	2820                	.insn	2, 0x2820
   6:	5078                	.insn	2, 0x5078
   8:	6361                	.insn	2, 0x6361
   a:	4e47206b          	.insn	4, 0x4e47206b
   e:	2055                	.insn	2, 0x2055
  10:	4952                	.insn	2, 0x4952
  12:	562d4353          	.insn	4, 0x562d4353
  16:	4520                	.insn	2, 0x4520
  18:	626d                	.insn	2, 0x626d
  1a:	6465                	.insn	2, 0x6465
  1c:	6564                	.insn	2, 0x6564
  1e:	2064                	.insn	2, 0x2064
  20:	20434347          	.insn	4, 0x20434347
  24:	7261                	.insn	2, 0x7261
  26:	366d                	.insn	2, 0x366d
  28:	2934                	.insn	2, 0x2934
  2a:	3120                	.insn	2, 0x3120
  2c:	2e34                	.insn	2, 0x2e34
  2e:	2e32                	.insn	2, 0x2e32
  30:	0030                	.insn	2, 0x0030

Disassembly of section .debug_line:

00000000 <.debug_line>:
   0:	0071                	.insn	2, 0x0071
   2:	0000                	.insn	2, 0x
   4:	0002                	.insn	2, 0x0002
   6:	0000001b          	.insn	4, 0x001b
   a:	0101                	.insn	2, 0x0101
   c:	000a0efb          	.insn	4, 0x000a0efb
  10:	0101                	.insn	2, 0x0101
  12:	0101                	.insn	2, 0x0101
  14:	0000                	.insn	2, 0x
  16:	0100                	.insn	2, 0x0100
  18:	7300                	.insn	2, 0x7300
  1a:	6174                	.insn	2, 0x6174
  1c:	7472                	.insn	2, 0x7472
  1e:	532e                	.insn	2, 0x532e
  20:	0000                	.insn	2, 0x
  22:	0000                	.insn	2, 0x
  24:	0000                	.insn	2, 0x
  26:	0205                	.insn	2, 0x0205
  28:	0000                	.insn	2, 0x
  2a:	0001                	.insn	2, 0x0001
  2c:	0316                	.insn	2, 0x0316
  2e:	00080903          	lb	s2,0(a6)
  32:	0301                	.insn	2, 0x0301
  34:	0901                	.insn	2, 0x0901
  36:	0008                	.insn	2, 0x0008
  38:	0301                	.insn	2, 0x0301
  3a:	0902                	.insn	2, 0x0902
  3c:	0008                	.insn	2, 0x0008
  3e:	0301                	.insn	2, 0x0301
  40:	0901                	.insn	2, 0x0901
  42:	0004                	.insn	2, 0x0004
  44:	0301                	.insn	2, 0x0301
  46:	0901                	.insn	2, 0x0901
  48:	0004                	.insn	2, 0x0004
  4a:	0301                	.insn	2, 0x0301
  4c:	0901                	.insn	2, 0x0901
  4e:	0004                	.insn	2, 0x0004
  50:	0301                	.insn	2, 0x0301
  52:	0904                	.insn	2, 0x0904
  54:	0004                	.insn	2, 0x0004
  56:	0301                	.insn	2, 0x0301
  58:	00040903          	lb	s2,0(s0)
  5c:	0301                	.insn	2, 0x0301
  5e:	0901                	.insn	2, 0x0901
  60:	0004                	.insn	2, 0x0004
  62:	0301                	.insn	2, 0x0301
  64:	0901                	.insn	2, 0x0901
  66:	0004                	.insn	2, 0x0004
  68:	0301                	.insn	2, 0x0301
  6a:	0904                	.insn	2, 0x0904
  6c:	0004                	.insn	2, 0x0004
  6e:	0901                	.insn	2, 0x0901
  70:	0004                	.insn	2, 0x0004
  72:	0100                	.insn	2, 0x0100
  74:	1d01                	.insn	2, 0x1d01
  76:	0006                	.insn	2, 0x0006
  78:	0500                	.insn	2, 0x0500
  7a:	0400                	.insn	2, 0x0400
  7c:	4500                	.insn	2, 0x4500
  7e:	0000                	.insn	2, 0x
  80:	0100                	.insn	2, 0x0100
  82:	0101                	.insn	2, 0x0101
  84:	000d0efb          	.insn	4, 0x000d0efb
  88:	0101                	.insn	2, 0x0101
  8a:	0101                	.insn	2, 0x0101
  8c:	0000                	.insn	2, 0x
  8e:	0100                	.insn	2, 0x0100
  90:	0000                	.insn	2, 0x
  92:	0101                	.insn	2, 0x0101
  94:	1f01                	.insn	2, 0x1f01
  96:	0004                	.insn	2, 0x0004
  98:	0000                	.insn	2, 0x
  9a:	2d00                	.insn	2, 0x2d00
  9c:	0000                	.insn	2, 0x
  9e:	7200                	.insn	2, 0x7200
  a0:	0000                	.insn	2, 0x
  a2:	b300                	.insn	2, 0xb300
  a4:	0000                	.insn	2, 0x
  a6:	0200                	.insn	2, 0x0200
  a8:	1f01                	.insn	2, 0x1f01
  aa:	0f02                	.insn	2, 0x0f02
  ac:	2605                	.insn	2, 0x2605
  ae:	0000                	.insn	2, 0x
  b0:	0000                	.insn	2, 0x
  b2:	0026                	.insn	2, 0x0026
  b4:	0000                	.insn	2, 0x
  b6:	ff00                	.insn	2, 0xff00
  b8:	0000                	.insn	2, 0x
  ba:	0100                	.insn	2, 0x0100
  bc:	0110                	.insn	2, 0x0110
  be:	0000                	.insn	2, 0x
  c0:	1a02                	.insn	2, 0x1a02
  c2:	0001                	.insn	2, 0x0001
  c4:	0300                	.insn	2, 0x0300
  c6:	3505                	.insn	2, 0x3505
  c8:	0500                	.insn	2, 0x0500
  ca:	3c02                	.insn	2, 0x3c02
  cc:	0100                	.insn	2, 0x0100
  ce:	0300                	.insn	2, 0x0300
  d0:	011d                	.insn	2, 0x011d
  d2:	0e05                	.insn	2, 0x0e05
  d4:	1c090103          	lb	sp,448(s2)
  d8:	0100                	.insn	2, 0x0100
  da:	1405                	.insn	2, 0x1405
  dc:	08090103          	lb	sp,128(s2)
  e0:	0100                	.insn	2, 0x0100
  e2:	0b05                	.insn	2, 0x0b05
  e4:	08090103          	lb	sp,128(s2)
  e8:	0100                	.insn	2, 0x0100
  ea:	1205                	.insn	2, 0x1205
  ec:	04090103          	lb	sp,64(s2)
  f0:	0100                	.insn	2, 0x0100
  f2:	0b05                	.insn	2, 0x0b05
  f4:	0c090003          	lb	zero,192(s2)
  f8:	0100                	.insn	2, 0x0100
  fa:	1005                	.insn	2, 0x1005
  fc:	0c090003          	lb	zero,192(s2)
 100:	0100                	.insn	2, 0x0100
 102:	0e05                	.insn	2, 0x0e05
 104:	04090003          	lb	zero,64(s2)
 108:	0100                	.insn	2, 0x0100
 10a:	0d05                	.insn	2, 0x0d05
 10c:	04097f03          	.insn	4, 0x04097f03
 110:	0100                	.insn	2, 0x0100
 112:	0c05                	.insn	2, 0x0c05
 114:	0c090003          	lb	zero,192(s2)
 118:	0100                	.insn	2, 0x0100
 11a:	04090203          	lb	tp,64(s2)
 11e:	0100                	.insn	2, 0x0100
 120:	0105                	.insn	2, 0x0105
 122:	04090103          	lb	sp,64(s2)
 126:	0100                	.insn	2, 0x0100
 128:	4a05                	.insn	2, 0x4a05
 12a:	14090203          	lb	tp,320(s2)
 12e:	0100                	.insn	2, 0x0100
 130:	0805                	.insn	2, 0x0805
 132:	18090103          	lb	sp,384(s2)
 136:	0100                	.insn	2, 0x0100
 138:	1e05                	.insn	2, 0x1e05
 13a:	0200                	.insn	2, 0x0200
 13c:	0104                	.insn	2, 0x0104
 13e:	08090003          	lb	zero,128(s2)
 142:	0100                	.insn	2, 0x0100
 144:	0306                	.insn	2, 0x0306
 146:	0900                	.insn	2, 0x0900
 148:	0004                	.insn	2, 0x0004
 14a:	0501                	.insn	2, 0x0501
 14c:	01030613          	addi	a2,t1,16
 150:	0409                	.insn	2, 0x0409
 152:	0100                	.insn	2, 0x0100
 154:	2105                	.insn	2, 0x2105
 156:	04090003          	lb	zero,64(s2)
 15a:	0100                	.insn	2, 0x0100
 15c:	0e05                	.insn	2, 0x0e05
 15e:	04090103          	lb	sp,64(s2)
 162:	0100                	.insn	2, 0x0100
 164:	0505                	.insn	2, 0x0505
 166:	08090003          	lb	zero,128(s2)
 16a:	0100                	.insn	2, 0x0100
 16c:	1305                	.insn	2, 0x1305
 16e:	04090103          	lb	sp,64(s2)
 172:	0100                	.insn	2, 0x0100
 174:	2005                	.insn	2, 0x2005
 176:	0c090103          	lb	sp,192(s2)
 17a:	0100                	.insn	2, 0x0100
 17c:	2605                	.insn	2, 0x2605
 17e:	0c090003          	lb	zero,192(s2)
 182:	0100                	.insn	2, 0x0100
 184:	1305                	.insn	2, 0x1305
 186:	04090003          	lb	zero,64(s2)
 18a:	0100                	.insn	2, 0x0100
 18c:	0c05                	.insn	2, 0x0c05
 18e:	0c090103          	lb	sp,192(s2)
 192:	0100                	.insn	2, 0x0100
 194:	1705                	.insn	2, 0x1705
 196:	0c090103          	lb	sp,192(s2)
 19a:	0100                	.insn	2, 0x0100
 19c:	1e05                	.insn	2, 0x1e05
 19e:	10090103          	lb	sp,256(s2)
 1a2:	0100                	.insn	2, 0x0100
 1a4:	1605                	.insn	2, 0x1605
 1a6:	0c090003          	lb	zero,192(s2)
 1aa:	0100                	.insn	2, 0x0100
 1ac:	1f05                	.insn	2, 0x1f05
 1ae:	0200                	.insn	2, 0x0200
 1b0:	0204                	.insn	2, 0x0204
 1b2:	0c097b03          	.insn	4, 0x0c097b03
 1b6:	0100                	.insn	2, 0x0100
 1b8:	1805                	.insn	2, 0x1805
 1ba:	0200                	.insn	2, 0x0200
 1bc:	0104                	.insn	2, 0x0104
 1be:	0c090003          	lb	zero,192(s2)
 1c2:	0100                	.insn	2, 0x0100
 1c4:	0c05                	.insn	2, 0x0c05
 1c6:	08090803          	lb	a6,128(s2)
 1ca:	0100                	.insn	2, 0x0100
 1cc:	0105                	.insn	2, 0x0105
 1ce:	04090103          	lb	sp,64(s2)
 1d2:	0100                	.insn	2, 0x0100
 1d4:	4a05                	.insn	2, 0x4a05
 1d6:	14090103          	lb	sp,320(s2)
 1da:	0100                	.insn	2, 0x0100
 1dc:	0805                	.insn	2, 0x0805
 1de:	18090103          	lb	sp,384(s2)
 1e2:	0100                	.insn	2, 0x0100
 1e4:	1e05                	.insn	2, 0x1e05
 1e6:	0200                	.insn	2, 0x0200
 1e8:	0104                	.insn	2, 0x0104
 1ea:	08090003          	lb	zero,128(s2)
 1ee:	0100                	.insn	2, 0x0100
 1f0:	0306                	.insn	2, 0x0306
 1f2:	0900                	.insn	2, 0x0900
 1f4:	0004                	.insn	2, 0x0004
 1f6:	0501                	.insn	2, 0x0501
 1f8:	01030613          	addi	a2,t1,16
 1fc:	0409                	.insn	2, 0x0409
 1fe:	0100                	.insn	2, 0x0100
 200:	0e05                	.insn	2, 0x0e05
 202:	04090103          	lb	sp,64(s2)
 206:	0100                	.insn	2, 0x0100
 208:	0505                	.insn	2, 0x0505
 20a:	08090003          	lb	zero,128(s2)
 20e:	0100                	.insn	2, 0x0100
 210:	1305                	.insn	2, 0x1305
 212:	04090103          	lb	sp,64(s2)
 216:	0100                	.insn	2, 0x0100
 218:	2005                	.insn	2, 0x2005
 21a:	0c090103          	lb	sp,192(s2)
 21e:	0100                	.insn	2, 0x0100
 220:	2605                	.insn	2, 0x2605
 222:	0c090003          	lb	zero,192(s2)
 226:	0100                	.insn	2, 0x0100
 228:	1305                	.insn	2, 0x1305
 22a:	04090003          	lb	zero,64(s2)
 22e:	0100                	.insn	2, 0x0100
 230:	0c05                	.insn	2, 0x0c05
 232:	0c090103          	lb	sp,192(s2)
 236:	0100                	.insn	2, 0x0100
 238:	1705                	.insn	2, 0x1705
 23a:	0c090103          	lb	sp,192(s2)
 23e:	0100                	.insn	2, 0x0100
 240:	1f05                	.insn	2, 0x1f05
 242:	0200                	.insn	2, 0x0200
 244:	0204                	.insn	2, 0x0204
 246:	10097c03          	.insn	4, 0x10097c03
 24a:	0100                	.insn	2, 0x0100
 24c:	1805                	.insn	2, 0x1805
 24e:	0200                	.insn	2, 0x0200
 250:	0104                	.insn	2, 0x0104
 252:	0c090003          	lb	zero,192(s2)
 256:	0100                	.insn	2, 0x0100
 258:	0c05                	.insn	2, 0x0c05
 25a:	08090703          	lb	a4,128(s2)
 25e:	0100                	.insn	2, 0x0100
 260:	0105                	.insn	2, 0x0105
 262:	04090103          	lb	sp,64(s2)
 266:	0100                	.insn	2, 0x0100
 268:	2e05                	.insn	2, 0x2e05
 26a:	14090103          	lb	sp,320(s2)
 26e:	0100                	.insn	2, 0x0100
 270:	0e05                	.insn	2, 0x0e05
 272:	18090103          	lb	sp,384(s2)
 276:	0100                	.insn	2, 0x0100
 278:	0b05                	.insn	2, 0x0b05
 27a:	04090103          	lb	sp,64(s2)
 27e:	0100                	.insn	2, 0x0100
 280:	0f05                	.insn	2, 0x0f05
 282:	04090103          	lb	sp,64(s2)
 286:	0100                	.insn	2, 0x0100
 288:	0c05                	.insn	2, 0x0c05
 28a:	08090003          	lb	zero,128(s2)
 28e:	0100                	.insn	2, 0x0100
 290:	1b05                	.insn	2, 0x1b05
 292:	0200                	.insn	2, 0x0200
 294:	0104                	.insn	2, 0x0104
 296:	04090003          	lb	zero,64(s2)
 29a:	0100                	.insn	2, 0x0100
 29c:	0b05                	.insn	2, 0x0b05
 29e:	10090103          	lb	sp,256(s2)
 2a2:	0100                	.insn	2, 0x0100
 2a4:	0c090103          	lb	sp,192(s2)
 2a8:	0100                	.insn	2, 0x0100
 2aa:	0c05                	.insn	2, 0x0c05
 2ac:	0c097d03          	.insn	4, 0x0c097d03
 2b0:	0100                	.insn	2, 0x0100
 2b2:	08090503          	lb	a0,128(s2)
 2b6:	0100                	.insn	2, 0x0100
 2b8:	0105                	.insn	2, 0x0105
 2ba:	04090103          	lb	sp,64(s2)
 2be:	0100                	.insn	2, 0x0100
 2c0:	2b05                	.insn	2, 0x2b05
 2c2:	14090103          	lb	sp,320(s2)
 2c6:	0100                	.insn	2, 0x0100
 2c8:	0c05                	.insn	2, 0x0c05
 2ca:	18090103          	lb	sp,384(s2)
 2ce:	0100                	.insn	2, 0x0100
 2d0:	0105                	.insn	2, 0x0105
 2d2:	10090103          	lb	sp,256(s2)
 2d6:	0100                	.insn	2, 0x0100
 2d8:	2305                	.insn	2, 0x2305
 2da:	14090603          	lb	a2,320(s2)
 2de:	0100                	.insn	2, 0x0100
 2e0:	0b05                	.insn	2, 0x0b05
 2e2:	14090203          	lb	tp,320(s2)
 2e6:	0100                	.insn	2, 0x0100
 2e8:	0605                	.insn	2, 0x0605
 2ea:	0c090103          	lb	sp,192(s2)
 2ee:	0100                	.insn	2, 0x0100
 2f0:	0805                	.insn	2, 0x0805
 2f2:	0c090103          	lb	sp,192(s2)
 2f6:	0100                	.insn	2, 0x0100
 2f8:	0c05                	.insn	2, 0x0c05
 2fa:	08090103          	lb	sp,128(s2)
 2fe:	0100                	.insn	2, 0x0100
 300:	0a05                	.insn	2, 0x0a05
 302:	0c090103          	lb	sp,192(s2)
 306:	0100                	.insn	2, 0x0100
 308:	1805                	.insn	2, 0x1805
 30a:	10090303          	lb	t1,256(s2)
 30e:	0100                	.insn	2, 0x0100
 310:	1605                	.insn	2, 0x1605
 312:	0200                	.insn	2, 0x0200
 314:	0104                	.insn	2, 0x0104
 316:	10090003          	lb	zero,256(s2)
 31a:	0100                	.insn	2, 0x0100
 31c:	1005                	.insn	2, 0x1005
 31e:	0200                	.insn	2, 0x0200
 320:	0104                	.insn	2, 0x0104
 322:	0c090003          	lb	zero,192(s2)
 326:	0100                	.insn	2, 0x0100
 328:	0e05                	.insn	2, 0x0e05
 32a:	08090103          	lb	sp,128(s2)
 32e:	0100                	.insn	2, 0x0100
 330:	1305                	.insn	2, 0x1305
 332:	0c090103          	lb	sp,192(s2)
 336:	0100                	.insn	2, 0x0100
 338:	1405                	.insn	2, 0x1405
 33a:	10097d03          	.insn	4, 0x10097d03
 33e:	0100                	.insn	2, 0x0100
 340:	0605                	.insn	2, 0x0605
 342:	08090603          	lb	a2,128(s2)
 346:	0100                	.insn	2, 0x0100
 348:	0505                	.insn	2, 0x0505
 34a:	0c090103          	lb	sp,192(s2)
 34e:	0100                	.insn	2, 0x0100
 350:	0105                	.insn	2, 0x0105
 352:	28090103          	lb	sp,640(s2)
 356:	0100                	.insn	2, 0x0100
 358:	1905                	.insn	2, 0x1905
 35a:	14090203          	lb	tp,320(s2)
 35e:	0100                	.insn	2, 0x0100
 360:	0505                	.insn	2, 0x0505
 362:	18090103          	lb	sp,384(s2)
 366:	0100                	.insn	2, 0x0100
 368:	0105                	.insn	2, 0x0105
 36a:	1c090103          	lb	sp,448(s2)
 36e:	0100                	.insn	2, 0x0100
 370:	1e05                	.insn	2, 0x1e05
 372:	14090603          	lb	a2,320(s2)
 376:	0100                	.insn	2, 0x0100
 378:	0c05                	.insn	2, 0x0c05
 37a:	14090103          	lb	sp,320(s2)
 37e:	0100                	.insn	2, 0x0100
 380:	0b05                	.insn	2, 0x0b05
 382:	04090103          	lb	sp,64(s2)
 386:	0100                	.insn	2, 0x0100
 388:	1705                	.insn	2, 0x1705
 38a:	0200                	.insn	2, 0x0200
 38c:	0204                	.insn	2, 0x0204
 38e:	04090003          	lb	zero,64(s2)
 392:	0100                	.insn	2, 0x0100
 394:	0e05                	.insn	2, 0x0e05
 396:	0200                	.insn	2, 0x0200
 398:	0104                	.insn	2, 0x0104
 39a:	0c090003          	lb	zero,192(s2)
 39e:	0100                	.insn	2, 0x0100
 3a0:	0c05                	.insn	2, 0x0c05
 3a2:	0200                	.insn	2, 0x0200
 3a4:	0104                	.insn	2, 0x0104
 3a6:	0c090003          	lb	zero,192(s2)
 3aa:	0100                	.insn	2, 0x0100
 3ac:	08090103          	lb	sp,128(s2)
 3b0:	0100                	.insn	2, 0x0100
 3b2:	0105                	.insn	2, 0x0105
 3b4:	04090103          	lb	sp,64(s2)
 3b8:	0100                	.insn	2, 0x0100
 3ba:	1905                	.insn	2, 0x1905
 3bc:	14090103          	lb	sp,320(s2)
 3c0:	0100                	.insn	2, 0x0100
 3c2:	0505                	.insn	2, 0x0505
 3c4:	14090103          	lb	sp,320(s2)
 3c8:	0100                	.insn	2, 0x0100
 3ca:	0200                	.insn	2, 0x0200
 3cc:	0104                	.insn	2, 0x0104
 3ce:	0306                	.insn	2, 0x0306
 3d0:	0900                	.insn	2, 0x0900
 3d2:	000c                	.insn	2, 0x000c
 3d4:	0601                	.insn	2, 0x0601
 3d6:	18090103          	lb	sp,384(s2)
 3da:	0100                	.insn	2, 0x0100
 3dc:	0c05                	.insn	2, 0x0c05
 3de:	24090103          	lb	sp,576(s2)
 3e2:	0100                	.insn	2, 0x0100
 3e4:	0105                	.insn	2, 0x0105
 3e6:	04090103          	lb	sp,64(s2)
 3ea:	0100                	.insn	2, 0x0100
 3ec:	2505                	.insn	2, 0x2505
 3ee:	14090203          	lb	tp,320(s2)
 3f2:	0100                	.insn	2, 0x0100
 3f4:	0505                	.insn	2, 0x0505
 3f6:	30090103          	lb	sp,768(s2)
 3fa:	0100                	.insn	2, 0x0100
 3fc:	0200                	.insn	2, 0x0200
 3fe:	0104                	.insn	2, 0x0104
 400:	0306                	.insn	2, 0x0306
 402:	0900                	.insn	2, 0x0900
 404:	000c                	.insn	2, 0x000c
 406:	0501                	.insn	2, 0x0501
 408:	060c                	.insn	2, 0x060c
 40a:	18090103          	lb	sp,384(s2)
 40e:	0100                	.insn	2, 0x0100
 410:	0105                	.insn	2, 0x0105
 412:	04090103          	lb	sp,64(s2)
 416:	0100                	.insn	2, 0x0100
 418:	1005                	.insn	2, 0x1005
 41a:	14090903          	lb	s2,320(s2)
 41e:	0100                	.insn	2, 0x0100
 420:	0505                	.insn	2, 0x0505
 422:	10090403          	lb	s0,256(s2)
 426:	0100                	.insn	2, 0x0100
 428:	1405                	.insn	2, 0x1405
 42a:	5c090203          	lb	tp,1472(s2)
 42e:	0100                	.insn	2, 0x0100
 430:	1205                	.insn	2, 0x1205
 432:	0200                	.insn	2, 0x0200
 434:	0104                	.insn	2, 0x0104
 436:	0c090003          	lb	zero,192(s2)
 43a:	0100                	.insn	2, 0x0100
 43c:	1505                	.insn	2, 0x1505
 43e:	08090103          	lb	sp,128(s2)
 442:	0100                	.insn	2, 0x0100
 444:	1305                	.insn	2, 0x1305
 446:	0200                	.insn	2, 0x0200
 448:	0104                	.insn	2, 0x0104
 44a:	0c090003          	lb	zero,192(s2)
 44e:	0100                	.insn	2, 0x0100
 450:	0505                	.insn	2, 0x0505
 452:	08090203          	lb	tp,128(s2)
 456:	0100                	.insn	2, 0x0100
 458:	1205                	.insn	2, 0x1205
 45a:	04090203          	lb	tp,64(s2)
 45e:	0100                	.insn	2, 0x0100
 460:	1005                	.insn	2, 0x1005
 462:	0200                	.insn	2, 0x0200
 464:	0104                	.insn	2, 0x0104
 466:	0c090003          	lb	zero,192(s2)
 46a:	0100                	.insn	2, 0x0100
 46c:	1305                	.insn	2, 0x1305
 46e:	08090103          	lb	sp,128(s2)
 472:	0100                	.insn	2, 0x0100
 474:	1105                	.insn	2, 0x1105
 476:	0200                	.insn	2, 0x0200
 478:	0104                	.insn	2, 0x0104
 47a:	0c090003          	lb	zero,192(s2)
 47e:	0100                	.insn	2, 0x0100
 480:	0505                	.insn	2, 0x0505
 482:	08090303          	lb	t1,128(s2)
 486:	0100                	.insn	2, 0x0100
 488:	64090303          	lb	t1,1600(s2)
 48c:	0100                	.insn	2, 0x0100
 48e:	4c090103          	lb	sp,1216(s2)
 492:	0100                	.insn	2, 0x0100
 494:	24090303          	lb	t1,576(s2)
 498:	0100                	.insn	2, 0x0100
 49a:	54090103          	lb	sp,1344(s2)
 49e:	0100                	.insn	2, 0x0100
 4a0:	24090203          	lb	tp,576(s2)
 4a4:	0100                	.insn	2, 0x0100
 4a6:	0c05                	.insn	2, 0x0c05
 4a8:	24090203          	lb	tp,576(s2)
 4ac:	0100                	.insn	2, 0x0100
 4ae:	0105                	.insn	2, 0x0105
 4b0:	04090103          	lb	sp,64(s2)
 4b4:	0100                	.insn	2, 0x0100
 4b6:	1a05                	.insn	2, 0x1a05
 4b8:	14090603          	lb	a2,320(s2)
 4bc:	0100                	.insn	2, 0x0100
 4be:	0905                	.insn	2, 0x0905
 4c0:	14090103          	lb	sp,320(s2)
 4c4:	0100                	.insn	2, 0x0100
 4c6:	0b05                	.insn	2, 0x0b05
 4c8:	04090103          	lb	sp,64(s2)
 4cc:	0100                	.insn	2, 0x0100
 4ce:	1105                	.insn	2, 0x1105
 4d0:	04090103          	lb	sp,64(s2)
 4d4:	0100                	.insn	2, 0x0100
 4d6:	0b05                	.insn	2, 0x0b05
 4d8:	08090003          	lb	zero,128(s2)
 4dc:	0100                	.insn	2, 0x0100
 4de:	0e05                	.insn	2, 0x0e05
 4e0:	0c090103          	lb	sp,192(s2)
 4e4:	0100                	.insn	2, 0x0100
 4e6:	0c05                	.insn	2, 0x0c05
 4e8:	0c097e03          	.insn	4, 0x0c097e03
 4ec:	0100                	.insn	2, 0x0100
 4ee:	08090403          	lb	s0,128(s2)
 4f2:	0100                	.insn	2, 0x0100
 4f4:	0105                	.insn	2, 0x0105
 4f6:	04090103          	lb	sp,64(s2)
 4fa:	0100                	.insn	2, 0x0100
 4fc:	4905                	.insn	2, 0x4905
 4fe:	14090803          	lb	a6,320(s2)
 502:	0100                	.insn	2, 0x0100
 504:	1805                	.insn	2, 0x1805
 506:	20090103          	lb	sp,512(s2)
 50a:	0100                	.insn	2, 0x0100
 50c:	0b05                	.insn	2, 0x0b05
 50e:	10090103          	lb	sp,256(s2)
 512:	0100                	.insn	2, 0x0100
 514:	0f05                	.insn	2, 0x0f05
 516:	04090103          	lb	sp,64(s2)
 51a:	0100                	.insn	2, 0x0100
 51c:	0c05                	.insn	2, 0x0c05
 51e:	10090003          	lb	zero,256(s2)
 522:	0100                	.insn	2, 0x0100
 524:	1405                	.insn	2, 0x1405
 526:	0c090103          	lb	sp,192(s2)
 52a:	0100                	.insn	2, 0x0100
 52c:	0b05                	.insn	2, 0x0b05
 52e:	30090103          	lb	sp,768(s2)
 532:	0100                	.insn	2, 0x0100
 534:	24090103          	lb	sp,576(s2)
 538:	0100                	.insn	2, 0x0100
 53a:	0c05                	.insn	2, 0x0c05
 53c:	24097c03          	.insn	4, 0x24097c03
 540:	0100                	.insn	2, 0x0100
 542:	10090603          	lb	a2,256(s2)
 546:	0100                	.insn	2, 0x0100
 548:	0105                	.insn	2, 0x0105
 54a:	08090103          	lb	sp,128(s2)
 54e:	0100                	.insn	2, 0x0100
 550:	5705                	.insn	2, 0x5705
 552:	18090303          	lb	t1,384(s2)
 556:	0100                	.insn	2, 0x0100
 558:	0805                	.insn	2, 0x0805
 55a:	30090103          	lb	sp,768(s2)
 55e:	0100                	.insn	2, 0x0100
 560:	2105                	.insn	2, 0x2105
 562:	0200                	.insn	2, 0x0200
 564:	0104                	.insn	2, 0x0104
 566:	10090003          	lb	zero,256(s2)
 56a:	0100                	.insn	2, 0x0100
 56c:	0306                	.insn	2, 0x0306
 56e:	0900                	.insn	2, 0x0900
 570:	0008                	.insn	2, 0x0008
 572:	0501                	.insn	2, 0x0501
 574:	0618                	.insn	2, 0x0618
 576:	04090103          	lb	sp,64(s2)
 57a:	0100                	.insn	2, 0x0100
 57c:	2605                	.insn	2, 0x2605
 57e:	10090003          	lb	zero,256(s2)
 582:	0100                	.insn	2, 0x0100
 584:	0e05                	.insn	2, 0x0e05
 586:	08090103          	lb	sp,128(s2)
 58a:	0100                	.insn	2, 0x0100
 58c:	0505                	.insn	2, 0x0505
 58e:	08090003          	lb	zero,128(s2)
 592:	0100                	.insn	2, 0x0100
 594:	1305                	.insn	2, 0x1305
 596:	04090103          	lb	sp,64(s2)
 59a:	0100                	.insn	2, 0x0100
 59c:	2005                	.insn	2, 0x2005
 59e:	24090103          	lb	sp,576(s2)
 5a2:	0100                	.insn	2, 0x0100
 5a4:	2605                	.insn	2, 0x2605
 5a6:	50090003          	lb	zero,1280(s2)
 5aa:	0100                	.insn	2, 0x0100
 5ac:	1305                	.insn	2, 0x1305
 5ae:	08090003          	lb	zero,128(s2)
 5b2:	0100                	.insn	2, 0x0100
 5b4:	0c05                	.insn	2, 0x0c05
 5b6:	18090103          	lb	sp,384(s2)
 5ba:	0100                	.insn	2, 0x0100
 5bc:	1705                	.insn	2, 0x1705
 5be:	24090103          	lb	sp,576(s2)
 5c2:	0100                	.insn	2, 0x0100
 5c4:	1f05                	.insn	2, 0x1f05
 5c6:	30090103          	lb	sp,768(s2)
 5ca:	0100                	.insn	2, 0x0100
 5cc:	1605                	.insn	2, 0x1605
 5ce:	2c090003          	lb	zero,704(s2)
 5d2:	0100                	.insn	2, 0x0100
 5d4:	1f05                	.insn	2, 0x1f05
 5d6:	0200                	.insn	2, 0x0200
 5d8:	0204                	.insn	2, 0x0204
 5da:	18097b03          	.insn	4, 0x18097b03
 5de:	0100                	.insn	2, 0x0100
 5e0:	1805                	.insn	2, 0x1805
 5e2:	0200                	.insn	2, 0x0200
 5e4:	0104                	.insn	2, 0x0104
 5e6:	0c090003          	lb	zero,192(s2)
 5ea:	0100                	.insn	2, 0x0100
 5ec:	0c05                	.insn	2, 0x0c05
 5ee:	08090803          	lb	a6,128(s2)
 5f2:	0100                	.insn	2, 0x0100
 5f4:	0105                	.insn	2, 0x0105
 5f6:	08090103          	lb	sp,128(s2)
 5fa:	0100                	.insn	2, 0x0100
 5fc:	5705                	.insn	2, 0x5705
 5fe:	28090303          	lb	t1,640(s2)
 602:	0100                	.insn	2, 0x0100
 604:	0805                	.insn	2, 0x0805
 606:	20090103          	lb	sp,512(s2)
 60a:	0100                	.insn	2, 0x0100
 60c:	2105                	.insn	2, 0x2105
 60e:	0200                	.insn	2, 0x0200
 610:	0104                	.insn	2, 0x0104
 612:	10090003          	lb	zero,256(s2)
 616:	0100                	.insn	2, 0x0100
 618:	0306                	.insn	2, 0x0306
 61a:	0900                	.insn	2, 0x0900
 61c:	0008                	.insn	2, 0x0008
 61e:	0501                	.insn	2, 0x0501
 620:	0618                	.insn	2, 0x0618
 622:	04090103          	lb	sp,64(s2)
 626:	0100                	.insn	2, 0x0100
 628:	0e05                	.insn	2, 0x0e05
 62a:	10090103          	lb	sp,256(s2)
 62e:	0100                	.insn	2, 0x0100
 630:	0505                	.insn	2, 0x0505
 632:	08090003          	lb	zero,128(s2)
 636:	0100                	.insn	2, 0x0100
 638:	1305                	.insn	2, 0x1305
 63a:	04090103          	lb	sp,64(s2)
 63e:	0100                	.insn	2, 0x0100
 640:	2005                	.insn	2, 0x2005
 642:	24090103          	lb	sp,576(s2)
 646:	0100                	.insn	2, 0x0100
 648:	2605                	.insn	2, 0x2605
 64a:	50090003          	lb	zero,1280(s2)
 64e:	0100                	.insn	2, 0x0100
 650:	1305                	.insn	2, 0x1305
 652:	08090003          	lb	zero,128(s2)
 656:	0100                	.insn	2, 0x0100
 658:	0c05                	.insn	2, 0x0c05
 65a:	18090103          	lb	sp,384(s2)
 65e:	0100                	.insn	2, 0x0100
 660:	1705                	.insn	2, 0x1705
 662:	24090103          	lb	sp,576(s2)
 666:	0100                	.insn	2, 0x0100
 668:	1f05                	.insn	2, 0x1f05
 66a:	0200                	.insn	2, 0x0200
 66c:	0204                	.insn	2, 0x0204
 66e:	30097c03          	.insn	4, 0x30097c03
 672:	0100                	.insn	2, 0x0100
 674:	1805                	.insn	2, 0x1805
 676:	0200                	.insn	2, 0x0200
 678:	0104                	.insn	2, 0x0104
 67a:	0c090003          	lb	zero,192(s2)
 67e:	0100                	.insn	2, 0x0100
 680:	0c05                	.insn	2, 0x0c05
 682:	08090603          	lb	a2,128(s2)
 686:	0100                	.insn	2, 0x0100
 688:	0105                	.insn	2, 0x0105
 68a:	08090103          	lb	sp,128(s2)
 68e:	0100                	.insn	2, 0x0100
 690:	1809                	.insn	2, 0x1809
 692:	0000                	.insn	2, 0x
 694:	0101                	.insn	2, 0x0101
 696:	0000006b          	.insn	4, 0x006b
 69a:	0002                	.insn	2, 0x0002
 69c:	0021                	.insn	2, 0x0021
 69e:	0000                	.insn	2, 0x
 6a0:	0101                	.insn	2, 0x0101
 6a2:	000a0efb          	.insn	4, 0x000a0efb
 6a6:	0101                	.insn	2, 0x0101
 6a8:	0101                	.insn	2, 0x0101
 6aa:	0000                	.insn	2, 0x
 6ac:	0100                	.insn	2, 0x0100
 6ae:	7000                	.insn	2, 0x7000
 6b0:	7265                	.insn	2, 0x7265
 6b2:	6366                	.insn	2, 0x6366
 6b4:	746e756f          	jal	a0,e7dfa <__stack_top+0xd5aaa>
 6b8:	7265                	.insn	2, 0x7265
 6ba:	532e                	.insn	2, 0x532e
 6bc:	0000                	.insn	2, 0x
 6be:	0000                	.insn	2, 0x
 6c0:	0000                	.insn	2, 0x
 6c2:	0205                	.insn	2, 0x0205
 6c4:	0c1c                	.insn	2, 0x0c1c
 6c6:	0001                	.insn	2, 0x0001
 6c8:	09010317          	auipc	t1,0x9010
 6cc:	0004                	.insn	2, 0x0004
 6ce:	0301                	.insn	2, 0x0301
 6d0:	0901                	.insn	2, 0x0901
 6d2:	0004                	.insn	2, 0x0004
 6d4:	0301                	.insn	2, 0x0301
 6d6:	0901                	.insn	2, 0x0901
 6d8:	0004                	.insn	2, 0x0004
 6da:	0301                	.insn	2, 0x0301
 6dc:	0901                	.insn	2, 0x0901
 6de:	0004                	.insn	2, 0x0004
 6e0:	0301                	.insn	2, 0x0301
 6e2:	0908                	.insn	2, 0x0908
 6e4:	0004                	.insn	2, 0x0004
 6e6:	0301                	.insn	2, 0x0301
 6e8:	0901                	.insn	2, 0x0901
 6ea:	0004                	.insn	2, 0x0004
 6ec:	0301                	.insn	2, 0x0301
 6ee:	0901                	.insn	2, 0x0901
 6f0:	0004                	.insn	2, 0x0004
 6f2:	0301                	.insn	2, 0x0301
 6f4:	0901                	.insn	2, 0x0901
 6f6:	0004                	.insn	2, 0x0004
 6f8:	0301                	.insn	2, 0x0301
 6fa:	0901                	.insn	2, 0x0901
 6fc:	0004                	.insn	2, 0x0004
 6fe:	0901                	.insn	2, 0x0901
 700:	0004                	.insn	2, 0x0004
 702:	0100                	.insn	2, 0x0100
 704:	fe01                	.insn	2, 0xfe01
 706:	05000003          	lb	zero,80(zero) # 50 <_start-0xffb0>
 70a:	0400                	.insn	2, 0x0400
 70c:	3c00                	.insn	2, 0x3c00
 70e:	0000                	.insn	2, 0x
 710:	0100                	.insn	2, 0x0100
 712:	0101                	.insn	2, 0x0101
 714:	000d0efb          	.insn	4, 0x000d0efb
 718:	0101                	.insn	2, 0x0101
 71a:	0101                	.insn	2, 0x0101
 71c:	0000                	.insn	2, 0x
 71e:	0100                	.insn	2, 0x0100
 720:	0000                	.insn	2, 0x
 722:	0101                	.insn	2, 0x0101
 724:	1f01                	.insn	2, 0x1f01
 726:	00000003          	lb	zero,0(zero) # 0 <_start-0x10000>
 72a:	2d00                	.insn	2, 0x2d00
 72c:	0000                	.insn	2, 0x
 72e:	7200                	.insn	2, 0x7200
 730:	0000                	.insn	2, 0x
 732:	0200                	.insn	2, 0x0200
 734:	1f01                	.insn	2, 0x1f01
 736:	0f02                	.insn	2, 0x0f02
 738:	2304                	.insn	2, 0x2304
 73a:	0001                	.insn	2, 0x0001
 73c:	0000                	.insn	2, 0x
 73e:	00000123          	sb	zero,2(zero) # 2 <_start-0xfffe>
 742:	ff00                	.insn	2, 0xff00
 744:	0000                	.insn	2, 0x
 746:	0100                	.insn	2, 0x0100
 748:	0110                	.insn	2, 0x0110
 74a:	0000                	.insn	2, 0x
 74c:	0502                	.insn	2, 0x0502
 74e:	02050023          	sb	zero,32(a0)
 752:	0c44                	.insn	2, 0x0c44
 754:	0001                	.insn	2, 0x0001
 756:	05010a03          	lb	s4,80(sp)
 75a:	0308                	.insn	2, 0x0308
 75c:	0901                	.insn	2, 0x0901
 75e:	0014                	.insn	2, 0x0014
 760:	0501                	.insn	2, 0x0501
 762:	0018                	.insn	2, 0x0018
 764:	0402                	.insn	2, 0x0402
 766:	0301                	.insn	2, 0x0301
 768:	0900                	.insn	2, 0x0900
 76a:	0008                	.insn	2, 0x0008
 76c:	0601                	.insn	2, 0x0601
 76e:	04090003          	lb	zero,64(s2)
 772:	0100                	.insn	2, 0x0100
 774:	0905                	.insn	2, 0x0905
 776:	0306                	.insn	2, 0x0306
 778:	0901                	.insn	2, 0x0901
 77a:	0004                	.insn	2, 0x0004
 77c:	0501                	.insn	2, 0x0501
 77e:	0901030b          	.insn	4, 0x0901030b
 782:	0004                	.insn	2, 0x0004
 784:	0501                	.insn	2, 0x0501
 786:	0028                	.insn	2, 0x0028
 788:	0402                	.insn	2, 0x0402
 78a:	0302                	.insn	2, 0x0302
 78c:	0900                	.insn	2, 0x0900
 78e:	0004                	.insn	2, 0x0004
 790:	0501                	.insn	2, 0x0501
 792:	002e                	.insn	2, 0x002e
 794:	0402                	.insn	2, 0x0402
 796:	0302                	.insn	2, 0x0302
 798:	0900                	.insn	2, 0x0900
 79a:	000c                	.insn	2, 0x000c
 79c:	0501                	.insn	2, 0x0501
 79e:	001e                	.insn	2, 0x001e
 7a0:	0402                	.insn	2, 0x0402
 7a2:	0301                	.insn	2, 0x0301
 7a4:	0900                	.insn	2, 0x0900
 7a6:	000c                	.insn	2, 0x000c
 7a8:	0501                	.insn	2, 0x0501
 7aa:	030c                	.insn	2, 0x030c
 7ac:	0901                	.insn	2, 0x0901
 7ae:	0008                	.insn	2, 0x0008
 7b0:	0501                	.insn	2, 0x0501
 7b2:	0301                	.insn	2, 0x0301
 7b4:	0901                	.insn	2, 0x0901
 7b6:	0004                	.insn	2, 0x0004
 7b8:	0501                	.insn	2, 0x0501
 7ba:	0331                	.insn	2, 0x0331
 7bc:	0014090f          	.insn	4, 0x0014090f
 7c0:	0501                	.insn	2, 0x0501
 7c2:	030e                	.insn	2, 0x030e
 7c4:	0901                	.insn	2, 0x0901
 7c6:	0018                	.insn	2, 0x0018
 7c8:	0501                	.insn	2, 0x0501
 7ca:	031e                	.insn	2, 0x031e
 7cc:	0900                	.insn	2, 0x0900
 7ce:	000c                	.insn	2, 0x000c
 7d0:	0501                	.insn	2, 0x0501
 7d2:	030e                	.insn	2, 0x030e
 7d4:	0901                	.insn	2, 0x0901
 7d6:	0010                	.insn	2, 0x0010
 7d8:	0501                	.insn	2, 0x0501
 7da:	031e                	.insn	2, 0x031e
 7dc:	0900                	.insn	2, 0x0900
 7de:	000c                	.insn	2, 0x000c
 7e0:	0501                	.insn	2, 0x0501
 7e2:	030e                	.insn	2, 0x030e
 7e4:	0902                	.insn	2, 0x0902
 7e6:	0010                	.insn	2, 0x0010
 7e8:	0501                	.insn	2, 0x0501
 7ea:	0319                	.insn	2, 0x0319
 7ec:	0901                	.insn	2, 0x0901
 7ee:	0010                	.insn	2, 0x0010
 7f0:	0501                	.insn	2, 0x0501
 7f2:	09000327          	.insn	4, 0x09000327
 7f6:	000c                	.insn	2, 0x000c
 7f8:	0501                	.insn	2, 0x0501
 7fa:	030e                	.insn	2, 0x030e
 7fc:	0900                	.insn	2, 0x0900
 7fe:	000c                	.insn	2, 0x000c
 800:	0301                	.insn	2, 0x0301
 802:	0901                	.insn	2, 0x0901
 804:	0008                	.insn	2, 0x0008
 806:	0501                	.insn	2, 0x0501
 808:	0310                	.insn	2, 0x0310
 80a:	00100903          	lb	s2,1(zero) # 1 <_start-0xffff>
 80e:	0501                	.insn	2, 0x0501
 810:	09000317          	auipc	t1,0x9000
 814:	0008                	.insn	2, 0x0008
 816:	0501                	.insn	2, 0x0501
 818:	09000323          	sb	a6,134(zero) # 86 <_start-0xff7a>
 81c:	0008                	.insn	2, 0x0008
 81e:	0501                	.insn	2, 0x0501
 820:	031d                	.insn	2, 0x031d
 822:	0900                	.insn	2, 0x0900
 824:	0008                	.insn	2, 0x0008
 826:	0501                	.insn	2, 0x0501
 828:	0301                	.insn	2, 0x0301
 82a:	0901                	.insn	2, 0x0901
 82c:	0004                	.insn	2, 0x0004
 82e:	0501                	.insn	2, 0x0501
 830:	0335                	.insn	2, 0x0335
 832:	0905                	.insn	2, 0x0905
 834:	0014                	.insn	2, 0x0014
 836:	0501                	.insn	2, 0x0501
 838:	09010313          	addi	t1,sp,144
 83c:	0018                	.insn	2, 0x0018
 83e:	0501                	.insn	2, 0x0501
 840:	0314                	.insn	2, 0x0314
 842:	0901                	.insn	2, 0x0901
 844:	0010                	.insn	2, 0x0010
 846:	0501                	.insn	2, 0x0501
 848:	030e                	.insn	2, 0x030e
 84a:	0901                	.insn	2, 0x0901
 84c:	0010                	.insn	2, 0x0010
 84e:	0301                	.insn	2, 0x0301
 850:	0901                	.insn	2, 0x0901
 852:	000c                	.insn	2, 0x000c
 854:	0501                	.insn	2, 0x0501
 856:	0901033b          	.insn	4, 0x0901033b
 85a:	0008                	.insn	2, 0x0008
 85c:	0001                	.insn	2, 0x0001
 85e:	0402                	.insn	2, 0x0402
 860:	0601                	.insn	2, 0x0601
 862:	0c090003          	lb	zero,192(s2)
 866:	0100                	.insn	2, 0x0100
 868:	0200                	.insn	2, 0x0200
 86a:	0204                	.insn	2, 0x0204
 86c:	10090003          	lb	zero,256(s2)
 870:	0100                	.insn	2, 0x0100
 872:	0e05                	.insn	2, 0x0e05
 874:	0200                	.insn	2, 0x0200
 876:	0404                	.insn	2, 0x0404
 878:	0306                	.insn	2, 0x0306
 87a:	0900                	.insn	2, 0x0900
 87c:	0004                	.insn	2, 0x0004
 87e:	0501                	.insn	2, 0x0501
 880:	030c                	.insn	2, 0x030c
 882:	0901                	.insn	2, 0x0901
 884:	0004                	.insn	2, 0x0004
 886:	0501                	.insn	2, 0x0501
 888:	0301                	.insn	2, 0x0301
 88a:	0901                	.insn	2, 0x0901
 88c:	0010                	.insn	2, 0x0010
 88e:	0501                	.insn	2, 0x0501
 890:	0321                	.insn	2, 0x0321
 892:	0905                	.insn	2, 0x0905
 894:	0014                	.insn	2, 0x0014
 896:	0501                	.insn	2, 0x0501
 898:	0308                	.insn	2, 0x0308
 89a:	0901                	.insn	2, 0x0901
 89c:	0014                	.insn	2, 0x0014
 89e:	0501                	.insn	2, 0x0501
 8a0:	0018                	.insn	2, 0x0018
 8a2:	0402                	.insn	2, 0x0402
 8a4:	0301                	.insn	2, 0x0301
 8a6:	0900                	.insn	2, 0x0900
 8a8:	0008                	.insn	2, 0x0008
 8aa:	0601                	.insn	2, 0x0601
 8ac:	04090003          	lb	zero,64(s2)
 8b0:	0100                	.insn	2, 0x0100
 8b2:	1405                	.insn	2, 0x1405
 8b4:	0306                	.insn	2, 0x0306
 8b6:	0902                	.insn	2, 0x0902
 8b8:	0004                	.insn	2, 0x0004
 8ba:	0501                	.insn	2, 0x0501
 8bc:	0009                	.insn	2, 0x0009
 8be:	0402                	.insn	2, 0x0402
 8c0:	0301                	.insn	2, 0x0301
 8c2:	0900                	.insn	2, 0x0900
 8c4:	000c                	.insn	2, 0x000c
 8c6:	0501                	.insn	2, 0x0501
 8c8:	030e                	.insn	2, 0x030e
 8ca:	0901                	.insn	2, 0x0901
 8cc:	000c                	.insn	2, 0x000c
 8ce:	0501                	.insn	2, 0x0501
 8d0:	0339                	.insn	2, 0x0339
 8d2:	0901                	.insn	2, 0x0901
 8d4:	001c                	.insn	2, 0x001c
 8d6:	0501                	.insn	2, 0x0501
 8d8:	0034                	.insn	2, 0x0034
 8da:	0402                	.insn	2, 0x0402
 8dc:	0301                	.insn	2, 0x0301
 8de:	0900                	.insn	2, 0x0900
 8e0:	000c                	.insn	2, 0x000c
 8e2:	0501                	.insn	2, 0x0501
 8e4:	0039                	.insn	2, 0x0039
 8e6:	0402                	.insn	2, 0x0402
 8e8:	0301                	.insn	2, 0x0301
 8ea:	0900                	.insn	2, 0x0900
 8ec:	0008                	.insn	2, 0x0008
 8ee:	0001                	.insn	2, 0x0001
 8f0:	0402                	.insn	2, 0x0402
 8f2:	0602                	.insn	2, 0x0602
 8f4:	18090003          	lb	zero,384(s2)
 8f8:	0100                	.insn	2, 0x0100
 8fa:	0e05                	.insn	2, 0x0e05
 8fc:	0200                	.insn	2, 0x0200
 8fe:	0404                	.insn	2, 0x0404
 900:	0306                	.insn	2, 0x0306
 902:	0900                	.insn	2, 0x0900
 904:	0004                	.insn	2, 0x0004
 906:	0301                	.insn	2, 0x0301
 908:	0901                	.insn	2, 0x0901
 90a:	0004                	.insn	2, 0x0004
 90c:	0301                	.insn	2, 0x0301
 90e:	00100903          	lb	s2,1(zero) # 1 <_start-0xffff>
 912:	0301                	.insn	2, 0x0301
 914:	0901                	.insn	2, 0x0901
 916:	0010                	.insn	2, 0x0010
 918:	0501                	.insn	2, 0x0501
 91a:	0338                	.insn	2, 0x0338
 91c:	0901                	.insn	2, 0x0901
 91e:	0010                	.insn	2, 0x0010
 920:	0501                	.insn	2, 0x0501
 922:	0030                	.insn	2, 0x0030
 924:	0402                	.insn	2, 0x0402
 926:	0301                	.insn	2, 0x0301
 928:	0900                	.insn	2, 0x0900
 92a:	000c                	.insn	2, 0x000c
 92c:	0501                	.insn	2, 0x0501
 92e:	0038                	.insn	2, 0x0038
 930:	0402                	.insn	2, 0x0402
 932:	0301                	.insn	2, 0x0301
 934:	0900                	.insn	2, 0x0900
 936:	000c                	.insn	2, 0x000c
 938:	0501                	.insn	2, 0x0501
 93a:	0048                	.insn	2, 0x0048
 93c:	0402                	.insn	2, 0x0402
 93e:	0302                	.insn	2, 0x0302
 940:	0900                	.insn	2, 0x0900
 942:	000c                	.insn	2, 0x000c
 944:	0501                	.insn	2, 0x0501
 946:	0038                	.insn	2, 0x0038
 948:	0402                	.insn	2, 0x0402
 94a:	0302                	.insn	2, 0x0302
 94c:	0900                	.insn	2, 0x0900
 94e:	0008                	.insn	2, 0x0008
 950:	0501                	.insn	2, 0x0501
 952:	000e                	.insn	2, 0x000e
 954:	0402                	.insn	2, 0x0402
 956:	0304                	.insn	2, 0x0304
 958:	0900                	.insn	2, 0x0900
 95a:	0008                	.insn	2, 0x0008
 95c:	0501                	.insn	2, 0x0501
 95e:	0311                	.insn	2, 0x0311
 960:	0902                	.insn	2, 0x0902
 962:	0004                	.insn	2, 0x0004
 964:	0501                	.insn	2, 0x0501
 966:	0319                	.insn	2, 0x0319
 968:	0900                	.insn	2, 0x0900
 96a:	000c                	.insn	2, 0x000c
 96c:	0501                	.insn	2, 0x0501
 96e:	09000307          	.insn	4, 0x09000307
 972:	0004                	.insn	2, 0x0004
 974:	0501                	.insn	2, 0x0501
 976:	0309                	.insn	2, 0x0309
 978:	0901                	.insn	2, 0x0901
 97a:	000c                	.insn	2, 0x000c
 97c:	0301                	.insn	2, 0x0301
 97e:	0901                	.insn	2, 0x0901
 980:	0010                	.insn	2, 0x0010
 982:	0501                	.insn	2, 0x0501
 984:	030c                	.insn	2, 0x030c
 986:	0901                	.insn	2, 0x0901
 988:	0010                	.insn	2, 0x0010
 98a:	0501                	.insn	2, 0x0501
 98c:	0301                	.insn	2, 0x0301
 98e:	0901                	.insn	2, 0x0901
 990:	0004                	.insn	2, 0x0004
 992:	0501                	.insn	2, 0x0501
 994:	0905033f 05010014 	.insn	8, 0x050100140905033f
 99c:	0321                	.insn	2, 0x0321
 99e:	0901                	.insn	2, 0x0901
 9a0:	001c                	.insn	2, 0x001c
 9a2:	0501                	.insn	2, 0x0501
 9a4:	030e                	.insn	2, 0x030e
 9a6:	0900                	.insn	2, 0x0900
 9a8:	0008                	.insn	2, 0x0008
 9aa:	0501                	.insn	2, 0x0501
 9ac:	0321                	.insn	2, 0x0321
 9ae:	0901                	.insn	2, 0x0901
 9b0:	0004                	.insn	2, 0x0004
 9b2:	0501                	.insn	2, 0x0501
 9b4:	030e                	.insn	2, 0x030e
 9b6:	0900                	.insn	2, 0x0900
 9b8:	0008                	.insn	2, 0x0008
 9ba:	0501                	.insn	2, 0x0501
 9bc:	0321                	.insn	2, 0x0321
 9be:	0901                	.insn	2, 0x0901
 9c0:	0004                	.insn	2, 0x0004
 9c2:	0501                	.insn	2, 0x0501
 9c4:	030e                	.insn	2, 0x030e
 9c6:	0900                	.insn	2, 0x0900
 9c8:	0008                	.insn	2, 0x0008
 9ca:	0501                	.insn	2, 0x0501
 9cc:	0901031b          	.insn	4, 0x0901031b
 9d0:	0004                	.insn	2, 0x0004
 9d2:	0501                	.insn	2, 0x0501
 9d4:	030e                	.insn	2, 0x030e
 9d6:	0900                	.insn	2, 0x0900
 9d8:	000c                	.insn	2, 0x000c
 9da:	0501                	.insn	2, 0x0501
 9dc:	0308                	.insn	2, 0x0308
 9de:	0902                	.insn	2, 0x0902
 9e0:	000c                	.insn	2, 0x000c
 9e2:	0501                	.insn	2, 0x0501
 9e4:	001e                	.insn	2, 0x001e
 9e6:	0402                	.insn	2, 0x0402
 9e8:	0301                	.insn	2, 0x0301
 9ea:	0900                	.insn	2, 0x0900
 9ec:	0008                	.insn	2, 0x0008
 9ee:	0601                	.insn	2, 0x0601
 9f0:	04090003          	lb	zero,64(s2)
 9f4:	0100                	.insn	2, 0x0100
 9f6:	1405                	.insn	2, 0x1405
 9f8:	0306                	.insn	2, 0x0306
 9fa:	0901                	.insn	2, 0x0901
 9fc:	0004                	.insn	2, 0x0004
 9fe:	0501                	.insn	2, 0x0501
 a00:	030c                	.insn	2, 0x030c
 a02:	0901                	.insn	2, 0x0901
 a04:	000c                	.insn	2, 0x000c
 a06:	0501                	.insn	2, 0x0501
 a08:	0301                	.insn	2, 0x0301
 a0a:	0901                	.insn	2, 0x0901
 a0c:	0010                	.insn	2, 0x0010
 a0e:	0501                	.insn	2, 0x0501
 a10:	0905034b          	.insn	4, 0x0905034b
 a14:	0014                	.insn	2, 0x0014
 a16:	0501                	.insn	2, 0x0501
 a18:	0305                	.insn	2, 0x0305
 a1a:	0901                	.insn	2, 0x0901
 a1c:	001c                	.insn	2, 0x001c
 a1e:	0301                	.insn	2, 0x0301
 a20:	0901                	.insn	2, 0x0901
 a22:	000c                	.insn	2, 0x000c
 a24:	0301                	.insn	2, 0x0301
 a26:	0901                	.insn	2, 0x0901
 a28:	000c                	.insn	2, 0x000c
 a2a:	0501                	.insn	2, 0x0501
 a2c:	09010317          	auipc	t1,0x9010
 a30:	0008                	.insn	2, 0x0008
 a32:	0501                	.insn	2, 0x0501
 a34:	0308                	.insn	2, 0x0308
 a36:	0900                	.insn	2, 0x0900
 a38:	0008                	.insn	2, 0x0008
 a3a:	0501                	.insn	2, 0x0501
 a3c:	002c                	.insn	2, 0x002c
 a3e:	0402                	.insn	2, 0x0402
 a40:	0301                	.insn	2, 0x0301
 a42:	0900                	.insn	2, 0x0900
 a44:	0008                	.insn	2, 0x0008
 a46:	0501                	.insn	2, 0x0501
 a48:	0402001b          	.insn	4, 0x0402001b
 a4c:	0301                	.insn	2, 0x0301
 a4e:	0900                	.insn	2, 0x0900
 a50:	0008                	.insn	2, 0x0008
 a52:	0501                	.insn	2, 0x0501
 a54:	0309                	.insn	2, 0x0309
 a56:	0901                	.insn	2, 0x0901
 a58:	0008                	.insn	2, 0x0008
 a5a:	0301                	.insn	2, 0x0301
 a5c:	0902                	.insn	2, 0x0902
 a5e:	0010                	.insn	2, 0x0010
 a60:	0501                	.insn	2, 0x0501
 a62:	0301                	.insn	2, 0x0301
 a64:	0901                	.insn	2, 0x0901
 a66:	000c                	.insn	2, 0x000c
 a68:	0501                	.insn	2, 0x0501
 a6a:	0316                	.insn	2, 0x0316
 a6c:	0902                	.insn	2, 0x0902
 a6e:	0018                	.insn	2, 0x0018
 a70:	0501                	.insn	2, 0x0501
 a72:	0305                	.insn	2, 0x0305
 a74:	0901                	.insn	2, 0x0901
 a76:	0010                	.insn	2, 0x0010
 a78:	0301                	.insn	2, 0x0301
 a7a:	0901                	.insn	2, 0x0901
 a7c:	000c                	.insn	2, 0x000c
 a7e:	0001                	.insn	2, 0x0001
 a80:	0402                	.insn	2, 0x0402
 a82:	0601                	.insn	2, 0x0601
 a84:	0c090003          	lb	zero,192(s2)
 a88:	0100                	.insn	2, 0x0100
 a8a:	0306                	.insn	2, 0x0306
 a8c:	0901                	.insn	2, 0x0901
 a8e:	0014                	.insn	2, 0x0014
 a90:	0001                	.insn	2, 0x0001
 a92:	0402                	.insn	2, 0x0402
 a94:	0601                	.insn	2, 0x0601
 a96:	0c090003          	lb	zero,192(s2)
 a9a:	0100                	.insn	2, 0x0100
 a9c:	0306                	.insn	2, 0x0306
 a9e:	0901                	.insn	2, 0x0901
 aa0:	0014                	.insn	2, 0x0014
 aa2:	0001                	.insn	2, 0x0001
 aa4:	0402                	.insn	2, 0x0402
 aa6:	0601                	.insn	2, 0x0601
 aa8:	0c090003          	lb	zero,192(s2)
 aac:	0100                	.insn	2, 0x0100
 aae:	0306                	.insn	2, 0x0306
 ab0:	0902                	.insn	2, 0x0902
 ab2:	0018                	.insn	2, 0x0018
 ab4:	0301                	.insn	2, 0x0301
 ab6:	0901                	.insn	2, 0x0901
 ab8:	000c                	.insn	2, 0x000c
 aba:	0001                	.insn	2, 0x0001
 abc:	0402                	.insn	2, 0x0402
 abe:	0601                	.insn	2, 0x0601
 ac0:	14090003          	lb	zero,320(s2)
 ac4:	0100                	.insn	2, 0x0100
 ac6:	0306                	.insn	2, 0x0306
 ac8:	0901                	.insn	2, 0x0901
 aca:	0014                	.insn	2, 0x0014
 acc:	0001                	.insn	2, 0x0001
 ace:	0402                	.insn	2, 0x0402
 ad0:	0601                	.insn	2, 0x0601
 ad2:	14090003          	lb	zero,320(s2)
 ad6:	0100                	.insn	2, 0x0100
 ad8:	0306                	.insn	2, 0x0306
 ada:	0901                	.insn	2, 0x0901
 adc:	0014                	.insn	2, 0x0014
 ade:	0001                	.insn	2, 0x0001
 ae0:	0402                	.insn	2, 0x0402
 ae2:	0601                	.insn	2, 0x0601
 ae4:	14090003          	lb	zero,320(s2)
 ae8:	0100                	.insn	2, 0x0100
 aea:	0306                	.insn	2, 0x0306
 aec:	0902                	.insn	2, 0x0902
 aee:	0014                	.insn	2, 0x0014
 af0:	0501                	.insn	2, 0x0501
 af2:	030c                	.insn	2, 0x030c
 af4:	0901                	.insn	2, 0x0901
 af6:	000c                	.insn	2, 0x000c
 af8:	0501                	.insn	2, 0x0501
 afa:	0301                	.insn	2, 0x0301
 afc:	0901                	.insn	2, 0x0901
 afe:	0004                	.insn	2, 0x0004
 b00:	0901                	.insn	2, 0x0901
 b02:	0014                	.insn	2, 0x0014
 b04:	0100                	.insn	2, 0x0100
 b06:	Address 0xb06 is out of bounds.


Disassembly of section .debug_info:

00000000 <.debug_info>:
   0:	0031                	.insn	2, 0x0031
   2:	0000                	.insn	2, 0x
   4:	0002                	.insn	2, 0x0002
   6:	0000                	.insn	2, 0x
   8:	0000                	.insn	2, 0x
   a:	0104                	.insn	2, 0x0104
   c:	0000                	.insn	2, 0x
   e:	0000                	.insn	2, 0x
  10:	0000                	.insn	2, 0x
  12:	0001                	.insn	2, 0x0001
  14:	003c                	.insn	2, 0x003c
  16:	0001                	.insn	2, 0x0001
  18:	0000                	.insn	2, 0x
  1a:	0000                	.insn	2, 0x
  1c:	0008                	.insn	2, 0x0008
  1e:	0000                	.insn	2, 0x
  20:	002e                	.insn	2, 0x002e
  22:	0000                	.insn	2, 0x
  24:	8001                	.insn	2, 0x8001
  26:	3c02                	.insn	2, 0x3c02
  28:	0000                	.insn	2, 0x
  2a:	0100                	.insn	2, 0x0100
  2c:	0000                	.insn	2, 0x
  2e:	0001                	.insn	2, 0x0001
  30:	0040                	.insn	2, 0x0040
  32:	0001                	.insn	2, 0x0001
  34:	1900                	.insn	2, 0x1900
  36:	0006                	.insn	2, 0x0006
  38:	0500                	.insn	2, 0x0500
  3a:	0100                	.insn	2, 0x0100
  3c:	2104                	.insn	2, 0x2104
  3e:	0000                	.insn	2, 0x
  40:	1100                	.insn	2, 0x1100
  42:	000000ab          	.insn	4, 0x00ab
  46:	261d                	.insn	2, 0x261d
  48:	0000                	.insn	2, 0x
  4a:	0000                	.insn	2, 0x
  4c:	0000                	.insn	2, 0x
  4e:	3c00                	.insn	2, 0x3c00
  50:	0100                	.insn	2, 0x0100
  52:	e000                	.insn	2, 0xe000
  54:	7500000b          	.insn	4, 0x7500000b
  58:	0000                	.insn	2, 0x
  5a:	0300                	.insn	2, 0x0300
  5c:	0601                	.insn	2, 0x0601
  5e:	0154                	.insn	2, 0x0154
  60:	0000                	.insn	2, 0x
  62:	2106                	.insn	2, 0x2106
  64:	0001                	.insn	2, 0x0001
  66:	0200                	.insn	2, 0x0200
  68:	0039182b          	.insn	4, 0x0039182b
  6c:	0000                	.insn	2, 0x
  6e:	52080103          	lb	sp,1312(a6)
  72:	0001                	.insn	2, 0x0001
  74:	0300                	.insn	2, 0x0300
  76:	0502                	.insn	2, 0x0502
  78:	0075                	.insn	2, 0x0075
  7a:	0000                	.insn	2, 0x
  7c:	8a070203          	lb	tp,-1888(a4)
  80:	0001                	.insn	2, 0x0001
  82:	0300                	.insn	2, 0x0300
  84:	0504                	.insn	2, 0x0504
  86:	00000103          	lb	sp,0(zero) # 0 <_start-0x10000>
  8a:	9006                	.insn	2, 0x9006
  8c:	0000                	.insn	2, 0x
  8e:	0200                	.insn	2, 0x0200
  90:	0061194f          	.insn	4, 0x0061194f
  94:	0000                	.insn	2, 0x
  96:	6e070403          	lb	s0,1760(a4)
  9a:	0001                	.insn	2, 0x0001
  9c:	0300                	.insn	2, 0x0300
  9e:	0508                	.insn	2, 0x0508
  a0:	00fe                	.insn	2, 0x00fe
  a2:	0000                	.insn	2, 0x
  a4:	b906                	.insn	2, 0xb906
  a6:	0001                	.insn	2, 0x0001
  a8:	0200                	.insn	2, 0x0200
  aa:	1969                	.insn	2, 0x1969
  ac:	0000007b          	.insn	4, 0x007b
  b0:	69070803          	lb	a6,1680(a4)
  b4:	0001                	.insn	2, 0x0001
  b6:	1200                	.insn	2, 0x1200
  b8:	0504                	.insn	2, 0x0504
  ba:	6e69                	.insn	2, 0x6e69
  bc:	0074                	.insn	2, 0x0074
  be:	73070403          	lb	s0,1840(a4)
  c2:	0001                	.insn	2, 0x0001
  c4:	0600                	.insn	2, 0x0600
  c6:	00000123          	sb	zero,2(zero) # 2 <_start-0xfffe>
  ca:	2d131803          	lh	a6,721(t1) # 9010cfd <__stack_top+0x8ffe9ad>
  ce:	0000                	.insn	2, 0x
  d0:	1000                	.insn	2, 0x1000
  d2:	0090                	.insn	2, 0x0090
  d4:	0000                	.insn	2, 0x
  d6:	9206                	.insn	2, 0x9206
  d8:	0000                	.insn	2, 0x
  da:	0300                	.insn	2, 0x0300
  dc:	1430                	.insn	2, 0x1430
  de:	0055                	.insn	2, 0x0055
  e0:	0000                	.insn	2, 0x
  e2:	bb06                	.insn	2, 0xbb06
  e4:	0001                	.insn	2, 0x0001
  e6:	0300                	.insn	2, 0x0300
  e8:	143c                	.insn	2, 0x143c
  ea:	0000006f          	j	ea <_start-0xff16>
  ee:	0000ad13          	slti	s10,ra,0
  f2:	0600                	.insn	2, 0x0600
  f4:	007f 0000 d604 8917 	.insn	10, 0x8917d6040000007f
  fc:	0000 
  fe:	0300                	.insn	2, 0x0300
 100:	0410                	.insn	2, 0x0410
 102:	0146                	.insn	2, 0x0146
 104:	0000                	.insn	2, 0x
 106:	d80e                	.insn	2, 0xd80e
 108:	0001                	.insn	2, 0x0001
 10a:	7f00                	.insn	2, 0x7f00
 10c:	8205                	.insn	2, 0x8205
 10e:	0000                	.insn	2, 0x
 110:	0e00                	.insn	2, 0x0e00
 112:	0135                	.insn	2, 0x0135
 114:	0000                	.insn	2, 0x
 116:	111c                	.insn	2, 0x111c
 118:	00ad                	.insn	2, 0x00ad
 11a:	0000                	.insn	2, 0x
 11c:	f70e                	.insn	2, 0xf70e
 11e:	0001                	.insn	2, 0x0001
 120:	1b00                	.insn	2, 0x1b00
 122:	ad11                	.insn	2, 0xad11
 124:	0000                	.insn	2, 0x
 126:	0700                	.insn	2, 0x0700
 128:	0000012b          	.insn	4, 0x012b
 12c:	14cd                	.insn	2, 0x14cd
 12e:	0000007b          	.insn	4, 0x007b
 132:	0aa8                	.insn	2, 0x0aa8
 134:	0001                	.insn	2, 0x0001
 136:	0174                	.insn	2, 0x0174
 138:	0000                	.insn	2, 0x
 13a:	9c01                	.insn	2, 0x9c01
 13c:	014c                	.insn	2, 0x014c
 13e:	0000                	.insn	2, 0x
 140:	6004                	.insn	2, 0x6004
 142:	0001                	.insn	2, 0x0001
 144:	cd00                	.insn	2, 0xcd00
 146:	7b31                	.insn	2, 0x7b31
 148:	0000                	.insn	2, 0x
 14a:	0200                	.insn	2, 0x0200
 14c:	5891                	.insn	2, 0x5891
 14e:	e804                	.insn	2, 0xe804
 150:	0001                	.insn	2, 0x0001
 152:	cd00                	.insn	2, 0xcd00
 154:	7b4e                	.insn	2, 0x7b4e
 156:	0000                	.insn	2, 0x
 158:	0200                	.insn	2, 0x0200
 15a:	5091                	.insn	2, 0x5091
 15c:	6b01                	.insn	2, 0x6b01
 15e:	0000                	.insn	2, 0x
 160:	cf00                	.insn	2, 0xcf00
 162:	7b18                	.insn	2, 0x7b18
 164:	0000                	.insn	2, 0x
 166:	0200                	.insn	2, 0x0200
 168:	6891                	.insn	2, 0x6891
 16a:	f408                	.insn	2, 0xf408
 16c:	010a                	.insn	2, 0x010a
 16e:	0800                	.insn	2, 0x0800
 170:	0001                	.insn	2, 0x0001
 172:	0500                	.insn	2, 0x0500
 174:	0069                	.insn	2, 0x0069
 176:	0ed0                	.insn	2, 0x0ed0
 178:	0082                	.insn	2, 0x0082
 17a:	0000                	.insn	2, 0x
 17c:	9102                	.insn	2, 0x9102
 17e:	0064                	.insn	2, 0x0064
 180:	0700                	.insn	2, 0x0700
 182:	00000043          	.insn	4, 0x0043
 186:	14be                	.insn	2, 0x14be
 188:	0000007b          	.insn	4, 0x007b
 18c:	08c8                	.insn	2, 0x08c8
 18e:	0001                	.insn	2, 0x0001
 190:	01e0                	.insn	2, 0x01e0
 192:	0000                	.insn	2, 0x
 194:	9c01                	.insn	2, 0x9c01
 196:	01b6                	.insn	2, 0x01b6
 198:	0000                	.insn	2, 0x
 19a:	6004                	.insn	2, 0x6004
 19c:	0001                	.insn	2, 0x0001
 19e:	be00                	.insn	2, 0xbe00
 1a0:	7b31                	.insn	2, 0x7b31
 1a2:	0000                	.insn	2, 0x
 1a4:	0300                	.insn	2, 0x0300
 1a6:	b891                	.insn	2, 0xb891
 1a8:	047f 01e8 0000 4ebe 	.insn	10, 0x007b4ebe000001e8047f
 1b0:	007b 
 1b2:	0000                	.insn	2, 0x
 1b4:	7fb09103          	lh	sp,2043(ra)
 1b8:	a201                	.insn	2, 0xa201
 1ba:	0000                	.insn	2, 0x
 1bc:	c000                	.insn	2, 0xc000
 1be:	7b18                	.insn	2, 0x7b18
 1c0:	0000                	.insn	2, 0x
 1c2:	0200                	.insn	2, 0x0200
 1c4:	5891                	.insn	2, 0x5891
 1c6:	6b01                	.insn	2, 0x6b01
 1c8:	0000                	.insn	2, 0x
 1ca:	c000                	.insn	2, 0xc000
 1cc:	7b26                	.insn	2, 0x7b26
 1ce:	0000                	.insn	2, 0x
 1d0:	0200                	.insn	2, 0x0200
 1d2:	5091                	.insn	2, 0x5091
 1d4:	2c08                	.insn	2, 0x2c08
 1d6:	0109                	.insn	2, 0x0109
 1d8:	4c00                	.insn	2, 0x4c00
 1da:	0001                	.insn	2, 0x0001
 1dc:	0500                	.insn	2, 0x0500
 1de:	0069                	.insn	2, 0x0069
 1e0:	0ec1                	.insn	2, 0x0ec1
 1e2:	0082                	.insn	2, 0x0082
 1e4:	0000                	.insn	2, 0x
 1e6:	9102                	.insn	2, 0x9102
 1e8:	004c                	.insn	2, 0x004c
 1ea:	0700                	.insn	2, 0x0700
 1ec:	01c9                	.insn	2, 0x01c9
 1ee:	0000                	.insn	2, 0x
 1f0:	14b2                	.insn	2, 0x14b2
 1f2:	0000007b          	.insn	4, 0x007b
 1f6:	07d0                	.insn	2, 0x07d0
 1f8:	0001                	.insn	2, 0x0001
 1fa:	00f8                	.insn	2, 0x00f8
 1fc:	0000                	.insn	2, 0x
 1fe:	9c01                	.insn	2, 0x9c01
 200:	01f6                	.insn	2, 0x01f6
 202:	0000                	.insn	2, 0x
 204:	6102                	.insn	2, 0x6102
 206:	b200                	.insn	2, 0xb200
 208:	7b30                	.insn	2, 0x7b30
 20a:	0000                	.insn	2, 0x
 20c:	0200                	.insn	2, 0x0200
 20e:	5891                	.insn	2, 0x5891
 210:	6202                	.insn	2, 0x6202
 212:	b200                	.insn	2, 0xb200
 214:	7b46                	.insn	2, 0x7b46
 216:	0000                	.insn	2, 0x
 218:	0200                	.insn	2, 0x0200
 21a:	5091                	.insn	2, 0x5091
 21c:	9e01                	.insn	2, 0x9e01
 21e:	0002                	.insn	2, 0x0002
 220:	b300                	.insn	2, 0xb300
 222:	7b18                	.insn	2, 0x7b18
 224:	0000                	.insn	2, 0x
 226:	0200                	.insn	2, 0x0200
 228:	6891                	.insn	2, 0x6891
 22a:	0700                	.insn	2, 0x0700
 22c:	004d                	.insn	2, 0x004d
 22e:	0000                	.insn	2, 0x
 230:	008205a3          	sb	s0,11(tp) # b <_start-0xfff5>
 234:	0000                	.insn	2, 0x
 236:	0774                	.insn	2, 0x0774
 238:	0001                	.insn	2, 0x0001
 23a:	005c                	.insn	2, 0x005c
 23c:	0000                	.insn	2, 0x
 23e:	9c01                	.insn	2, 0x9c01
 240:	022a                	.insn	2, 0x022a
 242:	0000                	.insn	2, 0x
 244:	6e02                	.insn	2, 0x6e02
 246:	a300                	.insn	2, 0xa300
 248:	00008217          	auipc	tp,0x8
 24c:	0200                	.insn	2, 0x0200
 24e:	5c91                	.insn	2, 0x5c91
 250:	d201                	.insn	2, 0xd201
 252:	0001                	.insn	2, 0x0001
 254:	a400                	.insn	2, 0xa400
 256:	8209                	.insn	2, 0x8209
 258:	0000                	.insn	2, 0x
 25a:	0200                	.insn	2, 0x0200
 25c:	6c91                	.insn	2, 0x6c91
 25e:	0c00                	.insn	2, 0x0c00
 260:	01de                	.insn	2, 0x01de
 262:	0000                	.insn	2, 0x
 264:	0581                	.insn	2, 0x0581
 266:	0082                	.insn	2, 0x0082
 268:	0000                	.insn	2, 0x
 26a:	052c                	.insn	2, 0x052c
 26c:	0001                	.insn	2, 0x0001
 26e:	0248                	.insn	2, 0x0248
 270:	0000                	.insn	2, 0x
 272:	9c01                	.insn	2, 0x9c01
 274:	0309                	.insn	2, 0x0309
 276:	0000                	.insn	2, 0x
 278:	f101                	.insn	2, 0xf101
 27a:	0000                	.insn	2, 0x
 27c:	8200                	.insn	2, 0x8200
 27e:	0000b917          	auipc	s2,0xb
 282:	0200                	.insn	2, 0x0200
 284:	6891                	.insn	2, 0x6891
 286:	0201                	.insn	2, 0x0201
 288:	0002                	.insn	2, 0x0002
 28a:	8200                	.insn	2, 0x8200
 28c:	b925                	.insn	2, 0xb925
 28e:	0000                	.insn	2, 0x
 290:	0200                	.insn	2, 0x0200
 292:	6091                	.insn	2, 0x6091
 294:	0c01                	.insn	2, 0x0c01
 296:	0001                	.insn	2, 0x0001
 298:	8300                	.insn	2, 0x8300
 29a:	0000b917          	auipc	s2,0xb
 29e:	0200                	.insn	2, 0x0200
 2a0:	5891                	.insn	2, 0x5891
 2a2:	9d01                	.insn	2, 0x9d01
 2a4:	0001                	.insn	2, 0x0001
 2a6:	8300                	.insn	2, 0x8300
 2a8:	b926                	.insn	2, 0xb926
 2aa:	0000                	.insn	2, 0x
 2ac:	0200                	.insn	2, 0x0200
 2ae:	5091                	.insn	2, 0x5091
 2b0:	3c0d                	.insn	2, 0x3c0d
 2b2:	0105                	.insn	2, 0x0105
 2b4:	5c00                	.insn	2, 0x5c00
 2b6:	0000                	.insn	2, 0x
 2b8:	9800                	.insn	2, 0x9800
 2ba:	0002                	.insn	2, 0x0002
 2bc:	0100                	.insn	2, 0x0100
 2be:	01c4                	.insn	2, 0x01c4
 2c0:	0000                	.insn	2, 0x
 2c2:	0585                	.insn	2, 0x0585
 2c4:	0309                	.insn	2, 0x0309
 2c6:	0000                	.insn	2, 0x
 2c8:	7fb49103          	lh	sp,2043(s1)
 2cc:	0d00                	.insn	2, 0x0d00
 2ce:	05ec                	.insn	2, 0x05ec
 2d0:	0001                	.insn	2, 0x0001
 2d2:	0064                	.insn	2, 0x0064
 2d4:	0000                	.insn	2, 0x
 2d6:	02b5                	.insn	2, 0x02b5
 2d8:	0000                	.insn	2, 0x
 2da:	c401                	.insn	2, 0xc401
 2dc:	0001                	.insn	2, 0x0001
 2de:	9000                	.insn	2, 0x9000
 2e0:	2505                	.insn	2, 0x2505
 2e2:	03000003          	lb	zero,48(zero) # 30 <_start-0xffd0>
 2e6:	9891                	.insn	2, 0x9891
 2e8:	007f 500d 0106 4c00 	.insn	10, 0x4c000106500d007f
 2f0:	0000 
 2f2:	d200                	.insn	2, 0xd200
 2f4:	0002                	.insn	2, 0x0002
 2f6:	0100                	.insn	2, 0x0100
 2f8:	01c4                	.insn	2, 0x01c4
 2fa:	0000                	.insn	2, 0x
 2fc:	03350593          	addi	a1,a0,51
 300:	0000                	.insn	2, 0x
 302:	7f889103          	lh	sp,2040(a7)
 306:	0d00                	.insn	2, 0x0d00
 308:	06c0                	.insn	2, 0x06c0
 30a:	0001                	.insn	2, 0x0001
 30c:	0054                	.insn	2, 0x0054
 30e:	0000                	.insn	2, 0x
 310:	000002ef          	jal	t0,310 <_start-0xfcf0>
 314:	c401                	.insn	2, 0xc401
 316:	0001                	.insn	2, 0x0001
 318:	9700                	.insn	2, 0x9700
 31a:	4505                	.insn	2, 0x4505
 31c:	03000003          	lb	zero,48(zero) # 30 <_start-0xffd0>
 320:	f091                	.insn	2, 0xf091
 322:	007e                	.insn	2, 0x007e
 324:	3808                	.insn	2, 0x3808
 326:	24000107          	.insn	4, 0x24000107
 32a:	0000                	.insn	2, 0x
 32c:	0100                	.insn	2, 0x0100
 32e:	01c4                	.insn	2, 0x01c4
 330:	0000                	.insn	2, 0x
 332:	059a                	.insn	2, 0x059a
 334:	0355                	.insn	2, 0x0355
 336:	0000                	.insn	2, 0x
 338:	7eec9103          	lh	sp,2030(s9)
 33c:	0000                	.insn	2, 0x
 33e:	1909                	.insn	2, 0x1909
 340:	19000003          	lb	zero,400(zero) # 190 <_start-0xfe70>
 344:	0a000003          	lb	zero,160(zero) # a0 <_start-0xff60>
 348:	0089                	.insn	2, 0x0089
 34a:	0000                	.insn	2, 0x
 34c:	0019                	.insn	2, 0x0019
 34e:	5b080103          	lb	sp,1456(a6)
 352:	0001                	.insn	2, 0x0001
 354:	1000                	.insn	2, 0x1000
 356:	0319                	.insn	2, 0x0319
 358:	0000                	.insn	2, 0x
 35a:	1909                	.insn	2, 0x1909
 35c:	35000003          	lb	zero,848(zero) # 350 <_start-0xfcb0>
 360:	0a000003          	lb	zero,160(zero) # a0 <_start-0xff60>
 364:	0089                	.insn	2, 0x0089
 366:	0000                	.insn	2, 0x
 368:	001a                	.insn	2, 0x001a
 36a:	1909                	.insn	2, 0x1909
 36c:	45000003          	lb	zero,1104(zero) # 450 <_start-0xfbb0>
 370:	0a000003          	lb	zero,160(zero) # a0 <_start-0xff60>
 374:	0089                	.insn	2, 0x0089
 376:	0000                	.insn	2, 0x
 378:	000e                	.insn	2, 0x000e
 37a:	1909                	.insn	2, 0x1909
 37c:	55000003          	lb	zero,1360(zero) # 550 <_start-0xfab0>
 380:	0a000003          	lb	zero,160(zero) # a0 <_start-0xff60>
 384:	0089                	.insn	2, 0x0089
 386:	0000                	.insn	2, 0x
 388:	0015                	.insn	2, 0x0015
 38a:	1909                	.insn	2, 0x1909
 38c:	65000003          	lb	zero,1616(zero) # 650 <_start-0xf9b0>
 390:	0a000003          	lb	zero,160(zero) # a0 <_start-0xff60>
 394:	0089                	.insn	2, 0x0089
 396:	0000                	.insn	2, 0x
 398:	0001                	.insn	2, 0x0001
 39a:	1a0c                	.insn	2, 0x1a0c
 39c:	0001                	.insn	2, 0x0001
 39e:	7500                	.insn	2, 0x7500
 3a0:	8205                	.insn	2, 0x8205
 3a2:	0000                	.insn	2, 0x
 3a4:	c000                	.insn	2, 0xc000
 3a6:	0104                	.insn	2, 0x0104
 3a8:	6c00                	.insn	2, 0x6c00
 3aa:	0000                	.insn	2, 0x
 3ac:	0100                	.insn	2, 0x0100
 3ae:	8e9c                	.insn	2, 0x8e9c
 3b0:	04000003          	lb	zero,64(zero) # 40 <_start-0xffc0>
 3b4:	01f0                	.insn	2, 0x01f0
 3b6:	0000                	.insn	2, 0x
 3b8:	1875                	.insn	2, 0x1875
 3ba:	038e                	.insn	2, 0x038e
 3bc:	0000                	.insn	2, 0x
 3be:	9102                	.insn	2, 0x9102
 3c0:	144c                	.insn	2, 0x144c
 3c2:	0b00                	.insn	2, 0x0b00
 3c4:	0320                	.insn	2, 0x0320
 3c6:	0000                	.insn	2, 0x
 3c8:	850c                	.insn	2, 0x850c
 3ca:	0001                	.insn	2, 0x0001
 3cc:	6f00                	.insn	2, 0x6f00
 3ce:	8205                	.insn	2, 0x8205
 3d0:	0000                	.insn	2, 0x
 3d2:	4c00                	.insn	2, 0x4c00
 3d4:	0104                	.insn	2, 0x0104
 3d6:	7400                	.insn	2, 0x7400
 3d8:	0000                	.insn	2, 0x
 3da:	0100                	.insn	2, 0x0100
 3dc:	d19c                	.insn	2, 0xd19c
 3de:	02000003          	lb	zero,32(zero) # 20 <_start-0xffe0>
 3e2:	166f0073          	.insn	4, 0x166f0073
 3e6:	038e                	.insn	2, 0x038e
 3e8:	0000                	.insn	2, 0x
 3ea:	9102                	.insn	2, 0x9102
 3ec:	085c                	.insn	2, 0x085c
 3ee:	0484                	.insn	2, 0x0484
 3f0:	0001                	.insn	2, 0x0001
 3f2:	0024                	.insn	2, 0x0024
 3f4:	0000                	.insn	2, 0x
 3f6:	c401                	.insn	2, 0xc401
 3f8:	0001                	.insn	2, 0x0001
 3fa:	7100                	.insn	2, 0x7100
 3fc:	5505                	.insn	2, 0x5505
 3fe:	02000003          	lb	zero,32(zero) # 20 <_start-0xffe0>
 402:	6c91                	.insn	2, 0x6c91
 404:	0000                	.insn	2, 0x
 406:	0001a907          	.insn	4, 0x0001a907
 40a:	6a00                	.insn	2, 0x6a00
 40c:	be08                	.insn	2, 0xbe08
 40e:	0000                	.insn	2, 0x
 410:	f800                	.insn	2, 0xf800
 412:	54000103          	lb	sp,1344(zero) # 540 <_start-0xfac0>
 416:	0000                	.insn	2, 0x
 418:	0100                	.insn	2, 0x0100
 41a:	059c                	.insn	2, 0x059c
 41c:	0004                	.insn	2, 0x0004
 41e:	0200                	.insn	2, 0x0200
 420:	1b6a0073          	.insn	4, 0x1b6a0073
 424:	038e                	.insn	2, 0x038e
 426:	0000                	.insn	2, 0x
 428:	9102                	.insn	2, 0x9102
 42a:	015c                	.insn	2, 0x015c
 42c:	01d2                	.insn	2, 0x01d2
 42e:	0000                	.insn	2, 0x
 430:	00be0c6b          	.insn	4, 0x00be0c6b
 434:	0000                	.insn	2, 0x
 436:	9102                	.insn	2, 0x9102
 438:	006c                	.insn	2, 0x006c
 43a:	6015                	.insn	2, 0x6015
 43c:	0000                	.insn	2, 0x
 43e:	0100                	.insn	2, 0x0100
 440:	0662                	.insn	2, 0x0662
 442:	03b0                	.insn	2, 0x03b0
 444:	0001                	.insn	2, 0x0001
 446:	0048                	.insn	2, 0x0048
 448:	0000                	.insn	2, 0x
 44a:	9c01                	.insn	2, 0x9c01
 44c:	0428                	.insn	2, 0x0428
 44e:	0000                	.insn	2, 0x
 450:	6302                	.insn	2, 0x6302
 452:	6200                	.insn	2, 0x6200
 454:	1916                	.insn	2, 0x1916
 456:	02000003          	lb	zero,32(zero) # 20 <_start-0xffe0>
 45a:	6f91                	.insn	2, 0x6f91
 45c:	1600                	.insn	2, 0x1600
 45e:	0086                	.insn	2, 0x0086
 460:	0000                	.insn	2, 0x
 462:	5001                	.insn	2, 0x5001
 464:	d006                	.insn	2, 0xd006
 466:	0102                	.insn	2, 0x0102
 468:	e000                	.insn	2, 0xe000
 46a:	0000                	.insn	2, 0x
 46c:	0100                	.insn	2, 0x0100
 46e:	679c                	.insn	2, 0x679c
 470:	0004                	.insn	2, 0x0004
 472:	0200                	.insn	2, 0x0200
 474:	6176                	.insn	2, 0x6176
 476:	006c                	.insn	2, 0x006c
 478:	1e50                	.insn	2, 0x1e50
 47a:	0061                	.insn	2, 0x0061
 47c:	0000                	.insn	2, 0x
 47e:	9102                	.insn	2, 0x9102
 480:	054c                	.insn	2, 0x054c
 482:	7562                	.insn	2, 0x7562
 484:	0066                	.insn	2, 0x0066
 486:	0a51                	.insn	2, 0x0a51
 488:	00000467          	jalr	s0,zero # 0 <_start-0x10000>
 48c:	9102                	.insn	2, 0x9102
 48e:	0558                	.insn	2, 0x0558
 490:	0070                	.insn	2, 0x0070
 492:	0b52                	.insn	2, 0x0b52
 494:	00000477          	.insn	4, 0x0477
 498:	9102                	.insn	2, 0x9102
 49a:	006c                	.insn	2, 0x006c
 49c:	1909                	.insn	2, 0x1909
 49e:	77000003          	lb	zero,1904(zero) # 770 <_start-0xf890>
 4a2:	0004                	.insn	2, 0x0004
 4a4:	0a00                	.insn	2, 0x0a00
 4a6:	0089                	.insn	2, 0x0089
 4a8:	0000                	.insn	2, 0x
 4aa:	190b0013          	addi	zero,s6,400
 4ae:	0c000003          	lb	zero,192(zero) # c0 <_start-0xff40>
 4b2:	01b0                	.insn	2, 0x01b0
 4b4:	0000                	.insn	2, 0x
 4b6:	0a48                	.insn	2, 0x0a48
 4b8:	00a1                	.insn	2, 0x00a1
 4ba:	0000                	.insn	2, 0x
 4bc:	0294                	.insn	2, 0x0294
 4be:	0001                	.insn	2, 0x0001
 4c0:	003c                	.insn	2, 0x003c
 4c2:	0000                	.insn	2, 0x
 4c4:	9c01                	.insn	2, 0x9c01
 4c6:	04ae                	.insn	2, 0x04ae
 4c8:	0000                	.insn	2, 0x
 4ca:	6102                	.insn	2, 0x6102
 4cc:	4800                	.insn	2, 0x4800
 4ce:	a11c                	.insn	2, 0xa11c
 4d0:	0000                	.insn	2, 0x
 4d2:	0200                	.insn	2, 0x0200
 4d4:	6c91                	.insn	2, 0x6c91
 4d6:	6202                	.insn	2, 0x6202
 4d8:	4800                	.insn	2, 0x4800
 4da:	a128                	.insn	2, 0xa128
 4dc:	0000                	.insn	2, 0x
 4de:	0200                	.insn	2, 0x0200
 4e0:	6891                	.insn	2, 0x6891
 4e2:	0f00                	.insn	2, 0x0f00
 4e4:	0180                	.insn	2, 0x0180
 4e6:	0000                	.insn	2, 0x
 4e8:	00a1113f 02200000 	.insn	8, 0x0220000000a1113f
 4f0:	0001                	.insn	2, 0x0001
 4f2:	0074                	.insn	2, 0x0074
 4f4:	0000                	.insn	2, 0x
 4f6:	9c01                	.insn	2, 0x9c01
 4f8:	04ee                	.insn	2, 0x04ee
 4fa:	0000                	.insn	2, 0x
 4fc:	6102                	.insn	2, 0x6102
 4fe:	3f00                	.insn	2, 0x3f00
 500:	a11f 0000 0200      	.insn	6, 0x02000000a11f
 506:	5c91                	.insn	2, 0x5c91
 508:	6202                	.insn	2, 0x6202
 50a:	3f00                	.insn	2, 0x3f00
 50c:	0000a12b          	.insn	4, 0xa12b
 510:	0200                	.insn	2, 0x0200
 512:	5891                	.insn	2, 0x5891
 514:	9e01                	.insn	2, 0x9e01
 516:	0002                	.insn	2, 0x0002
 518:	4000                	.insn	2, 0x4000
 51a:	a10e                	.insn	2, 0xa10e
 51c:	0000                	.insn	2, 0x
 51e:	0200                	.insn	2, 0x0200
 520:	6c91                	.insn	2, 0x6c91
 522:	0f00                	.insn	2, 0x0f00
 524:	000001e3          	beqz	zero,d26 <_start-0xf2da>
 528:	00611633          	sll	a2,sp,t1
 52c:	0000                	.insn	2, 0x
 52e:	0178                	.insn	2, 0x0178
 530:	0001                	.insn	2, 0x0001
 532:	00a8                	.insn	2, 0x00a8
 534:	0000                	.insn	2, 0x
 536:	9c01                	.insn	2, 0x9c01
 538:	0548                	.insn	2, 0x0548
 53a:	0000                	.insn	2, 0x
 53c:	6004                	.insn	2, 0x6004
 53e:	0001                	.insn	2, 0x0001
 540:	3300                	.insn	2, 0x3300
 542:	6129                	.insn	2, 0x6129
 544:	0000                	.insn	2, 0x
 546:	0200                	.insn	2, 0x0200
 548:	5c91                	.insn	2, 0x5c91
 54a:	e804                	.insn	2, 0xe804
 54c:	0001                	.insn	2, 0x0001
 54e:	3300                	.insn	2, 0x3300
 550:	6141                	.insn	2, 0x6141
 552:	0000                	.insn	2, 0x
 554:	0200                	.insn	2, 0x0200
 556:	5891                	.insn	2, 0x5891
 558:	6b01                	.insn	2, 0x6b01
 55a:	0000                	.insn	2, 0x
 55c:	3500                	.insn	2, 0x3500
 55e:	00006113          	ori	sp,zero,0
 562:	0200                	.insn	2, 0x0200
 564:	6c91                	.insn	2, 0x6c91
 566:	a408                	.insn	2, 0xa408
 568:	0101                	.insn	2, 0x0101
 56a:	6400                	.insn	2, 0x6400
 56c:	0000                	.insn	2, 0x
 56e:	0500                	.insn	2, 0x0500
 570:	0069                	.insn	2, 0x0069
 572:	0e36                	.insn	2, 0x0e36
 574:	0082                	.insn	2, 0x0082
 576:	0000                	.insn	2, 0x
 578:	9102                	.insn	2, 0x9102
 57a:	0068                	.insn	2, 0x0068
 57c:	0f00                	.insn	2, 0x0f00
 57e:	0141                	.insn	2, 0x0141
 580:	0000                	.insn	2, 0x
 582:	1626                	.insn	2, 0x1626
 584:	0061                	.insn	2, 0x0061
 586:	0000                	.insn	2, 0x
 588:	00b4                	.insn	2, 0x00b4
 58a:	0001                	.insn	2, 0x0001
 58c:	00c4                	.insn	2, 0x00c4
 58e:	0000                	.insn	2, 0x
 590:	9c01                	.insn	2, 0x9c01
 592:	05b0                	.insn	2, 0x05b0
 594:	0000                	.insn	2, 0x
 596:	6004                	.insn	2, 0x6004
 598:	0001                	.insn	2, 0x0001
 59a:	2600                	.insn	2, 0x2600
 59c:	6129                	.insn	2, 0x6129
 59e:	0000                	.insn	2, 0x
 5a0:	0200                	.insn	2, 0x0200
 5a2:	5c91                	.insn	2, 0x5c91
 5a4:	e804                	.insn	2, 0xe804
 5a6:	0001                	.insn	2, 0x0001
 5a8:	2600                	.insn	2, 0x2600
 5aa:	6141                	.insn	2, 0x6141
 5ac:	0000                	.insn	2, 0x
 5ae:	0200                	.insn	2, 0x0200
 5b0:	5891                	.insn	2, 0x5891
 5b2:	a201                	.insn	2, 0xa201
 5b4:	0000                	.insn	2, 0x
 5b6:	2800                	.insn	2, 0x2800
 5b8:	00006113          	ori	sp,zero,0
 5bc:	0200                	.insn	2, 0x0200
 5be:	6c91                	.insn	2, 0x6c91
 5c0:	6b01                	.insn	2, 0x6b01
 5c2:	0000                	.insn	2, 0x
 5c4:	2800                	.insn	2, 0x2800
 5c6:	6121                	.insn	2, 0x6121
 5c8:	0000                	.insn	2, 0x
 5ca:	0200                	.insn	2, 0x0200
 5cc:	6891                	.insn	2, 0x6891
 5ce:	e408                	.insn	2, 0xe408
 5d0:	0100                	.insn	2, 0x0100
 5d2:	7c00                	.insn	2, 0x7c00
 5d4:	0000                	.insn	2, 0x
 5d6:	0500                	.insn	2, 0x0500
 5d8:	0069                	.insn	2, 0x0069
 5da:	0e29                	.insn	2, 0x0e29
 5dc:	0082                	.insn	2, 0x0082
 5de:	0000                	.insn	2, 0x
 5e0:	9102                	.insn	2, 0x9102
 5e2:	0064                	.insn	2, 0x0064
 5e4:	0700                	.insn	2, 0x0700
 5e6:	0000009b          	.insn	4, 0x009b
 5ea:	071e                	.insn	2, 0x071e
 5ec:	060a                	.insn	2, 0x060a
 5ee:	0000                	.insn	2, 0x
 5f0:	003c                	.insn	2, 0x003c
 5f2:	0001                	.insn	2, 0x0001
 5f4:	0078                	.insn	2, 0x0078
 5f6:	0000                	.insn	2, 0x
 5f8:	9c01                	.insn	2, 0x9c01
 5fa:	060a                	.insn	2, 0x060a
 5fc:	0000                	.insn	2, 0x
 5fe:	5b04                	.insn	2, 0x5b04
 600:	0000                	.insn	2, 0x
 602:	1e00                	.insn	2, 0x1e00
 604:	0a14                	.insn	2, 0x0a14
 606:	0006                	.insn	2, 0x0006
 608:	0200                	.insn	2, 0x0200
 60a:	5c91                	.insn	2, 0x5c91
 60c:	7302                	.insn	2, 0x7302
 60e:	6372                	.insn	2, 0x6372
 610:	1e00                	.insn	2, 0x1e00
 612:	0c26                	.insn	2, 0x0c26
 614:	0006                	.insn	2, 0x0006
 616:	0200                	.insn	2, 0x0200
 618:	5891                	.insn	2, 0x5891
 61a:	6e02                	.insn	2, 0x6e02
 61c:	1e00                	.insn	2, 0x1e00
 61e:	be32                	.insn	2, 0xbe32
 620:	0000                	.insn	2, 0x
 622:	0200                	.insn	2, 0x0200
 624:	5491                	.insn	2, 0x5491
 626:	6405                	.insn	2, 0x6405
 628:	1f00                	.insn	2, 0x1f00
 62a:	120e                	.insn	2, 0x120e
 62c:	0006                	.insn	2, 0x0006
 62e:	0200                	.insn	2, 0x0200
 630:	6c91                	.insn	2, 0x6c91
 632:	7305                	.insn	2, 0x7305
 634:	2000                	.insn	2, 0x2000
 636:	1714                	.insn	2, 0x1714
 638:	0006                	.insn	2, 0x0006
 63a:	0200                	.insn	2, 0x0200
 63c:	6891                	.insn	2, 0x6891
 63e:	1700                	.insn	2, 0x1700
 640:	0b04                	.insn	2, 0x0b04
 642:	0611                	.insn	2, 0x0611
 644:	0000                	.insn	2, 0x
 646:	0b18                	.insn	2, 0x0b18
 648:	0090                	.insn	2, 0x0090
 64a:	0000                	.insn	2, 0x
 64c:	00009c0b          	.insn	4, 0x9c0b
 650:	0000                	.insn	2, 0x
 652:	0022                	.insn	2, 0x0022
 654:	0000                	.insn	2, 0x
 656:	0002                	.insn	2, 0x0002
 658:	0195                	.insn	2, 0x0195
 65a:	0000                	.insn	2, 0x
 65c:	0104                	.insn	2, 0x0104
 65e:	0696                	.insn	2, 0x0696
 660:	0000                	.insn	2, 0x
 662:	0c1c                	.insn	2, 0x0c1c
 664:	0001                	.insn	2, 0x0001
 666:	0c44                	.insn	2, 0x0c44
 668:	0001                	.insn	2, 0x0001
 66a:	020d                	.insn	2, 0x020d
 66c:	0000                	.insn	2, 0x
 66e:	0008                	.insn	2, 0x0008
 670:	0000                	.insn	2, 0x
 672:	002e                	.insn	2, 0x002e
 674:	0000                	.insn	2, 0x
 676:	8001                	.insn	2, 0x8001
 678:	039f 0000 0005      	.insn	6, 0x00050000039f
 67e:	0401                	.insn	2, 0x0401
 680:	01a9                	.insn	2, 0x01a9
 682:	0000                	.insn	2, 0x
 684:	ab0a                	.insn	2, 0xab0a
 686:	0000                	.insn	2, 0x
 688:	1d00                	.insn	2, 0x1d00
 68a:	00000123          	sb	zero,2(zero) # 2 <_start-0xfffe>
 68e:	0000                	.insn	2, 0x
 690:	0000                	.insn	2, 0x
 692:	0c44                	.insn	2, 0x0c44
 694:	0001                	.insn	2, 0x0001
 696:	0550                	.insn	2, 0x0550
 698:	0000                	.insn	2, 0x
 69a:	0705                	.insn	2, 0x0705
 69c:	0000                	.insn	2, 0x
 69e:	54060103          	lb	sp,1344(a2) # 4540 <_start-0xbac0>
 6a2:	0001                	.insn	2, 0x0001
 6a4:	0300                	.insn	2, 0x0300
 6a6:	0801                	.insn	2, 0x0801
 6a8:	0152                	.insn	2, 0x0152
 6aa:	0000                	.insn	2, 0x
 6ac:	75050203          	lb	tp,1872(a0)
 6b0:	0000                	.insn	2, 0x
 6b2:	0300                	.insn	2, 0x0300
 6b4:	0702                	.insn	2, 0x0702
 6b6:	018a                	.insn	2, 0x018a
 6b8:	0000                	.insn	2, 0x
 6ba:	a505                	.insn	2, 0xa505
 6bc:	0002                	.insn	2, 0x0002
 6be:	0200                	.insn	2, 0x0200
 6c0:	184d                	.insn	2, 0x184d
 6c2:	004e                	.insn	2, 0x004e
 6c4:	0000                	.insn	2, 0x
 6c6:	03050403          	lb	s0,48(a0)
 6ca:	0001                	.insn	2, 0x0001
 6cc:	0500                	.insn	2, 0x0500
 6ce:	0090                	.insn	2, 0x0090
 6d0:	0000                	.insn	2, 0x
 6d2:	4f02                	.insn	2, 0x4f02
 6d4:	6119                	.insn	2, 0x6119
 6d6:	0000                	.insn	2, 0x
 6d8:	0300                	.insn	2, 0x0300
 6da:	0704                	.insn	2, 0x0704
 6dc:	016e                	.insn	2, 0x016e
 6de:	0000                	.insn	2, 0x
 6e0:	fe050803          	lb	a6,-32(a0)
 6e4:	0000                	.insn	2, 0x
 6e6:	0300                	.insn	2, 0x0300
 6e8:	0708                	.insn	2, 0x0708
 6ea:	0169                	.insn	2, 0x0169
 6ec:	0000                	.insn	2, 0x
 6ee:	6905040b          	.insn	4, 0x6905040b
 6f2:	746e                	.insn	2, 0x746e
 6f4:	0300                	.insn	2, 0x0300
 6f6:	0704                	.insn	2, 0x0704
 6f8:	00000173          	.insn	4, 0x0173
 6fc:	a705                	.insn	2, 0xa705
 6fe:	0002                	.insn	2, 0x0002
 700:	0300                	.insn	2, 0x0300
 702:	132c                	.insn	2, 0x132c
 704:	0042                	.insn	2, 0x0042
 706:	0000                	.insn	2, 0x
 708:	9205                	.insn	2, 0x9205
 70a:	0000                	.insn	2, 0x
 70c:	0300                	.insn	2, 0x0300
 70e:	1430                	.insn	2, 0x1430
 710:	0055                	.insn	2, 0x0055
 712:	0000                	.insn	2, 0x
 714:	9006                	.insn	2, 0x9006
 716:	0000                	.insn	2, 0x
 718:	0300                	.insn	2, 0x0300
 71a:	0410                	.insn	2, 0x0410
 71c:	0146                	.insn	2, 0x0146
 71e:	0000                	.insn	2, 0x
 720:	9c0c                	.insn	2, 0x9c0c
 722:	0000                	.insn	2, 0x
 724:	b800                	.insn	2, 0xb800
 726:	0000                	.insn	2, 0x
 728:	0d00                	.insn	2, 0x0d00
 72a:	007d                	.insn	2, 0x007d
 72c:	0000                	.insn	2, 0x
 72e:	001f a806 0000      	.insn	6, 0xa806001f
 734:	0100                	.insn	2, 0x0100
 736:	0000021b          	.insn	4, 0x021b
 73a:	1715                	.insn	2, 0x1715
 73c:	00b8                	.insn	2, 0x00b8
 73e:	0000                	.insn	2, 0x
 740:	0305                	.insn	2, 0x0305
 742:	11f4                	.insn	2, 0x11f4
 744:	0001                	.insn	2, 0x0001
 746:	860e                	.insn	2, 0x860e
 748:	0000                	.insn	2, 0x
 74a:	0100                	.insn	2, 0x0100
 74c:	0d05                	.insn	2, 0x0d05
 74e:	00e0                	.insn	2, 0x00e0
 750:	0000                	.insn	2, 0x
 752:	00006107          	.insn	4, 0x6107
 756:	0000                	.insn	2, 0x
 758:	00011a0f          	.insn	4, 0x00011a0f
 75c:	0100                	.insn	2, 0x0100
 75e:	0c06                	.insn	2, 0x0c06
 760:	0076                	.insn	2, 0x0076
 762:	0000                	.insn	2, 0x
 764:	000000f7          	.insn	4, 0x00f7
 768:	0000f707          	.insn	4, 0xf707
 76c:	1000                	.insn	2, 0x1000
 76e:	1100                	.insn	2, 0x1100
 770:	0404                	.insn	2, 0x0404
 772:	0001                	.insn	2, 0x0001
 774:	0300                	.insn	2, 0x0300
 776:	0801                	.insn	2, 0x0801
 778:	0000015b          	.insn	4, 0x015b
 77c:	fd06                	.insn	2, 0xfd06
 77e:	0000                	.insn	2, 0x
 780:	1200                	.insn	2, 0x1200
 782:	01d8                	.insn	2, 0x01d8
 784:	0000                	.insn	2, 0x
 786:	6801                	.insn	2, 0x6801
 788:	7605                	.insn	2, 0x7605
 78a:	0000                	.insn	2, 0x
 78c:	6c00                	.insn	2, 0x6c00
 78e:	0110                	.insn	2, 0x0110
 790:	2800                	.insn	2, 0x2800
 792:	0001                	.insn	2, 0x0001
 794:	0100                	.insn	2, 0x0100
 796:	139c                	.insn	2, 0x139c
 798:	0298                	.insn	2, 0x0298
 79a:	0000                	.insn	2, 0x
 79c:	5e01                	.insn	2, 0x5e01
 79e:	dc0d                	.insn	2, 0xdc0d
 7a0:	9000010f          	.insn	4, 0x9000010f
 7a4:	0000                	.insn	2, 0x
 7a6:	0100                	.insn	2, 0x0100
 7a8:	609c                	.insn	2, 0x609c
 7aa:	0001                	.insn	2, 0x0001
 7ac:	0800                	.insn	2, 0x0800
 7ae:	00000293          	li	t0,0
 7b2:	265e                	.insn	2, 0x265e
 7b4:	000000f7          	.insn	4, 0x00f7
 7b8:	9102                	.insn	2, 0x9102
 7ba:	046c                	.insn	2, 0x046c
 7bc:	00746f67          	.insn	4, 0x00746f67
 7c0:	355e                	.insn	2, 0x355e
 7c2:	0090                	.insn	2, 0x0090
 7c4:	0000                	.insn	2, 0x
 7c6:	9102                	.insn	2, 0x9102
 7c8:	0868                	.insn	2, 0x0868
 7ca:	000002af          	.insn	4, 0x02af
 7ce:	435e                	.insn	2, 0x435e
 7d0:	0090                	.insn	2, 0x0090
 7d2:	0000                	.insn	2, 0x
 7d4:	9102                	.insn	2, 0x9102
 7d6:	0064                	.insn	2, 0x0064
 7d8:	6309                	.insn	2, 0x6309
 7da:	0002                	.insn	2, 0x0002
 7dc:	5000                	.insn	2, 0x5000
 7de:	0090                	.insn	2, 0x0090
 7e0:	0000                	.insn	2, 0x
 7e2:	0f44                	.insn	2, 0x0f44
 7e4:	0001                	.insn	2, 0x0001
 7e6:	0098                	.insn	2, 0x0098
 7e8:	0000                	.insn	2, 0x
 7ea:	9c01                	.insn	2, 0x9c01
 7ec:	000001e3          	beqz	zero,fee <_start-0xf012>
 7f0:	6404                	.insn	2, 0x6404
 7f2:	0078                	.insn	2, 0x0078
 7f4:	2350                	.insn	2, 0x2350
 7f6:	0084                	.insn	2, 0x0084
 7f8:	0000                	.insn	2, 0x
 7fa:	9102                	.insn	2, 0x9102
 7fc:	044c                	.insn	2, 0x044c
 7fe:	7964                	.insn	2, 0x7964
 800:	5000                	.insn	2, 0x5000
 802:	0000842f          	.insn	4, 0x842f
 806:	0200                	.insn	2, 0x0200
 808:	4891                	.insn	2, 0x4891
 80a:	6404                	.insn	2, 0x6404
 80c:	007a                	.insn	2, 0x007a
 80e:	3b50                	.insn	2, 0x3b50
 810:	0084                	.insn	2, 0x0084
 812:	0000                	.insn	2, 0x
 814:	9102                	.insn	2, 0x9102
 816:	0244                	.insn	2, 0x0244
 818:	3164                	.insn	2, 0x3164
 81a:	5100                	.insn	2, 0x5100
 81c:	900e                	.insn	2, 0x900e
 81e:	0000                	.insn	2, 0x
 820:	0200                	.insn	2, 0x0200
 822:	6c91                	.insn	2, 0x6c91
 824:	6402                	.insn	2, 0x6402
 826:	0032                	.insn	2, 0x0032
 828:	0e52                	.insn	2, 0x0e52
 82a:	0090                	.insn	2, 0x0090
 82c:	0000                	.insn	2, 0x
 82e:	9102                	.insn	2, 0x9102
 830:	0268                	.insn	2, 0x0268
 832:	3364                	.insn	2, 0x3364
 834:	5300                	.insn	2, 0x5300
 836:	900e                	.insn	2, 0x900e
 838:	0000                	.insn	2, 0x
 83a:	0200                	.insn	2, 0x0200
 83c:	6491                	.insn	2, 0x6491
 83e:	3901                	.insn	2, 0x3901
 840:	0002                	.insn	2, 0x0002
 842:	5400                	.insn	2, 0x5400
 844:	900e                	.insn	2, 0x900e
 846:	0000                	.insn	2, 0x
 848:	0200                	.insn	2, 0x0200
 84a:	6091                	.insn	2, 0x6091
 84c:	6902                	.insn	2, 0x6902
 84e:	766e                	.insn	2, 0x766e
 850:	5700                	.insn	2, 0x5700
 852:	900e                	.insn	2, 0x900e
 854:	0000                	.insn	2, 0x
 856:	0200                	.insn	2, 0x0200
 858:	5c91                	.insn	2, 0x5c91
 85a:	0900                	.insn	2, 0x0900
 85c:	0241                	.insn	2, 0x0241
 85e:	0000                	.insn	2, 0x
 860:	903a                	.insn	2, 0x903a
 862:	0000                	.insn	2, 0x
 864:	fc00                	.insn	2, 0xfc00
 866:	010d                	.insn	2, 0x010d
 868:	4800                	.insn	2, 0x4800
 86a:	0001                	.insn	2, 0x0001
 86c:	0100                	.insn	2, 0x0100
 86e:	689c                	.insn	2, 0x689c
 870:	0002                	.insn	2, 0x0002
 872:	0400                	.insn	2, 0x0400
 874:	0078                	.insn	2, 0x0078
 876:	1e3a                	.insn	2, 0x1e3a
 878:	0090                	.insn	2, 0x0090
 87a:	0000                	.insn	2, 0x
 87c:	9102                	.insn	2, 0x9102
 87e:	024c                	.insn	2, 0x024c
 880:	7865                	.insn	2, 0x7865
 882:	0070                	.insn	2, 0x0070
 884:	093d                	.insn	2, 0x093d
 886:	0076                	.insn	2, 0x0076
 888:	0000                	.insn	2, 0x
 88a:	9102                	.insn	2, 0x9102
 88c:	026c                	.insn	2, 0x026c
 88e:	0079                	.insn	2, 0x0079
 890:	0e3e                	.insn	2, 0x0e3e
 892:	0090                	.insn	2, 0x0090
 894:	0000                	.insn	2, 0x
 896:	9102                	.insn	2, 0x9102
 898:	0168                	.insn	2, 0x0168
 89a:	024c                	.insn	2, 0x024c
 89c:	0000                	.insn	2, 0x
 89e:	00900e3f 91020000 	.insn	8, 0x9102000000900e3f
 8a6:	0164                	.insn	2, 0x0164
 8a8:	00000253          	.insn	4, 0x0253
 8ac:	0e40                	.insn	2, 0x0e40
 8ae:	0090                	.insn	2, 0x0090
 8b0:	0000                	.insn	2, 0x
 8b2:	9102                	.insn	2, 0x9102
 8b4:	0160                	.insn	2, 0x0160
 8b6:	02b6                	.insn	2, 0x02b6
 8b8:	0000                	.insn	2, 0x
 8ba:	00900e43          	.insn	4, 0x00900e43
 8be:	0000                	.insn	2, 0x
 8c0:	9102                	.insn	2, 0x9102
 8c2:	015c                	.insn	2, 0x015c
 8c4:	0000022f          	.insn	4, 0x022f
 8c8:	0e44                	.insn	2, 0x0e44
 8ca:	0090                	.insn	2, 0x0090
 8cc:	0000                	.insn	2, 0x
 8ce:	9102                	.insn	2, 0x9102
 8d0:	0158                	.insn	2, 0x0158
 8d2:	0259                	.insn	2, 0x0259
 8d4:	0000                	.insn	2, 0x
 8d6:	0e45                	.insn	2, 0x0e45
 8d8:	0090                	.insn	2, 0x0090
 8da:	0000                	.insn	2, 0x
 8dc:	9102                	.insn	2, 0x9102
 8de:	0054                	.insn	2, 0x0054
 8e0:	7414                	.insn	2, 0x7414
 8e2:	0002                	.insn	2, 0x0002
 8e4:	0100                	.insn	2, 0x0100
 8e6:	112e                	.insn	2, 0x112e
 8e8:	0090                	.insn	2, 0x0090
 8ea:	0000                	.insn	2, 0x
 8ec:	0d68                	.insn	2, 0x0d68
 8ee:	0001                	.insn	2, 0x0001
 8f0:	0094                	.insn	2, 0x0094
 8f2:	0000                	.insn	2, 0x
 8f4:	9c01                	.insn	2, 0x9c01
 8f6:	02e0                	.insn	2, 0x02e0
 8f8:	0000                	.insn	2, 0x
 8fa:	7904                	.insn	2, 0x7904
 8fc:	2e00                	.insn	2, 0x2e00
 8fe:	9026                	.insn	2, 0x9026
 900:	0000                	.insn	2, 0x
 902:	0200                	.insn	2, 0x0200
 904:	4c91                	.insn	2, 0x4c91
 906:	7804                	.insn	2, 0x7804
 908:	2e00                	.insn	2, 0x2e00
 90a:	9032                	.insn	2, 0x9032
 90c:	0000                	.insn	2, 0x
 90e:	0200                	.insn	2, 0x0200
 910:	4891                	.insn	2, 0x4891
 912:	7902                	.insn	2, 0x7902
 914:	0032                	.insn	2, 0x0032
 916:	00900e2f          	.insn	4, 0x00900e2f
 91a:	0000                	.insn	2, 0x
 91c:	9102                	.insn	2, 0x9102
 91e:	026c                	.insn	2, 0x026c
 920:	7978                	.insn	2, 0x7978
 922:	0032                	.insn	2, 0x0032
 924:	0e30                	.insn	2, 0x0e30
 926:	0090                	.insn	2, 0x0090
 928:	0000                	.insn	2, 0x
 92a:	9102                	.insn	2, 0x9102
 92c:	0168                	.insn	2, 0x0168
 92e:	0280                	.insn	2, 0x0280
 930:	0000                	.insn	2, 0x
 932:	0e31                	.insn	2, 0x0e31
 934:	0090                	.insn	2, 0x0090
 936:	0000                	.insn	2, 0x
 938:	9102                	.insn	2, 0x9102
 93a:	0164                	.insn	2, 0x0164
 93c:	028e                	.insn	2, 0x028e
 93e:	0000                	.insn	2, 0x
 940:	0e32                	.insn	2, 0x0e32
 942:	0090                	.insn	2, 0x0090
 944:	0000                	.insn	2, 0x
 946:	9102                	.insn	2, 0x9102
 948:	0160                	.insn	2, 0x0160
 94a:	0000022f          	.insn	4, 0x022f
 94e:	00900e33          	add	t3,zero,s1
 952:	0000                	.insn	2, 0x
 954:	9102                	.insn	2, 0x9102
 956:	005c                	.insn	2, 0x005c
 958:	2715                	.insn	2, 0x2715
 95a:	0002                	.insn	2, 0x0002
 95c:	0100                	.insn	2, 0x0100
 95e:	111f 0090 0000      	.insn	6, 0x0090111f
 964:	0ca8                	.insn	2, 0x0ca8
 966:	0001                	.insn	2, 0x0001
 968:	00c0                	.insn	2, 0x00c0
 96a:	0000                	.insn	2, 0x
 96c:	9c01                	.insn	2, 0x9c01
 96e:	00000373          	.insn	4, 0x0373
 972:	6104                	.insn	2, 0x6104
 974:	1f00                	.insn	2, 0x1f00
 976:	9022                	.insn	2, 0x9022
 978:	0000                	.insn	2, 0x
 97a:	0200                	.insn	2, 0x0200
 97c:	4c91                	.insn	2, 0x4c91
 97e:	6204                	.insn	2, 0x6204
 980:	1f00                	.insn	2, 0x1f00
 982:	902e                	.insn	2, 0x902e
 984:	0000                	.insn	2, 0x
 986:	0200                	.insn	2, 0x0200
 988:	4891                	.insn	2, 0x4891
 98a:	bb01                	.insn	2, 0xbb01
 98c:	0002                	.insn	2, 0x0002
 98e:	2000                	.insn	2, 0x2000
 990:	900e                	.insn	2, 0x900e
 992:	0000                	.insn	2, 0x
 994:	0200                	.insn	2, 0x0200
 996:	6c91                	.insn	2, 0x6c91
 998:	3401                	.insn	2, 0x3401
 99a:	0002                	.insn	2, 0x0002
 99c:	2000                	.insn	2, 0x2000
 99e:	901e                	.insn	2, 0x901e
 9a0:	0000                	.insn	2, 0x
 9a2:	0200                	.insn	2, 0x0200
 9a4:	6891                	.insn	2, 0x6891
 9a6:	5e01                	.insn	2, 0x5e01
 9a8:	0002                	.insn	2, 0x0002
 9aa:	2100                	.insn	2, 0x2100
 9ac:	900e                	.insn	2, 0x900e
 9ae:	0000                	.insn	2, 0x
 9b0:	0200                	.insn	2, 0x0200
 9b2:	6491                	.insn	2, 0x6491
 9b4:	8901                	.insn	2, 0x8901
 9b6:	0002                	.insn	2, 0x0002
 9b8:	2100                	.insn	2, 0x2100
 9ba:	901e                	.insn	2, 0x901e
 9bc:	0000                	.insn	2, 0x
 9be:	0200                	.insn	2, 0x0200
 9c0:	6091                	.insn	2, 0x6091
 9c2:	6802                	.insn	2, 0x6802
 9c4:	0069                	.insn	2, 0x0069
 9c6:	00900e23          	sb	s1,28(zero) # 1c <_start-0xffe4>
 9ca:	0000                	.insn	2, 0x
 9cc:	9102                	.insn	2, 0x9102
 9ce:	025c                	.insn	2, 0x025c
 9d0:	696d                	.insn	2, 0x696d
 9d2:	0064                	.insn	2, 0x0064
 9d4:	0e24                	.insn	2, 0x0e24
 9d6:	0090                	.insn	2, 0x0090
 9d8:	0000                	.insn	2, 0x
 9da:	9102                	.insn	2, 0x9102
 9dc:	0258                	.insn	2, 0x0258
 9de:	6f6c                	.insn	2, 0x6f6c
 9e0:	2500                	.insn	2, 0x2500
 9e2:	900e                	.insn	2, 0x900e
 9e4:	0000                	.insn	2, 0x
 9e6:	0200                	.insn	2, 0x0200
 9e8:	5491                	.insn	2, 0x5491
 9ea:	1600                	.insn	2, 0x1600
 9ec:	007a6c63          	bltu	s4,t2,a04 <_start-0xf5fc>
 9f0:	0b01                	.insn	2, 0x0b01
 9f2:	00007613          	andi	a2,zero,0
 9f6:	4400                	.insn	2, 0x4400
 9f8:	010c                	.insn	2, 0x010c
 9fa:	6400                	.insn	2, 0x6400
 9fc:	0000                	.insn	2, 0x
 9fe:	0100                	.insn	2, 0x0100
 a00:	049c                	.insn	2, 0x049c
 a02:	0078                	.insn	2, 0x0078
 a04:	0090200b          	.insn	4, 0x0090200b
 a08:	0000                	.insn	2, 0x
 a0a:	9102                	.insn	2, 0x9102
 a0c:	025c                	.insn	2, 0x025c
 a0e:	006e                	.insn	2, 0x006e
 a10:	090d                	.insn	2, 0x090d
 a12:	0076                	.insn	2, 0x0076
 a14:	0000                	.insn	2, 0x
 a16:	9102                	.insn	2, 0x9102
 a18:	006c                	.insn	2, 0x006c
	...

Disassembly of section .debug_abbrev:

00000000 <.debug_abbrev>:
   0:	1101                	.insn	2, 0x1101
   2:	1001                	.insn	2, 0x1001
   4:	1106                	.insn	2, 0x1106
   6:	1201                	.insn	2, 0x1201
   8:	0301                	.insn	2, 0x0301
   a:	1b0e                	.insn	2, 0x1b0e
   c:	250e                	.insn	2, 0x250e
   e:	130e                	.insn	2, 0x130e
  10:	0005                	.insn	2, 0x0005
  12:	0200                	.insn	2, 0x0200
  14:	002e                	.insn	2, 0x002e
  16:	0c3f0e03          	lb	t3,195(t5)
  1a:	0111                	.insn	2, 0x0111
  1c:	0112                	.insn	2, 0x0112
  1e:	0000                	.insn	2, 0x
  20:	0100                	.insn	2, 0x0100
  22:	0034                	.insn	2, 0x0034
  24:	213a0e03          	lb	t3,531(s4)
  28:	3b01                	.insn	2, 0x3b01
  2a:	490b390b          	.insn	4, 0x490b390b
  2e:	00180213          	addi	tp,a6,1
  32:	0200                	.insn	2, 0x0200
  34:	0005                	.insn	2, 0x0005
  36:	213a0803          	lb	a6,531(s4)
  3a:	3b01                	.insn	2, 0x3b01
  3c:	490b390b          	.insn	4, 0x490b390b
  40:	00180213          	addi	tp,a6,1
  44:	0300                	.insn	2, 0x0300
  46:	0024                	.insn	2, 0x0024
  48:	0b3e0b0b          	.insn	4, 0x0b3e0b0b
  4c:	00000e03          	lb	t3,0(zero) # 0 <_start-0x10000>
  50:	0504                	.insn	2, 0x0504
  52:	0300                	.insn	2, 0x0300
  54:	3a0e                	.insn	2, 0x3a0e
  56:	0121                	.insn	2, 0x0121
  58:	0b390b3b          	.insn	4, 0x0b390b3b
  5c:	1349                	.insn	2, 0x1349
  5e:	1802                	.insn	2, 0x1802
  60:	0000                	.insn	2, 0x
  62:	3405                	.insn	2, 0x3405
  64:	0300                	.insn	2, 0x0300
  66:	3a08                	.insn	2, 0x3a08
  68:	0121                	.insn	2, 0x0121
  6a:	0b390b3b          	.insn	4, 0x0b390b3b
  6e:	1349                	.insn	2, 0x1349
  70:	1802                	.insn	2, 0x1802
  72:	0000                	.insn	2, 0x
  74:	1606                	.insn	2, 0x1606
  76:	0300                	.insn	2, 0x0300
  78:	3a0e                	.insn	2, 0x3a0e
  7a:	390b3b0b          	.insn	4, 0x390b3b0b
  7e:	0013490b          	.insn	4, 0x0013490b
  82:	0700                	.insn	2, 0x0700
  84:	012e                	.insn	2, 0x012e
  86:	0e03193f 3b01213a 	.insn	8, 0x3b01213a0e03193f
  8e:	270b390b          	.insn	4, 0x270b390b
  92:	4919                	.insn	2, 0x4919
  94:	12011113          	.insn	4, 0x12011113
  98:	4006                	.insn	2, 0x4006
  9a:	7a18                	.insn	2, 0x7a18
  9c:	0119                	.insn	2, 0x0119
  9e:	08000013          	li	zero,128
  a2:	0111010b          	.insn	4, 0x0111010b
  a6:	0612                	.insn	2, 0x0612
  a8:	0000                	.insn	2, 0x
  aa:	0109                	.insn	2, 0x0109
  ac:	4901                	.insn	2, 0x4901
  ae:	00130113          	addi	sp,t1,1
  b2:	0a00                	.insn	2, 0x0a00
  b4:	0021                	.insn	2, 0x0021
  b6:	1349                	.insn	2, 0x1349
  b8:	00000b2f          	.insn	4, 0x0b2f
  bc:	0b000f0b          	.insn	4, 0x0b000f0b
  c0:	0421                	.insn	2, 0x0421
  c2:	1349                	.insn	2, 0x1349
  c4:	0000                	.insn	2, 0x
  c6:	2e0c                	.insn	2, 0x2e0c
  c8:	3f01                	.insn	2, 0x3f01
  ca:	0319                	.insn	2, 0x0319
  cc:	3a0e                	.insn	2, 0x3a0e
  ce:	0121                	.insn	2, 0x0121
  d0:	0b390b3b          	.insn	4, 0x0b390b3b
  d4:	13491927          	.insn	4, 0x13491927
  d8:	0111                	.insn	2, 0x0111
  da:	0612                	.insn	2, 0x0612
  dc:	1840                	.insn	2, 0x1840
  de:	197c                	.insn	2, 0x197c
  e0:	1301                	.insn	2, 0x1301
  e2:	0000                	.insn	2, 0x
  e4:	0b0d                	.insn	2, 0x0b0d
  e6:	1101                	.insn	2, 0x1101
  e8:	1201                	.insn	2, 0x1201
  ea:	0106                	.insn	2, 0x0106
  ec:	0e000013          	li	zero,224
  f0:	002e                	.insn	2, 0x002e
  f2:	0e03193f 3b01213a 	.insn	8, 0x3b01213a0e03193f
  fa:	270b390b          	.insn	4, 0x270b390b
  fe:	4919                	.insn	2, 0x4919
 100:	00193c13          	seqz	s8,s2
 104:	0f00                	.insn	2, 0x0f00
 106:	012e                	.insn	2, 0x012e
 108:	213a0e03          	lb	t3,531(s4)
 10c:	3b01                	.insn	2, 0x3b01
 10e:	270b390b          	.insn	4, 0x270b390b
 112:	4919                	.insn	2, 0x4919
 114:	12011113          	.insn	4, 0x12011113
 118:	4006                	.insn	2, 0x4006
 11a:	7a18                	.insn	2, 0x7a18
 11c:	0119                	.insn	2, 0x0119
 11e:	10000013          	li	zero,256
 122:	0026                	.insn	2, 0x0026
 124:	1349                	.insn	2, 0x1349
 126:	0000                	.insn	2, 0x
 128:	1111                	.insn	2, 0x1111
 12a:	2501                	.insn	2, 0x2501
 12c:	130e                	.insn	2, 0x130e
 12e:	1b1f030b          	.insn	4, 0x1b1f030b
 132:	111f 1201 1006      	.insn	6, 0x10061201111f
 138:	12000017          	auipc	zero,0x12000
 13c:	0024                	.insn	2, 0x0024
 13e:	0b3e0b0b          	.insn	4, 0x0b3e0b0b
 142:	00000803          	lb	a6,0(zero) # 0 <_start-0x10000>
 146:	49003513          	sltiu	a0,zero,1168
 14a:	14000013          	li	zero,320
 14e:	0018                	.insn	2, 0x0018
 150:	0000                	.insn	2, 0x
 152:	2e15                	.insn	2, 0x2e15
 154:	3f01                	.insn	2, 0x3f01
 156:	0319                	.insn	2, 0x0319
 158:	3a0e                	.insn	2, 0x3a0e
 15a:	390b3b0b          	.insn	4, 0x390b3b0b
 15e:	1119270b          	.insn	4, 0x1119270b
 162:	1201                	.insn	2, 0x1201
 164:	4006                	.insn	2, 0x4006
 166:	7a18                	.insn	2, 0x7a18
 168:	0119                	.insn	2, 0x0119
 16a:	16000013          	li	zero,352
 16e:	012e                	.insn	2, 0x012e
 170:	0e03193f 0b3b0b3a 	.insn	8, 0x0b3b0b3a0e03193f
 178:	0b39                	.insn	2, 0x0b39
 17a:	01111927          	.insn	4, 0x01111927
 17e:	0612                	.insn	2, 0x0612
 180:	1840                	.insn	2, 0x1840
 182:	197c                	.insn	2, 0x197c
 184:	1301                	.insn	2, 0x1301
 186:	0000                	.insn	2, 0x
 188:	0b000f17          	auipc	t5,0xb000
 18c:	1800000b          	.insn	4, 0x1800000b
 190:	0026                	.insn	2, 0x0026
 192:	0000                	.insn	2, 0x
 194:	0100                	.insn	2, 0x0100
 196:	0011                	.insn	2, 0x0011
 198:	0610                	.insn	2, 0x0610
 19a:	0111                	.insn	2, 0x0111
 19c:	0112                	.insn	2, 0x0112
 19e:	0e1b0e03          	lb	t3,225(s6)
 1a2:	0e25                	.insn	2, 0x0e25
 1a4:	00000513          	li	a0,0
 1a8:	0100                	.insn	2, 0x0100
 1aa:	0034                	.insn	2, 0x0034
 1ac:	213a0e03          	lb	t3,531(s4)
 1b0:	3b01                	.insn	2, 0x3b01
 1b2:	490b390b          	.insn	4, 0x490b390b
 1b6:	00180213          	addi	tp,a6,1
 1ba:	0200                	.insn	2, 0x0200
 1bc:	0034                	.insn	2, 0x0034
 1be:	213a0803          	lb	a6,531(s4)
 1c2:	3b01                	.insn	2, 0x3b01
 1c4:	490b390b          	.insn	4, 0x490b390b
 1c8:	00180213          	addi	tp,a6,1
 1cc:	0300                	.insn	2, 0x0300
 1ce:	0024                	.insn	2, 0x0024
 1d0:	0b3e0b0b          	.insn	4, 0x0b3e0b0b
 1d4:	00000e03          	lb	t3,0(zero) # 0 <_start-0x10000>
 1d8:	0504                	.insn	2, 0x0504
 1da:	0300                	.insn	2, 0x0300
 1dc:	3a08                	.insn	2, 0x3a08
 1de:	0121                	.insn	2, 0x0121
 1e0:	0b390b3b          	.insn	4, 0x0b390b3b
 1e4:	1349                	.insn	2, 0x1349
 1e6:	1802                	.insn	2, 0x1802
 1e8:	0000                	.insn	2, 0x
 1ea:	1605                	.insn	2, 0x1605
 1ec:	0300                	.insn	2, 0x0300
 1ee:	3a0e                	.insn	2, 0x3a0e
 1f0:	390b3b0b          	.insn	4, 0x390b3b0b
 1f4:	0013490b          	.insn	4, 0x0013490b
 1f8:	0600                	.insn	2, 0x0600
 1fa:	0026                	.insn	2, 0x0026
 1fc:	1349                	.insn	2, 0x1349
 1fe:	0000                	.insn	2, 0x
 200:	49000507          	.insn	4, 0x49000507
 204:	08000013          	li	zero,128
 208:	0005                	.insn	2, 0x0005
 20a:	213a0e03          	lb	t3,531(s4)
 20e:	3b01                	.insn	2, 0x3b01
 210:	490b390b          	.insn	4, 0x490b390b
 214:	00180213          	addi	tp,a6,1
 218:	0900                	.insn	2, 0x0900
 21a:	012e                	.insn	2, 0x012e
 21c:	0e03193f 3b01213a 	.insn	8, 0x3b01213a0e03193f
 224:	0a21390b          	.insn	4, 0x0a21390b
 228:	13491927          	.insn	4, 0x13491927
 22c:	0111                	.insn	2, 0x0111
 22e:	0612                	.insn	2, 0x0612
 230:	1840                	.insn	2, 0x1840
 232:	197c                	.insn	2, 0x197c
 234:	1301                	.insn	2, 0x1301
 236:	0000                	.insn	2, 0x
 238:	110a                	.insn	2, 0x110a
 23a:	2501                	.insn	2, 0x2501
 23c:	130e                	.insn	2, 0x130e
 23e:	1b1f030b          	.insn	4, 0x1b1f030b
 242:	111f 1201 1006      	.insn	6, 0x10061201111f
 248:	0b000017          	auipc	zero,0xb000
 24c:	0024                	.insn	2, 0x0024
 24e:	0b3e0b0b          	.insn	4, 0x0b3e0b0b
 252:	00000803          	lb	a6,0(zero) # 0 <_start-0x10000>
 256:	010c                	.insn	2, 0x010c
 258:	4901                	.insn	2, 0x4901
 25a:	00130113          	addi	sp,t1,1
 25e:	0d00                	.insn	2, 0x0d00
 260:	0021                	.insn	2, 0x0021
 262:	1349                	.insn	2, 0x1349
 264:	00000b2f          	.insn	4, 0x0b2f
 268:	2e0e                	.insn	2, 0x2e0e
 26a:	3f01                	.insn	2, 0x3f01
 26c:	0319                	.insn	2, 0x0319
 26e:	3a0e                	.insn	2, 0x3a0e
 270:	390b3b0b          	.insn	4, 0x390b3b0b
 274:	3c19270b          	.insn	4, 0x3c19270b
 278:	0119                	.insn	2, 0x0119
 27a:	0f000013          	li	zero,240
 27e:	012e                	.insn	2, 0x012e
 280:	0e03193f 0b3b0b3a 	.insn	8, 0x0b3b0b3a0e03193f
 288:	0b39                	.insn	2, 0x0b39
 28a:	13491927          	.insn	4, 0x13491927
 28e:	193c                	.insn	2, 0x193c
 290:	1301                	.insn	2, 0x1301
 292:	0000                	.insn	2, 0x
 294:	1810                	.insn	2, 0x1810
 296:	0000                	.insn	2, 0x
 298:	1100                	.insn	2, 0x1100
 29a:	0b0b000f          	.insn	4, 0x0b0b000f
 29e:	1349                	.insn	2, 0x1349
 2a0:	0000                	.insn	2, 0x
 2a2:	2e12                	.insn	2, 0x2e12
 2a4:	3f00                	.insn	2, 0x3f00
 2a6:	0319                	.insn	2, 0x0319
 2a8:	3a0e                	.insn	2, 0x3a0e
 2aa:	390b3b0b          	.insn	4, 0x390b3b0b
 2ae:	4919270b          	.insn	4, 0x4919270b
 2b2:	12011113          	.insn	4, 0x12011113
 2b6:	4006                	.insn	2, 0x4006
 2b8:	7c18                	.insn	2, 0x7c18
 2ba:	0019                	.insn	2, 0x0019
 2bc:	1300                	.insn	2, 0x1300
 2be:	012e                	.insn	2, 0x012e
 2c0:	0b3a0e03          	lb	t3,179(s4)
 2c4:	0b390b3b          	.insn	4, 0x0b390b3b
 2c8:	01111927          	.insn	4, 0x01111927
 2cc:	0612                	.insn	2, 0x0612
 2ce:	1840                	.insn	2, 0x1840
 2d0:	197c                	.insn	2, 0x197c
 2d2:	1301                	.insn	2, 0x1301
 2d4:	0000                	.insn	2, 0x
 2d6:	2e14                	.insn	2, 0x2e14
 2d8:	0301                	.insn	2, 0x0301
 2da:	3a0e                	.insn	2, 0x3a0e
 2dc:	390b3b0b          	.insn	4, 0x390b3b0b
 2e0:	4919270b          	.insn	4, 0x4919270b
 2e4:	12011113          	.insn	4, 0x12011113
 2e8:	4006                	.insn	2, 0x4006
 2ea:	7c18                	.insn	2, 0x7c18
 2ec:	0119                	.insn	2, 0x0119
 2ee:	15000013          	li	zero,336
 2f2:	012e                	.insn	2, 0x012e
 2f4:	0b3a0e03          	lb	t3,179(s4)
 2f8:	0b390b3b          	.insn	4, 0x0b390b3b
 2fc:	13491927          	.insn	4, 0x13491927
 300:	0111                	.insn	2, 0x0111
 302:	0612                	.insn	2, 0x0612
 304:	1840                	.insn	2, 0x1840
 306:	197a                	.insn	2, 0x197a
 308:	1301                	.insn	2, 0x1301
 30a:	0000                	.insn	2, 0x
 30c:	2e16                	.insn	2, 0x2e16
 30e:	0301                	.insn	2, 0x0301
 310:	3a08                	.insn	2, 0x3a08
 312:	390b3b0b          	.insn	4, 0x390b3b0b
 316:	4919270b          	.insn	4, 0x4919270b
 31a:	12011113          	.insn	4, 0x12011113
 31e:	4006                	.insn	2, 0x4006
 320:	7a18                	.insn	2, 0x7a18
 322:	0019                	.insn	2, 0x0019
	...

Disassembly of section .debug_aranges:

00000000 <.debug_aranges>:
   0:	001c                	.insn	2, 0x001c
   2:	0000                	.insn	2, 0x
   4:	0002                	.insn	2, 0x0002
   6:	0000                	.insn	2, 0x
   8:	0000                	.insn	2, 0x
   a:	0004                	.insn	2, 0x0004
   c:	0000                	.insn	2, 0x
   e:	0000                	.insn	2, 0x
  10:	0000                	.insn	2, 0x
  12:	0001                	.insn	2, 0x0001
  14:	003c                	.insn	2, 0x003c
	...
  1e:	0000                	.insn	2, 0x
  20:	001c                	.insn	2, 0x001c
  22:	0000                	.insn	2, 0x
  24:	0002                	.insn	2, 0x0002
  26:	0035                	.insn	2, 0x0035
  28:	0000                	.insn	2, 0x
  2a:	0004                	.insn	2, 0x0004
  2c:	0000                	.insn	2, 0x
  2e:	0000                	.insn	2, 0x
  30:	003c                	.insn	2, 0x003c
  32:	0001                	.insn	2, 0x0001
  34:	0be0                	.insn	2, 0x0be0
	...
  3e:	0000                	.insn	2, 0x
  40:	001c                	.insn	2, 0x001c
  42:	0000                	.insn	2, 0x
  44:	0002                	.insn	2, 0x0002
  46:	0652                	.insn	2, 0x0652
  48:	0000                	.insn	2, 0x
  4a:	0004                	.insn	2, 0x0004
  4c:	0000                	.insn	2, 0x
  4e:	0000                	.insn	2, 0x
  50:	0c1c                	.insn	2, 0x0c1c
  52:	0001                	.insn	2, 0x0001
  54:	0028                	.insn	2, 0x0028
	...
  5e:	0000                	.insn	2, 0x
  60:	001c                	.insn	2, 0x001c
  62:	0000                	.insn	2, 0x
  64:	0002                	.insn	2, 0x0002
  66:	0678                	.insn	2, 0x0678
  68:	0000                	.insn	2, 0x
  6a:	0004                	.insn	2, 0x0004
  6c:	0000                	.insn	2, 0x
  6e:	0000                	.insn	2, 0x
  70:	0c44                	.insn	2, 0x0c44
  72:	0001                	.insn	2, 0x0001
  74:	0550                	.insn	2, 0x0550
	...

Disassembly of section .debug_str:

00000000 <.debug_str>:
   0:	72617473          	csrrci	s0,mhpmevent6h,2
   4:	2e74                	.insn	2, 0x2e74
   6:	552f0053          	.insn	4, 0x552f0053
   a:	73726573          	csrrsi	a0,mhpmevent23h,4
   e:	7573682f          	.insn	4, 0x7573682f
  12:	7368                	.insn	2, 0x7368
  14:	6169                	.insn	2, 0x6169
  16:	6e61666f          	jal	a2,166fc <__stack_top+0x43ac>
  1a:	3376722f          	.insn	4, 0x3376722f
  1e:	6532                	.insn	2, 0x6532
  20:	756d                	.insn	2, 0x756d
  22:	5f796d2f          	.insn	4, 0x5f796d2f
  26:	7270                	.insn	2, 0x7270
  28:	63656a6f          	jal	s4,5665e <__stack_top+0x4430e>
  2c:	0074                	.insn	2, 0x0074
  2e:	20554e47          	.insn	4, 0x20554e47
  32:	5341                	.insn	2, 0x5341
  34:	3220                	.insn	2, 0x3220
  36:	342e                	.insn	2, 0x342e
  38:	00312e33          	slt	t3,sp,gp
  3c:	735f 6174 7472      	.insn	6, 0x74726174735f
  42:	5f00                	.insn	2, 0x5f00
  44:	755f 6964 6476      	.insn	6, 0x64766964755f
  4a:	3369                	.insn	2, 0x3369
  4c:	5f00                	.insn	2, 0x5f00
  4e:	705f 706f 6f63      	.insn	6, 0x6f63706f705f
  54:	6e75                	.insn	2, 0x6e75
  56:	7374                	.insn	2, 0x7374
  58:	3269                	.insn	2, 0x3269
  5a:	6400                	.insn	2, 0x6400
  5c:	7365                	.insn	2, 0x7365
  5e:	0074                	.insn	2, 0x0074
  60:	7270                	.insn	2, 0x7270
  62:	6e69                	.insn	2, 0x6e69
  64:	5f74                	.insn	2, 0x5f74
  66:	72616863          	bltu	sp,t1,796 <_start-0xf86a>
  6a:	7200                	.insn	2, 0x7200
  6c:	6d65                	.insn	2, 0x6d65
  6e:	6961                	.insn	2, 0x6961
  70:	646e                	.insn	2, 0x646e
  72:	7265                	.insn	2, 0x7265
  74:	7300                	.insn	2, 0x7300
  76:	6f68                	.insn	2, 0x6f68
  78:	7472                	.insn	2, 0x7472
  7a:	6920                	.insn	2, 0x6920
  7c:	746e                	.insn	2, 0x746e
  7e:	7300                	.insn	2, 0x7300
  80:	7a69                	.insn	2, 0x7a69
  82:	5f65                	.insn	2, 0x5f65
  84:	0074                	.insn	2, 0x0074
  86:	7270                	.insn	2, 0x7270
  88:	6e69                	.insn	2, 0x6e69
  8a:	5f74                	.insn	2, 0x5f74
  8c:	6e69                	.insn	2, 0x6e69
  8e:	0074                	.insn	2, 0x0074
  90:	5f5f 6975 746e      	.insn	6, 0x746e69755f5f
  96:	745f3233          	.insn	4, 0x745f3233
  9a:	6d00                	.insn	2, 0x6d00
  9c:	6d65                	.insn	2, 0x6d65
  9e:	00797063          	bgeu	s2,t2,9e <_start-0xff62>
  a2:	7571                	.insn	2, 0x7571
  a4:	6569746f          	jal	s0,976fa <__stack_top+0x853aa>
  a8:	746e                	.insn	2, 0x746e
  aa:	4700                	.insn	2, 0x4700
  ac:	554e                	.insn	2, 0x554e
  ae:	4320                	.insn	2, 0x4320
  b0:	3731                	.insn	2, 0x3731
  b2:	3120                	.insn	2, 0x3120
  b4:	2e34                	.insn	2, 0x2e34
  b6:	2e32                	.insn	2, 0x2e32
  b8:	2030                	.insn	2, 0x2030
  ba:	6d2d                	.insn	2, 0x6d2d
  bc:	6261                	.insn	2, 0x6261
  be:	3d69                	.insn	2, 0x3d69
  c0:	6c69                	.insn	2, 0x6c69
  c2:	3370                	.insn	2, 0x3370
  c4:	2032                	.insn	2, 0x2032
  c6:	6d2d                	.insn	2, 0x6d2d
  c8:	7369                	.insn	2, 0x7369
  ca:	2d61                	.insn	2, 0x2d61
  cc:	63657073          	csrci	0x636,10
  d0:	323d                	.insn	2, 0x323d
  d2:	3130                	.insn	2, 0x3130
  d4:	3139                	.insn	2, 0x3139
  d6:	3132                	.insn	2, 0x3132
  d8:	6d2d2033          	.insn	4, 0x6d2d2033
  dc:	7261                	.insn	2, 0x7261
  de:	723d6863          	bltu	s10,gp,80e <_start-0xf7f2>
  e2:	3376                	.insn	2, 0x3376
  e4:	6932                	.insn	2, 0x6932
  e6:	5f6d                	.insn	2, 0x5f6d
  e8:	697a                	.insn	2, 0x697a
  ea:	20727363          	bgeu	tp,t2,2f0 <_start-0xfd10>
  ee:	672d                	.insn	2, 0x672d
  f0:	7300                	.insn	2, 0x7300
  f2:	6174                	.insn	2, 0x6174
  f4:	7472                	.insn	2, 0x7472
  f6:	635f 6379 656c      	.insn	6, 0x656c6379635f
  fc:	6f6c0073          	.insn	4, 0x6f6c0073
 100:	676e                	.insn	2, 0x676e
 102:	6c20                	.insn	2, 0x6c20
 104:	20676e6f          	jal	t3,7630a <__stack_top+0x63fba>
 108:	6e69                	.insn	2, 0x6e69
 10a:	0074                	.insn	2, 0x0074
 10c:	72617473          	csrrci	s0,mhpmevent6h,2
 110:	5f74                	.insn	2, 0x5f74
 112:	6e69                	.insn	2, 0x6e69
 114:	65727473          	csrrci	s0,hviprio2h,4
 118:	0074                	.insn	2, 0x0074
 11a:	7270                	.insn	2, 0x7270
 11c:	6e69                	.insn	2, 0x6e69
 11e:	6674                	.insn	2, 0x6674
 120:	5f00                	.insn	2, 0x5f00
 122:	755f 6e69 3874      	.insn	6, 0x38746e69755f
 128:	745f 5f00 755f      	.insn	6, 0x755f5f00745f
 12e:	6f6d                	.insn	2, 0x6f6d
 130:	6464                	.insn	2, 0x6464
 132:	3369                	.insn	2, 0x3369
 134:	6700                	.insn	2, 0x6700
 136:	7465                	.insn	2, 0x7465
 138:	695f 736e 7274      	.insn	6, 0x7274736e695f
 13e:	7465                	.insn	2, 0x7465
 140:	7500                	.insn	2, 0x7500
 142:	6964                	.insn	2, 0x6964
 144:	0076                	.insn	2, 0x0076
 146:	6f6c                	.insn	2, 0x6f6c
 148:	676e                	.insn	2, 0x676e
 14a:	6420                	.insn	2, 0x6420
 14c:	6c62756f          	jal	a0,27812 <__stack_top+0x154c2>
 150:	0065                	.insn	2, 0x0065
 152:	6e75                	.insn	2, 0x6e75
 154:	6e676973          	csrrsi	s2,0x6e6,14
 158:	6465                	.insn	2, 0x6465
 15a:	6320                	.insn	2, 0x6320
 15c:	6168                	.insn	2, 0x6168
 15e:	0072                	.insn	2, 0x0072
 160:	6964                	.insn	2, 0x6964
 162:	6976                	.insn	2, 0x6976
 164:	6564                	.insn	2, 0x6564
 166:	646e                	.insn	2, 0x646e
 168:	6c00                	.insn	2, 0x6c00
 16a:	20676e6f          	jal	t3,76370 <__stack_top+0x64020>
 16e:	6f6c                	.insn	2, 0x6f6c
 170:	676e                	.insn	2, 0x676e
 172:	7520                	.insn	2, 0x7520
 174:	736e                	.insn	2, 0x736e
 176:	6769                	.insn	2, 0x6769
 178:	656e                	.insn	2, 0x656e
 17a:	2064                	.insn	2, 0x2064
 17c:	6e69                	.insn	2, 0x6e69
 17e:	0074                	.insn	2, 0x0074
 180:	6d75                	.insn	2, 0x6d75
 182:	6c75                	.insn	2, 0x6c75
 184:	7000                	.insn	2, 0x7000
 186:	7475                	.insn	2, 0x7475
 188:	68730073          	.insn	4, 0x68730073
 18c:	2074726f          	jal	tp,47b92 <__stack_top+0x35842>
 190:	6e75                	.insn	2, 0x6e75
 192:	6e676973          	csrrsi	s2,0x6e6,14
 196:	6465                	.insn	2, 0x6465
 198:	6920                	.insn	2, 0x6920
 19a:	746e                	.insn	2, 0x746e
 19c:	6500                	.insn	2, 0x6500
 19e:	646e                	.insn	2, 0x646e
 1a0:	695f 736e 7274      	.insn	6, 0x7274736e695f
 1a6:	7465                	.insn	2, 0x7465
 1a8:	7300                	.insn	2, 0x7300
 1aa:	7274                	.insn	2, 0x7274
 1ac:	656c                	.insn	2, 0x656c
 1ae:	006e                	.insn	2, 0x006e
 1b0:	5f5f 756d 736c      	.insn	6, 0x736c756d5f5f
 1b6:	3369                	.insn	2, 0x3369
 1b8:	5f00                	.insn	2, 0x5f00
 1ba:	755f 6e69 3674      	.insn	6, 0x36746e69755f
 1c0:	5f34                	.insn	2, 0x5f34
 1c2:	0074                	.insn	2, 0x0074
 1c4:	6d5f 6773 5f00      	.insn	6, 0x5f0067736d5f
 1ca:	6d5f 6c75 6964      	.insn	6, 0x69646c756d5f
 1d0:	6f630033          	.insn	4, 0x6f630033
 1d4:	6e75                	.insn	2, 0x6e75
 1d6:	0074                	.insn	2, 0x0074
 1d8:	7a71                	.insn	2, 0x7a71
 1da:	5f435f33          	.insn	4, 0x5f435f33
 1de:	616d                	.insn	2, 0x616d
 1e0:	6e69                	.insn	2, 0x6e69
 1e2:	7500                	.insn	2, 0x7500
 1e4:	6f6d                	.insn	2, 0x6f6d
 1e6:	0064                	.insn	2, 0x0064
 1e8:	6964                	.insn	2, 0x6964
 1ea:	6976                	.insn	2, 0x6976
 1ec:	00726f73          	csrrsi	t5,0x7,4
 1f0:	6f66                	.insn	2, 0x6f66
 1f2:	6d72                	.insn	2, 0x6d72
 1f4:	7461                	.insn	2, 0x7461
 1f6:	6700                	.insn	2, 0x6700
 1f8:	7465                	.insn	2, 0x7465
 1fa:	635f 6379 656c      	.insn	6, 0x656c6379635f
 200:	6e650073          	.insn	4, 0x6e650073
 204:	5f64                	.insn	2, 0x5f64
 206:	6c637963          	bgeu	t1,t1,8d8 <_start-0xf728>
 20a:	7365                	.insn	2, 0x7365
 20c:	7000                	.insn	2, 0x7000
 20e:	7265                	.insn	2, 0x7265
 210:	6366                	.insn	2, 0x6366
 212:	746e756f          	jal	a0,e7958 <__stack_top+0xd5608>
 216:	7265                	.insn	2, 0x7265
 218:	532e                	.insn	2, 0x532e
 21a:	7200                	.insn	2, 0x7200
 21c:	74727173          	csrrci	sp,0x747,4
 220:	745f 6261 656c      	.insn	6, 0x656c6261745f
 226:	6d00                	.insn	2, 0x6d00
 228:	6c75                	.insn	2, 0x6c75
 22a:	715f 3631 6400      	.insn	6, 0x64003631715f
 230:	6669                	.insn	2, 0x6669
 232:	0066                	.insn	2, 0x0066
 234:	5f61                	.insn	2, 0x5f61
 236:	6f6c                	.insn	2, 0x6f6c
 238:	6400                	.insn	2, 0x6400
 23a:	7369                	.insn	2, 0x7369
 23c:	5f74                	.insn	2, 0x5f74
 23e:	66007173          	csrrci	sp,0x660,0
 242:	7361                	.insn	2, 0x7361
 244:	5f74                	.insn	2, 0x5f74
 246:	7372                	.insn	2, 0x7372
 248:	7271                	.insn	2, 0x7271
 24a:	0074                	.insn	2, 0x0074
 24c:	5f79                	.insn	2, 0x5f79
 24e:	656e                	.insn	2, 0x656e
 250:	7478                	.insn	2, 0x7478
 252:	6400                	.insn	2, 0x6400
 254:	6c65                	.insn	2, 0x6c65
 256:	6174                	.insn	2, 0x6174
 258:	6600                	.insn	2, 0x6600
 25a:	6172                	.insn	2, 0x6172
 25c:	5f620063          	beq	tp,s6,83c <_start-0xf7c4>
 260:	6968                	.insn	2, 0x6968
 262:	6600                	.insn	2, 0x6600
 264:	7361                	.insn	2, 0x7361
 266:	5f74                	.insn	2, 0x5f74
 268:	6964                	.insn	2, 0x6964
 26a:	6e617473          	csrrci	s0,0x6e6,2
 26e:	335f6563          	bltu	t5,s5,598 <_start-0xfa68>
 272:	0064                	.insn	2, 0x0064
 274:	656e                	.insn	2, 0x656e
 276:	6e6f7477          	.insn	4, 0x6e6f7477
 27a:	735f 6574 0070      	.insn	6, 0x00706574735f
 280:	6168                	.insn	2, 0x6168
 282:	666c                	.insn	2, 0x666c
 284:	785f 3279 6200      	.insn	6, 0x62003279785f
 28a:	6c5f 006f 6574      	.insn	6, 0x6574006f6c5f
 290:	6d72                	.insn	2, 0x6d72
 292:	6e00                	.insn	2, 0x6e00
 294:	6d61                	.insn	2, 0x6d61
 296:	0065                	.insn	2, 0x0065
 298:	63656863          	bltu	a0,s6,8c8 <_start-0xf738>
 29c:	65725f6b          	.insn	4, 0x65725f6b
 2a0:	746c7573          	csrrci	a0,0x746,24
 2a4:	5f00                	.insn	2, 0x5f00
 2a6:	695f 746e 3233      	.insn	6, 0x3233746e695f
 2ac:	745f 6500 7078      	.insn	6, 0x70786500745f
 2b2:	6365                	.insn	2, 0x6365
 2b4:	0074                	.insn	2, 0x0074
 2b6:	6162                	.insn	2, 0x6162
 2b8:	61006573          	csrrsi	a0,0x610,0
 2bc:	Address 0x2bc is out of bounds.


Disassembly of section .debug_line_str:

00000000 <.debug_line_str>:
   0:	6573552f          	.insn	4, 0x6573552f
   4:	7372                	.insn	2, 0x7372
   6:	7573682f          	.insn	4, 0x7573682f
   a:	7368                	.insn	2, 0x7368
   c:	6169                	.insn	2, 0x6169
   e:	6e61666f          	jal	a2,166f4 <__stack_top+0x43a4>
  12:	3376722f          	.insn	4, 0x3376722f
  16:	6532                	.insn	2, 0x6532
  18:	756d                	.insn	2, 0x756d
  1a:	5f796d2f          	.insn	4, 0x5f796d2f
  1e:	7270                	.insn	2, 0x7270
  20:	63656a6f          	jal	s4,56656 <__stack_top+0x44306>
  24:	0074                	.insn	2, 0x0074
  26:	616d                	.insn	2, 0x616d
  28:	6e69                	.insn	2, 0x6e69
  2a:	632e                	.insn	2, 0x632e
  2c:	2f00                	.insn	2, 0x2f00
  2e:	7355                	.insn	2, 0x7355
  30:	7265                	.insn	2, 0x7265
  32:	73682f73          	csrrs	t5,mhpmevent22h,a6
  36:	6875                	.insn	2, 0x6875
  38:	6f616973          	csrrsi	s2,0x6f6,2
  3c:	6166                	.insn	2, 0x6166
  3e:	2f6e                	.insn	2, 0x2f6e
  40:	6972                	.insn	2, 0x6972
  42:	2d766373          	csrrsi	t1,0x2d7,12
  46:	6f6e                	.insn	2, 0x6f6e
  48:	656e                	.insn	2, 0x656e
  4a:	652d                	.insn	2, 0x652d
  4c:	666c                	.insn	2, 0x666c
  4e:	672d                	.insn	2, 0x672d
  50:	722f6363          	bltu	t5,sp,776 <_start-0xf88a>
  54:	7369                	.insn	2, 0x7369
  56:	6e2d7663          	bgeu	s10,sp,742 <_start-0xf8be>
  5a:	2d656e6f          	jal	t3,56330 <__stack_top+0x43fe0>
  5e:	6c65                	.insn	2, 0x6c65
  60:	2f66                	.insn	2, 0x2f66
  62:	6e69                	.insn	2, 0x6e69
  64:	64756c63          	bltu	a0,t2,6bc <_start-0xf944>
  68:	2f65                	.insn	2, 0x2f65
  6a:	616d                	.insn	2, 0x616d
  6c:	6e696863          	bltu	s2,t1,75c <_start-0xf8a4>
  70:	0065                	.insn	2, 0x0065
  72:	6573552f          	.insn	4, 0x6573552f
  76:	7372                	.insn	2, 0x7372
  78:	7573682f          	.insn	4, 0x7573682f
  7c:	7368                	.insn	2, 0x7368
  7e:	6169                	.insn	2, 0x6169
  80:	6e61666f          	jal	a2,16766 <__stack_top+0x4416>
  84:	7369722f          	.insn	4, 0x7369722f
  88:	6e2d7663          	bgeu	s10,sp,774 <_start-0xf88c>
  8c:	2d656e6f          	jal	t3,56362 <__stack_top+0x44012>
  90:	6c65                	.insn	2, 0x6c65
  92:	2d66                	.insn	2, 0x2d66
  94:	2f636367          	.insn	4, 0x2f636367
  98:	6972                	.insn	2, 0x6972
  9a:	2d766373          	csrrsi	t1,0x2d7,12
  9e:	6f6e                	.insn	2, 0x6f6e
  a0:	656e                	.insn	2, 0x656e
  a2:	652d                	.insn	2, 0x652d
  a4:	666c                	.insn	2, 0x666c
  a6:	636e692f          	.insn	4, 0x636e692f
  aa:	756c                	.insn	2, 0x756c
  ac:	6564                	.insn	2, 0x6564
  ae:	7379732f          	.insn	4, 0x7379732f
  b2:	2f00                	.insn	2, 0x2f00
  b4:	7355                	.insn	2, 0x7355
  b6:	7265                	.insn	2, 0x7265
  b8:	73682f73          	csrrs	t5,mhpmevent22h,a6
  bc:	6875                	.insn	2, 0x6875
  be:	6f616973          	csrrsi	s2,0x6f6,2
  c2:	6166                	.insn	2, 0x6166
  c4:	2f6e                	.insn	2, 0x2f6e
  c6:	6972                	.insn	2, 0x6972
  c8:	2d766373          	csrrsi	t1,0x2d7,12
  cc:	6f6e                	.insn	2, 0x6f6e
  ce:	656e                	.insn	2, 0x656e
  d0:	652d                	.insn	2, 0x652d
  d2:	666c                	.insn	2, 0x666c
  d4:	672d                	.insn	2, 0x672d
  d6:	6c2f6363          	bltu	t5,sp,79c <_start-0xf864>
  da:	6269                	.insn	2, 0x6269
  dc:	6363672f          	.insn	4, 0x6363672f
  e0:	7369722f          	.insn	4, 0x7369722f
  e4:	6e2d7663          	bgeu	s10,sp,7d0 <_start-0xf830>
  e8:	2d656e6f          	jal	t3,563be <__stack_top+0x4406e>
  ec:	6c65                	.insn	2, 0x6c65
  ee:	2f66                	.insn	2, 0x2f66
  f0:	3431                	.insn	2, 0x3431
  f2:	322e                	.insn	2, 0x322e
  f4:	302e                	.insn	2, 0x302e
  f6:	636e692f          	.insn	4, 0x636e692f
  fa:	756c                	.insn	2, 0x756c
  fc:	6564                	.insn	2, 0x6564
  fe:	5f00                	.insn	2, 0x5f00
 100:	6564                	.insn	2, 0x6564
 102:	6166                	.insn	2, 0x6166
 104:	6c75                	.insn	2, 0x6c75
 106:	5f74                	.insn	2, 0x5f74
 108:	7974                	.insn	2, 0x7974
 10a:	6570                	.insn	2, 0x6570
 10c:	00682e73          	csrrs	t3,0x6,a6
 110:	735f 6474 6e69      	.insn	6, 0x6e696474735f
 116:	2e74                	.insn	2, 0x2e74
 118:	0068                	.insn	2, 0x0068
 11a:	64647473          	csrrci	s0,hviprio1,8
 11e:	6665                	.insn	2, 0x6665
 120:	682e                	.insn	2, 0x682e
 122:	7100                	.insn	2, 0x7100
 124:	337a                	.insn	2, 0x337a
 126:	Address 0x126 is out of bounds.


Disassembly of section .debug_frame:

00000000 <.debug_frame>:
   0:	000c                	.insn	2, 0x000c
   2:	0000                	.insn	2, 0x
   4:	ffff                	.insn	2, 0xffff
   6:	ffff                	.insn	2, 0xffff
   8:	7c010003          	lb	zero,1984(sp)
   c:	0c01                	.insn	2, 0x0c01
   e:	0002                	.insn	2, 0x0002
  10:	0024                	.insn	2, 0x0024
  12:	0000                	.insn	2, 0x
  14:	0000                	.insn	2, 0x
  16:	0000                	.insn	2, 0x
  18:	003c                	.insn	2, 0x003c
  1a:	0001                	.insn	2, 0x0001
  1c:	0078                	.insn	2, 0x0078
  1e:	0000                	.insn	2, 0x
  20:	0e44                	.insn	2, 0x0e44
  22:	4830                	.insn	2, 0x4830
  24:	0181                	.insn	2, 0x0181
  26:	0288                	.insn	2, 0x0288
  28:	0c44                	.insn	2, 0x0c44
  2a:	0008                	.insn	2, 0x0008
  2c:	5c02                	.insn	2, 0x5c02
  2e:	44c1                	.insn	2, 0x44c1
  30:	0cc8                	.insn	2, 0x0cc8
  32:	3002                	.insn	2, 0x3002
  34:	0e44                	.insn	2, 0x0e44
  36:	0000                	.insn	2, 0x
  38:	0024                	.insn	2, 0x0024
  3a:	0000                	.insn	2, 0x
  3c:	0000                	.insn	2, 0x
  3e:	0000                	.insn	2, 0x
  40:	00b4                	.insn	2, 0x00b4
  42:	0001                	.insn	2, 0x0001
  44:	00c4                	.insn	2, 0x00c4
  46:	0000                	.insn	2, 0x
  48:	0e44                	.insn	2, 0x0e44
  4a:	4830                	.insn	2, 0x4830
  4c:	0181                	.insn	2, 0x0181
  4e:	0288                	.insn	2, 0x0288
  50:	0c44                	.insn	2, 0x0c44
  52:	0008                	.insn	2, 0x0008
  54:	a802                	.insn	2, 0xa802
  56:	44c1                	.insn	2, 0x44c1
  58:	0cc8                	.insn	2, 0x0cc8
  5a:	3002                	.insn	2, 0x3002
  5c:	0e44                	.insn	2, 0x0e44
  5e:	0000                	.insn	2, 0x
  60:	0024                	.insn	2, 0x0024
  62:	0000                	.insn	2, 0x
  64:	0000                	.insn	2, 0x
  66:	0000                	.insn	2, 0x
  68:	0178                	.insn	2, 0x0178
  6a:	0001                	.insn	2, 0x0001
  6c:	00a8                	.insn	2, 0x00a8
  6e:	0000                	.insn	2, 0x
  70:	0e44                	.insn	2, 0x0e44
  72:	4830                	.insn	2, 0x4830
  74:	0181                	.insn	2, 0x0181
  76:	0288                	.insn	2, 0x0288
  78:	0c44                	.insn	2, 0x0c44
  7a:	0008                	.insn	2, 0x0008
  7c:	8c02                	.insn	2, 0x8c02
  7e:	44c1                	.insn	2, 0x44c1
  80:	0cc8                	.insn	2, 0x0cc8
  82:	3002                	.insn	2, 0x3002
  84:	0e44                	.insn	2, 0x0e44
  86:	0000                	.insn	2, 0x
  88:	0024                	.insn	2, 0x0024
  8a:	0000                	.insn	2, 0x
  8c:	0000                	.insn	2, 0x
  8e:	0000                	.insn	2, 0x
  90:	0220                	.insn	2, 0x0220
  92:	0001                	.insn	2, 0x0001
  94:	0074                	.insn	2, 0x0074
  96:	0000                	.insn	2, 0x
  98:	0e44                	.insn	2, 0x0e44
  9a:	4830                	.insn	2, 0x4830
  9c:	0181                	.insn	2, 0x0181
  9e:	0288                	.insn	2, 0x0288
  a0:	0c44                	.insn	2, 0x0c44
  a2:	0008                	.insn	2, 0x0008
  a4:	5802                	.insn	2, 0x5802
  a6:	44c1                	.insn	2, 0x44c1
  a8:	0cc8                	.insn	2, 0x0cc8
  aa:	3002                	.insn	2, 0x3002
  ac:	0e44                	.insn	2, 0x0e44
  ae:	0000                	.insn	2, 0x
  b0:	0024                	.insn	2, 0x0024
  b2:	0000                	.insn	2, 0x
  b4:	0000                	.insn	2, 0x
  b6:	0000                	.insn	2, 0x
  b8:	0294                	.insn	2, 0x0294
  ba:	0001                	.insn	2, 0x0001
  bc:	003c                	.insn	2, 0x003c
  be:	0000                	.insn	2, 0x
  c0:	0e44                	.insn	2, 0x0e44
  c2:	4820                	.insn	2, 0x4820
  c4:	0181                	.insn	2, 0x0181
  c6:	0288                	.insn	2, 0x0288
  c8:	0c44                	.insn	2, 0x0c44
  ca:	0008                	.insn	2, 0x0008
  cc:	c160                	.insn	2, 0xc160
  ce:	c844                	.insn	2, 0xc844
  d0:	020c                	.insn	2, 0x020c
  d2:	4420                	.insn	2, 0x4420
  d4:	000e                	.insn	2, 0x000e
  d6:	0000                	.insn	2, 0x
  d8:	0024                	.insn	2, 0x0024
  da:	0000                	.insn	2, 0x
  dc:	0000                	.insn	2, 0x
  de:	0000                	.insn	2, 0x
  e0:	02d0                	.insn	2, 0x02d0
  e2:	0001                	.insn	2, 0x0001
  e4:	00e0                	.insn	2, 0x00e0
  e6:	0000                	.insn	2, 0x
  e8:	0e44                	.insn	2, 0x0e44
  ea:	4840                	.insn	2, 0x4840
  ec:	0181                	.insn	2, 0x0181
  ee:	0288                	.insn	2, 0x0288
  f0:	0c44                	.insn	2, 0x0c44
  f2:	0008                	.insn	2, 0x0008
  f4:	c402                	.insn	2, 0xc402
  f6:	44c1                	.insn	2, 0x44c1
  f8:	0cc8                	.insn	2, 0x0cc8
  fa:	4002                	.insn	2, 0x4002
  fc:	0e44                	.insn	2, 0x0e44
  fe:	0000                	.insn	2, 0x
 100:	0024                	.insn	2, 0x0024
 102:	0000                	.insn	2, 0x
 104:	0000                	.insn	2, 0x
 106:	0000                	.insn	2, 0x
 108:	03b0                	.insn	2, 0x03b0
 10a:	0001                	.insn	2, 0x0001
 10c:	0048                	.insn	2, 0x0048
 10e:	0000                	.insn	2, 0x
 110:	0e44                	.insn	2, 0x0e44
 112:	4820                	.insn	2, 0x4820
 114:	0181                	.insn	2, 0x0181
 116:	0288                	.insn	2, 0x0288
 118:	0c44                	.insn	2, 0x0c44
 11a:	0008                	.insn	2, 0x0008
 11c:	c16c                	.insn	2, 0xc16c
 11e:	c844                	.insn	2, 0xc844
 120:	020c                	.insn	2, 0x020c
 122:	4420                	.insn	2, 0x4420
 124:	000e                	.insn	2, 0x000e
 126:	0000                	.insn	2, 0x
 128:	0024                	.insn	2, 0x0024
 12a:	0000                	.insn	2, 0x
 12c:	0000                	.insn	2, 0x
 12e:	0000                	.insn	2, 0x
 130:	03f8                	.insn	2, 0x03f8
 132:	0001                	.insn	2, 0x0001
 134:	0054                	.insn	2, 0x0054
 136:	0000                	.insn	2, 0x
 138:	0e44                	.insn	2, 0x0e44
 13a:	4830                	.insn	2, 0x4830
 13c:	0181                	.insn	2, 0x0181
 13e:	0288                	.insn	2, 0x0288
 140:	0c44                	.insn	2, 0x0c44
 142:	0008                	.insn	2, 0x0008
 144:	c178                	.insn	2, 0xc178
 146:	c844                	.insn	2, 0xc844
 148:	020c                	.insn	2, 0x020c
 14a:	4430                	.insn	2, 0x4430
 14c:	000e                	.insn	2, 0x000e
 14e:	0000                	.insn	2, 0x
 150:	0024                	.insn	2, 0x0024
 152:	0000                	.insn	2, 0x
 154:	0000                	.insn	2, 0x
 156:	0000                	.insn	2, 0x
 158:	044c                	.insn	2, 0x044c
 15a:	0001                	.insn	2, 0x0001
 15c:	0074                	.insn	2, 0x0074
 15e:	0000                	.insn	2, 0x
 160:	0e44                	.insn	2, 0x0e44
 162:	4830                	.insn	2, 0x4830
 164:	0181                	.insn	2, 0x0181
 166:	0288                	.insn	2, 0x0288
 168:	0c44                	.insn	2, 0x0c44
 16a:	0008                	.insn	2, 0x0008
 16c:	5802                	.insn	2, 0x5802
 16e:	44c1                	.insn	2, 0x44c1
 170:	0cc8                	.insn	2, 0x0cc8
 172:	3002                	.insn	2, 0x3002
 174:	0e44                	.insn	2, 0x0e44
 176:	0000                	.insn	2, 0x
 178:	0024                	.insn	2, 0x0024
 17a:	0000                	.insn	2, 0x
 17c:	0000                	.insn	2, 0x
 17e:	0000                	.insn	2, 0x
 180:	04c0                	.insn	2, 0x04c0
 182:	0001                	.insn	2, 0x0001
 184:	006c                	.insn	2, 0x006c
 186:	0000                	.insn	2, 0x
 188:	0e44                	.insn	2, 0x0e44
 18a:	4840                	.insn	2, 0x4840
 18c:	0981                	.insn	2, 0x0981
 18e:	0a88                	.insn	2, 0x0a88
 190:	0c44                	.insn	2, 0x0c44
 192:	2008                	.insn	2, 0x2008
 194:	5002                	.insn	2, 0x5002
 196:	44c1                	.insn	2, 0x44c1
 198:	0cc8                	.insn	2, 0x0cc8
 19a:	4002                	.insn	2, 0x4002
 19c:	0e44                	.insn	2, 0x0e44
 19e:	0000                	.insn	2, 0x
 1a0:	0028                	.insn	2, 0x0028
 1a2:	0000                	.insn	2, 0x
 1a4:	0000                	.insn	2, 0x
 1a6:	0000                	.insn	2, 0x
 1a8:	052c                	.insn	2, 0x052c
 1aa:	0001                	.insn	2, 0x0001
 1ac:	0248                	.insn	2, 0x0248
 1ae:	0000                	.insn	2, 0x
 1b0:	0e44                	.insn	2, 0x0e44
 1b2:	01a0                	.insn	2, 0x01a0
 1b4:	8148                	.insn	2, 0x8148
 1b6:	8801                	.insn	2, 0x8801
 1b8:	4402                	.insn	2, 0x4402
 1ba:	080c                	.insn	2, 0x080c
 1bc:	0300                	.insn	2, 0x0300
 1be:	022c                	.insn	2, 0x022c
 1c0:	44c1                	.insn	2, 0x44c1
 1c2:	0cc8                	.insn	2, 0x0cc8
 1c4:	a002                	.insn	2, 0xa002
 1c6:	4401                	.insn	2, 0x4401
 1c8:	000e                	.insn	2, 0x000e
 1ca:	0000                	.insn	2, 0x
 1cc:	0024                	.insn	2, 0x0024
 1ce:	0000                	.insn	2, 0x
 1d0:	0000                	.insn	2, 0x
 1d2:	0000                	.insn	2, 0x
 1d4:	0774                	.insn	2, 0x0774
 1d6:	0001                	.insn	2, 0x0001
 1d8:	005c                	.insn	2, 0x005c
 1da:	0000                	.insn	2, 0x
 1dc:	0e44                	.insn	2, 0x0e44
 1de:	4830                	.insn	2, 0x4830
 1e0:	0181                	.insn	2, 0x0181
 1e2:	0288                	.insn	2, 0x0288
 1e4:	0c44                	.insn	2, 0x0c44
 1e6:	0008                	.insn	2, 0x0008
 1e8:	4002                	.insn	2, 0x4002
 1ea:	44c1                	.insn	2, 0x44c1
 1ec:	0cc8                	.insn	2, 0x0cc8
 1ee:	3002                	.insn	2, 0x3002
 1f0:	0e44                	.insn	2, 0x0e44
 1f2:	0000                	.insn	2, 0x
 1f4:	0024                	.insn	2, 0x0024
 1f6:	0000                	.insn	2, 0x
 1f8:	0000                	.insn	2, 0x
 1fa:	0000                	.insn	2, 0x
 1fc:	07d0                	.insn	2, 0x07d0
 1fe:	0001                	.insn	2, 0x0001
 200:	00f8                	.insn	2, 0x00f8
 202:	0000                	.insn	2, 0x
 204:	0e44                	.insn	2, 0x0e44
 206:	4830                	.insn	2, 0x4830
 208:	0181                	.insn	2, 0x0181
 20a:	0288                	.insn	2, 0x0288
 20c:	0c44                	.insn	2, 0x0c44
 20e:	0008                	.insn	2, 0x0008
 210:	dc02                	.insn	2, 0xdc02
 212:	44c1                	.insn	2, 0x44c1
 214:	0cc8                	.insn	2, 0x0cc8
 216:	3002                	.insn	2, 0x3002
 218:	0e44                	.insn	2, 0x0e44
 21a:	0000                	.insn	2, 0x
 21c:	0034                	.insn	2, 0x0034
 21e:	0000                	.insn	2, 0x
 220:	0000                	.insn	2, 0x
 222:	0000                	.insn	2, 0x
 224:	08c8                	.insn	2, 0x08c8
 226:	0001                	.insn	2, 0x0001
 228:	01e0                	.insn	2, 0x01e0
 22a:	0000                	.insn	2, 0x
 22c:	0e44                	.insn	2, 0x0e44
 22e:	5850                	.insn	2, 0x5850
 230:	0181                	.insn	2, 0x0181
 232:	0288                	.insn	2, 0x0288
 234:	0392                	.insn	2, 0x0392
 236:	05940493          	addi	s1,s0,89
 23a:	0695                	.insn	2, 0x0695
 23c:	0c44                	.insn	2, 0x0c44
 23e:	0008                	.insn	2, 0x0008
 240:	c101a403          	lw	s0,-1008(gp)
 244:	c844                	.insn	2, 0xc844
 246:	020c                	.insn	2, 0x020c
 248:	4450                	.insn	2, 0x4450
 24a:	44d2                	.insn	2, 0x44d2
 24c:	44d444d3          	.insn	4, 0x44d444d3
 250:	44d5                	.insn	2, 0x44d5
 252:	000e                	.insn	2, 0x000e
 254:	0024                	.insn	2, 0x0024
 256:	0000                	.insn	2, 0x
 258:	0000                	.insn	2, 0x
 25a:	0000                	.insn	2, 0x
 25c:	0aa8                	.insn	2, 0x0aa8
 25e:	0001                	.insn	2, 0x0001
 260:	0174                	.insn	2, 0x0174
 262:	0000                	.insn	2, 0x
 264:	0e44                	.insn	2, 0x0e44
 266:	4830                	.insn	2, 0x4830
 268:	0181                	.insn	2, 0x0181
 26a:	0288                	.insn	2, 0x0288
 26c:	0c44                	.insn	2, 0x0c44
 26e:	0008                	.insn	2, 0x0008
 270:	c1015803          	lhu	a6,-1008(sp)
 274:	c844                	.insn	2, 0xc844
 276:	020c                	.insn	2, 0x020c
 278:	4430                	.insn	2, 0x4430
 27a:	000e                	.insn	2, 0x000e
 27c:	000c                	.insn	2, 0x000c
 27e:	0000                	.insn	2, 0x
 280:	ffff                	.insn	2, 0xffff
 282:	ffff                	.insn	2, 0xffff
 284:	7c010003          	lb	zero,1984(sp)
 288:	0c01                	.insn	2, 0x0c01
 28a:	0002                	.insn	2, 0x0002
 28c:	0024                	.insn	2, 0x0024
 28e:	0000                	.insn	2, 0x
 290:	027c                	.insn	2, 0x027c
 292:	0000                	.insn	2, 0x
 294:	0c44                	.insn	2, 0x0c44
 296:	0001                	.insn	2, 0x0001
 298:	0064                	.insn	2, 0x0064
 29a:	0000                	.insn	2, 0x
 29c:	0e44                	.insn	2, 0x0e44
 29e:	4830                	.insn	2, 0x4830
 2a0:	0181                	.insn	2, 0x0181
 2a2:	0288                	.insn	2, 0x0288
 2a4:	0c44                	.insn	2, 0x0c44
 2a6:	0008                	.insn	2, 0x0008
 2a8:	4802                	.insn	2, 0x4802
 2aa:	44c1                	.insn	2, 0x44c1
 2ac:	0cc8                	.insn	2, 0x0cc8
 2ae:	3002                	.insn	2, 0x3002
 2b0:	0e44                	.insn	2, 0x0e44
 2b2:	0000                	.insn	2, 0x
 2b4:	0024                	.insn	2, 0x0024
 2b6:	0000                	.insn	2, 0x
 2b8:	027c                	.insn	2, 0x027c
 2ba:	0000                	.insn	2, 0x
 2bc:	0ca8                	.insn	2, 0x0ca8
 2be:	0001                	.insn	2, 0x0001
 2c0:	00c0                	.insn	2, 0x00c0
 2c2:	0000                	.insn	2, 0x
 2c4:	0e44                	.insn	2, 0x0e44
 2c6:	4840                	.insn	2, 0x4840
 2c8:	0181                	.insn	2, 0x0181
 2ca:	0288                	.insn	2, 0x0288
 2cc:	0c44                	.insn	2, 0x0c44
 2ce:	0008                	.insn	2, 0x0008
 2d0:	a402                	.insn	2, 0xa402
 2d2:	44c1                	.insn	2, 0x44c1
 2d4:	0cc8                	.insn	2, 0x0cc8
 2d6:	4002                	.insn	2, 0x4002
 2d8:	0e44                	.insn	2, 0x0e44
 2da:	0000                	.insn	2, 0x
 2dc:	0024                	.insn	2, 0x0024
 2de:	0000                	.insn	2, 0x
 2e0:	027c                	.insn	2, 0x027c
 2e2:	0000                	.insn	2, 0x
 2e4:	0d68                	.insn	2, 0x0d68
 2e6:	0001                	.insn	2, 0x0001
 2e8:	0094                	.insn	2, 0x0094
 2ea:	0000                	.insn	2, 0x
 2ec:	0e44                	.insn	2, 0x0e44
 2ee:	4840                	.insn	2, 0x4840
 2f0:	0181                	.insn	2, 0x0181
 2f2:	0288                	.insn	2, 0x0288
 2f4:	0c44                	.insn	2, 0x0c44
 2f6:	0008                	.insn	2, 0x0008
 2f8:	7802                	.insn	2, 0x7802
 2fa:	44c1                	.insn	2, 0x44c1
 2fc:	0cc8                	.insn	2, 0x0cc8
 2fe:	4002                	.insn	2, 0x4002
 300:	0e44                	.insn	2, 0x0e44
 302:	0000                	.insn	2, 0x
 304:	0024                	.insn	2, 0x0024
 306:	0000                	.insn	2, 0x
 308:	027c                	.insn	2, 0x027c
 30a:	0000                	.insn	2, 0x
 30c:	0dfc                	.insn	2, 0x0dfc
 30e:	0001                	.insn	2, 0x0001
 310:	0148                	.insn	2, 0x0148
 312:	0000                	.insn	2, 0x
 314:	0e44                	.insn	2, 0x0e44
 316:	4840                	.insn	2, 0x4840
 318:	0181                	.insn	2, 0x0181
 31a:	0288                	.insn	2, 0x0288
 31c:	0c44                	.insn	2, 0x0c44
 31e:	0008                	.insn	2, 0x0008
 320:	c1012c03          	lw	s8,-1008(sp)
 324:	c844                	.insn	2, 0xc844
 326:	020c                	.insn	2, 0x020c
 328:	4440                	.insn	2, 0x4440
 32a:	000e                	.insn	2, 0x000e
 32c:	0024                	.insn	2, 0x0024
 32e:	0000                	.insn	2, 0x
 330:	027c                	.insn	2, 0x027c
 332:	0000                	.insn	2, 0x
 334:	0f44                	.insn	2, 0x0f44
 336:	0001                	.insn	2, 0x0001
 338:	0098                	.insn	2, 0x0098
 33a:	0000                	.insn	2, 0x
 33c:	0e44                	.insn	2, 0x0e44
 33e:	4840                	.insn	2, 0x4840
 340:	0181                	.insn	2, 0x0181
 342:	0288                	.insn	2, 0x0288
 344:	0c44                	.insn	2, 0x0c44
 346:	0008                	.insn	2, 0x0008
 348:	7c02                	.insn	2, 0x7c02
 34a:	44c1                	.insn	2, 0x44c1
 34c:	0cc8                	.insn	2, 0x0cc8
 34e:	4002                	.insn	2, 0x4002
 350:	0e44                	.insn	2, 0x0e44
 352:	0000                	.insn	2, 0x
 354:	0024                	.insn	2, 0x0024
 356:	0000                	.insn	2, 0x
 358:	027c                	.insn	2, 0x027c
 35a:	0000                	.insn	2, 0x
 35c:	0fdc                	.insn	2, 0x0fdc
 35e:	0001                	.insn	2, 0x0001
 360:	0090                	.insn	2, 0x0090
 362:	0000                	.insn	2, 0x
 364:	0e44                	.insn	2, 0x0e44
 366:	4820                	.insn	2, 0x4820
 368:	0181                	.insn	2, 0x0181
 36a:	0288                	.insn	2, 0x0288
 36c:	0c44                	.insn	2, 0x0c44
 36e:	0008                	.insn	2, 0x0008
 370:	7402                	.insn	2, 0x7402
 372:	44c1                	.insn	2, 0x44c1
 374:	0cc8                	.insn	2, 0x0cc8
 376:	2002                	.insn	2, 0x2002
 378:	0e44                	.insn	2, 0x0e44
 37a:	0000                	.insn	2, 0x
 37c:	0024                	.insn	2, 0x0024
 37e:	0000                	.insn	2, 0x
 380:	027c                	.insn	2, 0x027c
 382:	0000                	.insn	2, 0x
 384:	106c                	.insn	2, 0x106c
 386:	0001                	.insn	2, 0x0001
 388:	0128                	.insn	2, 0x0128
 38a:	0000                	.insn	2, 0x
 38c:	0e44                	.insn	2, 0x0e44
 38e:	4810                	.insn	2, 0x4810
 390:	0181                	.insn	2, 0x0181
 392:	0288                	.insn	2, 0x0288
 394:	0c44                	.insn	2, 0x0c44
 396:	0008                	.insn	2, 0x0008
 398:	c1010c03          	lb	s8,-1008(sp)
 39c:	c844                	.insn	2, 0xc844
 39e:	020c                	.insn	2, 0x020c
 3a0:	4410                	.insn	2, 0x4410
 3a2:	000e                	.insn	2, 0x000e
