
test.elf:     file format elf32-littleriscv

Contents of section .text:
 10000 17210000 13010135 97120000 9382e233  .!.....5.......3
 10010 17130000 13036333 63d86200 23a00200  ......c3c.b.#...
 10020 93824200 6ff05fff ef004050 9308d005  ..B.o._...@P....
 10030 13050000 73000000 6f000000 130101fd  ....s...o.......
 10040 23261102 23248102 13040103 232ea4fc  #&..#$......#...
 10050 232cb4fc 232ac4fc 8327c4fd 2326f4fe  #,..#*...'..#&..
 10060 832784fd 2324f4fe 6f004002 032784fe  .'..#$..o.@..'..
 10070 93071700 2324f4fe 8327c4fe 93861700  ....#$...'......
 10080 2326d4fe 03470700 2380e700 832744fd  #&...G..#....'D.
 10090 1387f7ff 232ae4fc e39a07fc 8327c4fd  ....#*.......'..
 100a0 13850700 8320c102 03248102 13010103  ..... ...$......
 100b0 67800000 130101fd 23261102 23248102  g.......#&..#$..
 100c0 13040103 232ea4fc 232cb4fc 832784fd  ....#...#,...'..
 100d0 63960700 93070000 6f00c008 232604fe  c.......o...#&..
 100e0 232404fe 9307f001 2322f4fe 6f00c006  #$......#"..o...
 100f0 832784fe 93971700 2324f4fe 832744fe  .'......#$...'D.
 10100 0327c4fd b357f700 93f71700 032784fe  .'...W.......'..
 10110 b367f700 2324f4fe 032784fe 832784fd  .g..#$...'...'..
 10120 6366f702 032784fe 832784fd b307f740  cf...'...'.....@
 10130 2324f4fe 832744fe 13071000 b317f700  #$...'D.........
 10140 0327c4fe b367f700 2326f4fe 832744fe  .'...g..#&...'D.
 10150 9387f7ff 2322f4fe 832744fe e3da07f8  ....#"...'D.....
 10160 8327c4fe 13850700 8320c102 03248102  .'....... ...$..
 10170 13010103 67800000 130101fd 23261102  ....g.......#&..
 10180 23248102 13040103 232ea4fc 232cb4fc  #$......#...#,..
 10190 832784fd 63960700 93070000 6f000007  .'..c.......o...
 101a0 232604fe 9307f001 2324f4fe 6f004005  #&......#$..o.@.
 101b0 8327c4fe 93971700 2326f4fe 832784fe  .'......#&...'..
 101c0 0327c4fd b357f700 93f71700 0327c4fe  .'...W.......'..
 101d0 b367f700 2326f4fe 0327c4fe 832784fd  .g..#&...'...'..
 101e0 636af700 0327c4fe 832784fd b307f740  cj...'...'.....@
 101f0 2326f4fe 832784fe 9387f7ff 2324f4fe  #&...'......#$..
 10200 832784fe e3d607fa 8327c4fe 13850700  .'.......'......
 10210 8320c102 03248102 13010103 67800000  . ...$......g...
 10220 130101fd 23261102 23248102 13040103  ....#&..#$......
 10230 232ea4fc 232cb4fc 232604fe 6f008003  #...#,..#&..o...
 10240 832784fd 93f71700 638a0700 0327c4fe  .'......c....'..
 10250 8327c4fd b307f700 2326f4fe 8327c4fd  .'......#&...'..
 10260 93971700 232ef4fc 832784fd 93d71700  ....#....'......
 10270 232cf4fc 832784fd e39407fc 8327c4fe  #,...'.......'..
 10280 13850700 8320c102 03248102 13010103  ..... ...$......
 10290 67800000 130101fe 232e1100 232c8100  g.......#...#,..
 102a0 13040102 2326a4fe 2324b4fe 832584fe  ....#&..#$...%..
 102b0 0325c4fe eff0dff6 93070500 13850700  .%..............
 102c0 8320c101 03248101 13010102 67800000  . ...$......g...
 102d0 130101fc 232e1102 232c8102 13040104  ....#...#,......
 102e0 2326a4fc 930784fd 93873701 2326f4fe  #&........7.#&..
 102f0 8327c4fe 9387f7ff 2326f4fe 8327c4fc  .'......#&...'..
 10300 63900706 8327c4fe 13070003 2380e700  c....'......#...
 10310 8327c4fe 9387f7ff 2326f4fe 6f00c004  .'......#&..o...
 10320 9305a000 0325c4fc eff01fe5 93070500  .....%..........
 10330 93f7f70f 93870703 13f7f70f 8327c4fe  .............'..
 10340 2380e700 8327c4fe 9387f7ff 2326f4fe  #....'......#&..
 10350 9305a000 0325c4fc eff0dfd5 2326a4fc  .....%......#&..
 10360 8327c4fc e39e07fa 8327c4fe 93871700  .'.......'......
 10370 2326f4fe 930784fd 93873701 0327c4fe  #&........7..'..
 10380 3387e740 8327c4fe 93080004 13051000  3..@.'..........
 10390 b305f000 13060700 73000000 13000000  ........s.......
 103a0 8320c103 03248103 13010104 67800000  . ...$......g...
 103b0 130101fe 232e1100 232c8100 13040102  ....#...#,......
 103c0 93070500 a307f4fe 9307f4fe 13071000  ................
 103d0 93080004 13051000 b305f000 13060700  ................
 103e0 73000000 13000000 8320c101 03248101  s........ ...$..
 103f0 13010102 67800000 130101fd 23261102  ....g.......#&..
 10400 23248102 13040103 232ea4fc 232604fe  #$......#...#&..
 10410 6f000001 8327c4fe 93871700 2326f4fe  o....'......#&..
 10420 8327c4fd 13871700 232ee4fc 83c70700  .'......#.......
 10430 e39207fe 8327c4fe 13850700 8320c102  .....'....... ..
 10440 03248102 13010103 67800000 130101fd  .$......g.......
 10450 23261102 23248102 13040103 232ea4fc  #&..#$......#...
 10460 0325c4fd eff05ff9 13070500 8327c4fd  .%...._......'..
 10470 93080004 13051000 b305f000 13060700  ................
 10480 73000000 9307a000 2316f4fe 9307c4fe  s.......#.......
 10490 13071000 93080004 13051000 b305f000  ................
 104a0 13060700 73000000 93070000 13850700  ....s...........
 104b0 8320c102 03248102 13010103 67800000  . ...$......g...
 104c0 130101fc 232e1100 232c8100 13040102  ....#...#,......
 104d0 2326a4fe 2322b400 2324c400 2326d400  #&..#"..#$..#&..
 104e0 2328e400 232af400 232c0401 232e1401  #(..#*..#,..#...
 104f0 0325c4fe eff05ff0 13070500 8327c4fe  .%...._......'..
 10500 93080004 13051000 b305f000 13060700  ................
 10510 73000000 93070000 13850700 8320c101  s............ ..
 10520 03248101 13010104 67800000 130101f6  .$......g.......
 10530 232e1108 232c8108 1304010a b7170100  #...#,..........
 10540 93874719 03a80700 03a54700 83a58700  ..G.......G.....
 10550 03a6c700 83a60701 03a74701 232a04fb  ..........G.#*..
 10560 232ca4fa 232eb4fa 2320c4fc 2322d4fc  #,..#...# ..#"..
 10570 2324e4fc 83d78701 2316f4fc 930744fb  #$......#.....D.
 10580 13079001 93080004 13051000 b305f000  ................
 10590 13060700 73000000 ef004068 13070500  ....s.....@h....
 105a0 93870500 2324e4fe 2326f4fe ef004068  ....#$..#&....@h
 105b0 13070500 93870500 232ce4fc 232ef4fc  ........#,..#...
 105c0 ef00d02a ef008065 13070500 93870500  ...*...e........
 105d0 2320e4fe 2322f4fe ef008065 13070500  # ..#".....e....
 105e0 93870500 2328e4fc 232af4fc b7170100  ....#(..#*......
 105f0 9387071b 03a80700 03a54700 83a58700  ..........G.....
 10600 03a6c700 83a60701 03a74701 232c04f9  ..........G.#,..
 10610 232ea4f8 2320b4fa 2322c4fa 2324d4fa  #...# ..#"..#$..
 10620 2326e4fa 03d78701 2318e4fa 83c7a701  #&......#.......
 10630 2309f4fa 930784f9 1307a001 93080004  #...............
 10640 13051000 b305f000 13060700 73000000  ............s...
 10650 b7170100 9387c71c 03a60700 83a64700  ..............G.
 10660 03a78700 2324c4f8 2326d4f8 2328e4f8  ....#$..#&..#(..
 10670 03d7c700 231ae4f8 83c7e700 230bf4f8  ....#.......#...
 10680 930784f8 1307e000 93080004 13051000  ................
 10690 b305f000 13060700 73000000 032704fe  ........s....'..
 106a0 832744fe 93060700 032784fe 8327c4fe  .'D......'...'..
 106b0 93070700 b387f640 13850700 eff05fc1  .......@......_.
 106c0 b7170100 9387c71d 03a50700 83a54700  ..............G.
 106d0 03a68700 83a6c700 03a70701 2328a4f6  ............#(..
 106e0 232ab4f6 232cc4f6 232ed4f6 2320e4f8  #*..#,..#...# ..
 106f0 83d74701 2312f4f8 930704f7 13075001  ..G.#.........P.
 10700 93080004 13051000 b305f000 13060700  ................
 10710 73000000 032704fd 832744fd 93060700  s....'...'D.....
 10720 032784fd 8327c4fd 93070700 b387f640  .'...'.........@
 10730 13850700 eff0dfb9 9307a000 2316f4f6  ............#...
 10740 9307c4f6 13071000 93080004 13051000  ................
 10750 b305f000 13060700 73000000 93070000  ........s.......
 10760 13850700 8320c109 03248109 1301010a  ..... ...$......
 10770 67800000 130101fd 23261102 23248102  g.......#&..#$..
 10780 13040103 232ea4fc 232604fe 6f004002  ....#...#&..o.@.
 10790 8327c4fd 9387f7ff 0327c4fd b377f700  .'.......'...w..
 107a0 232ef4fc 8327c4fe 93871700 2326f4fe  #....'......#&..
 107b0 8327c4fd e39e07fc 8327c4fe 13850700  .'.......'......
 107c0 8320c102 03248102 13010103 67800000  . ...$......g...
 107d0 130101fd 23261102 23248102 13040103  ....#&..#$......
 107e0 232ca4fc 232eb4fc 2328c4fc 232ad4fc  #,..#...#(..#*..
 107f0 13060000 93060000 2324c4fe 2326d4fe  ........#$..#&..
 10800 6f008009 832604fd 13f31600 832644fd  o....&.......&D.
 10810 93f30600 93060300 b3e67600 638a0602  ..........v.c...
 10820 032584fe 8325c4fe 032e84fd 832ec4fd  .%...%..........
 10830 3306c501 130f0600 333faf00 b386d501  3.......3?......
 10840 b305df00 93860500 2324c4fe 2326d4fe  ........#$..#&..
 10850 832684fd 93d6f601 0326c4fd 93171600  .&.......&......
 10860 b3e7f600 832684fd 13971600 232ce4fc  .....&......#,..
 10870 232ef4fc 832644fd 9396f601 032604fd  #....&D......&..
 10880 13581600 33e80601 832644fd 93d81600  .X..3....&D.....
 10890 232804fd 232a14fd 832604fd 032644fd  #(..#*...&...&D.
 108a0 b3e6c600 e39006f6 032784fe 8327c4fe  .........'...'..
 108b0 13050700 93850700 8320c102 03248102  ......... ...$..
 108c0 13010103 67800000 130101fb 23261104  ....g.......#&..
 108d0 23248104 23222105 23203105 232e4103  #$..#"!.# 1.#.A.
 108e0 232c5103 13040105 232ca4fa 232eb4fa  #,Q.....#,..#...
 108f0 2328c4fa 232ad4fa 832604fb 032644fb  #(..#*...&...&D.
 10900 b3e6c600 63980600 13070000 93070000  ....c...........
 10910 6f000017 13060000 93060000 232cc4fc  o...........#,..
 10920 232ed4fc 2328c4fc 232ad4fc 9306f003  #...#(..#*......
 10930 2326d4fc 6f00c013 832604fd 93d6f601  #&..o....&......
 10940 032644fd 93181600 b3e81601 832604fd  .&D..........&..
 10950 13981600 232804fd 232a14fd 8326c4fc  ....#(..#*...&..
 10960 938606fe 63ca0600 0326c4fb 3357d600  ....c....&..3W..
 10970 93070000 6f008003 8326c4fb 13961600  ....o....&......
 10980 9305f001 8326c4fc b386d540 b316d600  .....&.....@....
 10990 0326c4fc 832584fb 33d7c500 33e7e600  .&...%..3...3...
 109a0 8326c4fc 0326c4fb b357d600 137e1700  .&...&...W...~..
 109b0 93fe0700 832604fd 33efc601 832644fd  .....&..3....&D.
 109c0 b3efd601 2328e4fd 232af4fd 032644fb  ....#(..#*...&D.
 109d0 832644fd 63e8c608 032644fb 832644fd  .&D.c....&D..&D.
 109e0 6318d600 032604fb 832604fd 63ecc606  c....&...&..c...
 109f0 032504fd 832544fd 032a04fb 832a44fb  .%...%D..*...*D.
 10a00 33064541 93020600 b3325500 b3865541  3.EA.....2U...UA
 10a10 b3855640 93860500 2328c4fc 232ad4fc  ..V@....#(..#*..
 10a20 8326c4fc 938606fe 63ca0600 13061000  .&......c.......
 10a30 b313d600 13030000 6f004001 93030000  ........o.@.....
 10a40 8326c4fc 13061000 3313d600 832684fd  .&......3....&..
 10a50 33e96600 8326c4fd b3e97600 232c24fd  3.f..&....v.#,$.
 10a60 232e34fd 8326c4fc 9386f6ff 2326d4fc  #.4..&......#&..
 10a70 8326c4fc e3d206ec 032784fd 8327c4fd  .&.......'...'..
 10a80 13050700 93850700 8320c104 03248104  ......... ...$..
 10a90 03294104 83290104 032ac103 832a8103  .)A..)...*...*..
 10aa0 13010105 67800000 130101fd 23261102  ....g.......#&..
 10ab0 23248102 13040103 232ca4fc 232eb4fc  #$......#,..#...
 10ac0 2328c4fc 232ad4fc 832604fd 032644fd  #(..#*...&...&D.
 10ad0 b3e6c600 63980600 13070000 93070000  ....c...........
 10ae0 6f004012 13060000 93060000 2324c4fe  o.@.........#$..
 10af0 2326d4fe 9306f003 2322d4fe 6f00800f  #&......#"..o...
 10b00 832684fe 93d6f601 0326c4fe 93181600  .&.......&......
 10b10 b3e81601 832684fe 13981600 232404ff  .....&......#$..
 10b20 232614ff 832644fe 938606fe 63ca0600  #&...&D.....c...
 10b30 0326c4fd 3357d600 93070000 6f008003  .&..3W......o...
 10b40 8326c4fd 13961600 9305f001 832644fe  .&...........&D.
 10b50 b386d540 b316d600 032644fe 832584fd  ...@.....&D..%..
 10b60 33d7c500 33e7e600 832644fe 0326c4fd  3...3....&D..&..
 10b70 b357d600 13731700 93f30700 832684fe  .W...s.......&..
 10b80 33ee6600 8326c4fe b3ee7600 2324c4ff  3.f..&....v.#$..
 10b90 2326d4ff 032644fd 8326c4fe 63e6c604  #&...&D..&..c...
 10ba0 032644fd 8326c4fe 6318d600 032604fd  .&D..&..c....&..
 10bb0 832684fe 63eac602 032584fe 8325c4fe  .&..c....%...%..
 10bc0 032f04fd 832f44fd 3306e541 93020600  ./.../D.3..A....
 10bd0 b3325500 b386f541 b3855640 93860500  .2U....A..V@....
 10be0 2324c4fe 2326d4fe 832644fe 9386f6ff  #$..#&...&D.....
 10bf0 2322d4fe 832644fe e3d406f0 032784fe  #"...&D......'..
 10c00 8327c4fe 13050700 93850700 8320c102  .'........... ..
 10c10 03248102 13010103 67800000 f32500c8  .$......g....%..
 10c20 732500c0 732600c8 e39ac5fe 67800000  s%..s&......g...
 10c30 f32520c8 732520c0 732620c8 e39ac5fe  .% .s% .s& .....
 10c40 67800000 130101fd 23261102 23248102  g.......#&..#$..
 10c50 13040103 232ea4fc 8327c4fd 63960700  ....#....'..c...
 10c60 93070002 6f000003 232604fe 6f00c001  ....o...#&..o...
 10c70 8327c4fe 93871700 2326f4fe 8327c4fd  .'......#&...'..
 10c80 93971700 232ef4fc 8327c4fd e3d207fe  ....#....'......
 10c90 8327c4fe 13850700 8320c102 03248102  .'....... ...$..
 10ca0 13010103 67800000 130101fc 232e1102  ....g.......#...
 10cb0 232c8102 13040104 2326a4fc 2324b4fc  #,......#&..#$..
 10cc0 8327c4fc 93d70701 2326f4fe 8327c4fc  .'......#&...'..
 10cd0 93970701 93d70701 2324f4fe 832784fc  ........#$...'..
 10ce0 93d70701 2322f4fe 832784fc 93970701  ....#"...'......
 10cf0 93d70701 2320f4fe 0327c4fe 832744fe  ....# ...'...'D.
 10d00 b307f702 232ef4fc 0327c4fe 832704fe  ....#....'...'..
 10d10 3307f702 832684fe 832744fe b387f602  3....&...'D.....
 10d20 b307f700 232cf4fc 032784fe 832704fe  ....#,...'...'..
 10d30 b307f702 232af4fc 8327c4fd 13970701  ....#*...'......
 10d40 832784fd 3307f700 832744fd 93d70701  .'..3....'D.....
 10d50 b307f700 13850700 8320c103 03248103  ......... ...$..
 10d60 13010104 67800000 130101fc 232e1102  ....g.......#...
 10d70 232c8102 13040104 2326a4fc 2324b4fc  #,......#&..#$..
 10d80 8325c4fc 0325c4fc eff01ff2 2326a4fe  .%...%......#&..
 10d90 8325c4fe 032584fc eff01ff1 2324a4fe  .%...%......#$..
 10da0 832784fe 93d71700 2322f4fe b7870100  .'......#"......
 10db0 2320f4fe 032704fe 832744fe 63fae700  # ...'...'D.c...
 10dc0 032704fe 832744fe b307f740 6f008000  .'...'D....@o...
 10dd0 93070000 232ef4fc 8325c4fd 0325c4fc  ....#....%...%..
 10de0 eff09fec 93070500 13850700 8320c103  ............. ..
 10df0 03248103 13010104 67800000 130101fc  .$......g.......
 10e00 232e1102 232c8102 13040104 2326a4fc  #...#,......#&..
 10e10 8327c4fc 63960700 9307f0ff 6f004011  .'..c.......o.@.
 10e20 0325c4fc eff01fe2 13070500 9307f001  .%..............
 10e30 b387e740 2326f4fe b7170100 1387471f  ...@#&........G.
 10e40 8327c4fe 93972700 b307f700 83a70700  .'....'.........
 10e50 2324f4fe 0327c4fe 9307e001 63c2e702  #$...'......c...
 10e60 8327c4fe 93871700 37170100 1307471f  .'......7.....G.
 10e70 93972700 b307f700 83a70700 6f008000  ..'.........o...
 10e80 93070000 2322f4fe 032784fe 832744fe  ....#"...'...'D.
 10e90 b307f740 2320f4fe 8327c4fe 13071000  ...@# ...'......
 10ea0 b317f700 232ef4fc 0327c4fc 8327c4fd  ....#....'...'..
 10eb0 b307f740 232cf4fc 0327c4fe 93070001  ...@#,...'......
 10ec0 63cee700 13070001 8327c4fe b307f740  c........'.....@
 10ed0 032784fd b317f700 6f004001 8327c4fe  .'......o.@..'..
 10ee0 938707ff 032784fd b357f700 232af4fc  .....'...W..#*..
 10ef0 032704fe 832744fd b307f702 93d70701  .'...'D.........
 10f00 032784fe b307f740 2324f4fe 8325c4fc  .'.....@#$...%..
 10f10 032584fe eff05fe5 2324a4fe 8325c4fc  .%...._.#$...%..
 10f20 032584fe eff05fe4 2324a4fe 832784fe  .%...._.#$...'..
 10f30 13850700 8320c103 03248103 13010104  ..... ...$......
 10f40 67800000 130101fc 232e1102 232c8102  g.......#...#,..
 10f50 13040104 2326a4fc 2324b4fc 2322c4fc  ....#&..#$..#"..
 10f60 8327c4fc b387f702 2326f4fe 832784fc  .'......#&...'..
 10f70 b387f702 2324f4fe 832744fc b387f702  ....#$...'D.....
 10f80 2322f4fe 0327c4fe 832784fe b307f700  #"...'...'......
 10f90 032744fe b307f700 2320f4fe 832704fe  .'D.....# ...'..
 10fa0 63960700 93070000 6f000002 032504fe  c.......o....%..
 10fb0 eff0dfe4 232ea4fc 8325c4fd 032504fe  ....#....%...%..
 10fc0 eff09fce 93070500 13850700 8320c103  ............. ..
 10fd0 03248103 13010104 67800000 130101fe  .$......g.......
 10fe0 232e1100 232c8100 13040102 2326a4fe  #...#,......#&..
 10ff0 2324b4fe 2322c4fe b7170100 13854727  #$..#"........G'
 11000 eff00fcc b7170100 1385c727 eff04fcb  ...........'..O.
 11010 032544fe eff0cfab 832744fe 9387e7ff  .%D......'D.....
 11020 032784fe 6362f702 832744fe 93872700  .'..cb...'D...'.
 11030 032784fe 63eae700 b7170100 13858728  .'..c..........(
 11040 eff0cfc0 6f004001 b7170100 13850729  ....o.@........)
 11050 eff0cfbf 13000000 13000000 8320c101  ............. ..
 11060 03248101 13010102 67800000 130101ff  .$......g.......
 11070 23261100 23248100 13040101 b7170100  #&..#$..........
 11080 1385c729 eff08fbc 13051000 eff01fd7  ...)............
 11090 93070500 37060100 93850700 b7170100  ....7...........
 110a0 1385872b eff09ff3 13050001 eff01fd5  ...+............
 110b0 93070500 37460000 93850700 b7170100  ....7F..........
 110c0 1385472c eff09ff1 13050040 eff01fd3  ..G,.......@....
 110d0 13070500 b7170000 13860780 93050700  ................
 110e0 b7170100 1385072d eff05fef b7170100  .......-.._.....
 110f0 1385c72d eff08fb5 13060000 93054000  ...-..........@.
 11100 13053000 eff01fe4 93070500 13065000  ..0...........P.
 11110 93850700 b7170100 13850730 eff01fec  ...........0....
 11120 13060000 93050000 1305a000 eff09fe1  ................
 11130 93070500 1306a000 93850700 b7170100  ................
 11140 1385c730 eff09fe9 1306a000 9305a000  ...0............
 11150 1305a000 eff01fdf 93070500 13061001  ................
 11160 93850700 b7170100 1385c731 eff01fe7  ...........1....
 11170 b7170100 1385c732 eff04fad 93070000  .......2..O.....
 11180 13850700 8320c100 03248100 13010101  ..... ...$......
 11190 67800000                             g...            
Contents of section .rodata:
 11194 3d3d3d20 5b52756e 6e696e67 20717a33  === [Running qz3
 111a4 5f435d20 3d3d3d0a 0a000000 0a3d3d3d  _C] ===......===
 111b4 205b717a 335f4320 46696e69 73686564   [qz3_C Finished
 111c4 5d203d3d 3d0a0000 546f7461 6c204379  ] ===...Total Cy
 111d4 636c6573 3a200000 0a546f74 616c2049  cles: ...Total I
 111e4 6e737472 75637469 6f6e733a 20000000  nstructions: ...
 111f4 00000100 05b50000 00800000 825a0000  .............Z..
 11204 00400000 412d0000 00200000 a1160000  .@..A-... ......
 11214 00100000 500b0000 00080000 a8050000  ....P...........
 11224 00040000 d4020000 00020000 6a010000  ............j...
 11234 00010000 b5000000 80000000 5a000000  ............Z...
 11244 40000000 2d000000 20000000 17000000  @...-... .......
 11254 10000000 0b000000 08000000 06000000  ................
 11264 04000000 03000000 02000000 01000000  ................
 11274 20676f74 207e2000 20657870 6563743d   got ~ . expect=
 11284 00000000 2077726f 6e672000 20636f72  .... wrong . cor
 11294 72656374 20000000 2d2d2d20 54657374  rect ...--- Test
 112a4 20666173 745f7273 71727428 7829202d   fast_rsqrt(x) -
 112b4 2d2d0000 72737172 74283129 00000000  --..rsqrt(1)....
 112c4 72737172 74283136 29000000 72737172  rsqrt(16)...rsqr
 112d4 74283130 32342900 0a2d2d2d 20546573  t(1024)..--- Tes
 112e4 74206661 73745f64 69737461 6e63655f  t fast_distance_
 112f4 33642829 202d2d2d 00000000 64697374  3d() ---....dist
 11304 28332c34 2c302900 64697374 2831302c  (3,4,0).dist(10,
 11314 302c3029 00000000 64697374 2831302c  0,0)....dist(10,
 11324 31302c31 30290000 0a3d3d3d 20416c6c  10,10)...=== All
 11334 20746573 74732070 61737365 64203d3d   tests passed ==
 11344 3d00                                 =.              
Contents of section .riscv.attributes:
 0000 41360000 00726973 63760001 2c000000  A6...riscv..,...
 0010 04100572 76333269 3270315f 6d327030  ...rv32i2p1_m2p0
 0020 5f7a6963 73723270 305f7a6d 6d756c31  _zicsr2p0_zmmul1
 0030 70300008 010a0b                      p0.....         
Contents of section .comment:
 0000 4743433a 20287850 61636b20 474e5520  GCC: (xPack GNU 
 0010 52495343 2d562045 6d626564 64656420  RISC-V Embedded 
 0020 47434320 61726d36 34292031 342e322e  GCC arm64) 14.2.
 0030 3000                                 0.              
Contents of section .debug_line:
 0000 71000000 02001b00 00000101 fb0e0a00  q...............
 0010 01010101 00000001 00737461 72742e53  .........start.S
 0020 00000000 00000502 00000100 16030309  ................
 0030 08000103 01090800 01030209 08000103  ................
 0040 01090400 01030109 04000103 01090400  ................
 0050 01030409 04000103 03090400 01030109  ................
 0060 04000103 01090400 01030409 04000109  ................
 0070 04000001 011d0600 00050004 00450000  .............E..
 0080 00010101 fb0e0d00 01010101 00000001  ................
 0090 00000101 011f0400 0000002d 00000072  ...........-...r
 00a0 000000b3 00000002 011f020f 05260000  .............&..
 00b0 00002600 000000ff 00000001 10010000  ..&.............
 00c0 021a0100 00030535 0005023c 00010003  .......5...<....
 00d0 1d01050e 0301091c 00010514 03010908  ................
 00e0 0001050b 03010908 00010512 03010904  ................
 00f0 0001050b 0300090c 00010510 0300090c  ................
 0100 0001050e 03000904 0001050d 037f0904  ................
 0110 0001050c 0300090c 00010302 09040001  ................
 0120 05010301 09040001 054a0302 09140001  .........J......
 0130 05080301 09180001 051e0002 04010300  ................
 0140 09080001 06030009 04000105 13060301  ................
 0150 09040001 05210300 09040001 050e0301  .....!..........
 0160 09040001 05050300 09080001 05130301  ................
 0170 09040001 05200301 090c0001 05260300  ..... .......&..
 0180 090c0001 05130300 09040001 050c0301  ................
 0190 090c0001 05170301 090c0001 051e0301  ................
 01a0 09100001 05160300 090c0001 051f0002  ................
 01b0 0402037b 090c0001 05180002 04010300  ...{............
 01c0 090c0001 050c0308 09080001 05010301  ................
 01d0 09040001 054a0301 09140001 05080301  .....J..........
 01e0 09180001 051e0002 04010300 09080001  ................
 01f0 06030009 04000105 13060301 09040001  ................
 0200 050e0301 09040001 05050300 09080001  ................
 0210 05130301 09040001 05200301 090c0001  ......... ......
 0220 05260300 090c0001 05130300 09040001  .&..............
 0230 050c0301 090c0001 05170301 090c0001  ................
 0240 051f0002 0402037c 09100001 05180002  .......|........
 0250 04010300 090c0001 050c0307 09080001  ................
 0260 05010301 09040001 052e0301 09140001  ................
 0270 050e0301 09180001 050b0301 09040001  ................
 0280 050f0301 09040001 050c0300 09080001  ................
 0290 051b0002 04010300 09040001 050b0301  ................
 02a0 09100001 0301090c 0001050c 037d090c  .............}..
 02b0 00010305 09080001 05010301 09040001  ................
 02c0 052b0301 09140001 050c0301 09180001  .+..............
 02d0 05010301 09100001 05230306 09140001  .........#......
 02e0 050b0302 09140001 05060301 090c0001  ................
 02f0 05080301 090c0001 050c0301 09080001  ................
 0300 050a0301 090c0001 05180303 09100001  ................
 0310 05160002 04010300 09100001 05100002  ................
 0320 04010300 090c0001 050e0301 09080001  ................
 0330 05130301 090c0001 0514037d 09100001  ...........}....
 0340 05060306 09080001 05050301 090c0001  ................
 0350 05010301 09280001 05190302 09140001  .....(..........
 0360 05050301 09180001 05010301 091c0001  ................
 0370 051e0306 09140001 050c0301 09140001  ................
 0380 050b0301 09040001 05170002 04020300  ................
 0390 09040001 050e0002 04010300 090c0001  ................
 03a0 050c0002 04010300 090c0001 03010908  ................
 03b0 00010501 03010904 00010519 03010914  ................
 03c0 00010505 03010914 00010002 04010603  ................
 03d0 00090c00 01060301 09180001 050c0301  ................
 03e0 09240001 05010301 09040001 05250302  .$...........%..
 03f0 09140001 05050301 09300001 00020401  .........0......
 0400 06030009 0c000105 0c060301 09180001  ................
 0410 05010301 09040001 05100309 09140001  ................
 0420 05050304 09100001 05140302 095c0001  .............\..
 0430 05120002 04010300 090c0001 05150301  ................
 0440 09080001 05130002 04010300 090c0001  ................
 0450 05050302 09080001 05120302 09040001  ................
 0460 05100002 04010300 090c0001 05130301  ................
 0470 09080001 05110002 04010300 090c0001  ................
 0480 05050303 09080001 03030964 00010301  ...........d....
 0490 094c0001 03030924 00010301 09540001  .L.....$.....T..
 04a0 03020924 0001050c 03020924 00010501  ...$.......$....
 04b0 03010904 0001051a 03060914 00010509  ................
 04c0 03010914 0001050b 03010904 00010511  ................
 04d0 03010904 0001050b 03000908 0001050e  ................
 04e0 0301090c 0001050c 037e090c 00010304  .........~......
 04f0 09080001 05010301 09040001 05490308  .............I..
 0500 09140001 05180301 09200001 050b0301  ......... ......
 0510 09100001 050f0301 09040001 050c0300  ................
 0520 09100001 05140301 090c0001 050b0301  ................
 0530 09300001 03010924 0001050c 037c0924  .0.....$.....|.$
 0540 00010306 09100001 05010301 09080001  ................
 0550 05570303 09180001 05080301 09300001  .W...........0..
 0560 05210002 04010300 09100001 06030009  .!..............
 0570 08000105 18060301 09040001 05260300  .............&..
 0580 09100001 050e0301 09080001 05050300  ................
 0590 09080001 05130301 09040001 05200301  ............. ..
 05a0 09240001 05260300 09500001 05130300  .$...&...P......
 05b0 09080001 050c0301 09180001 05170301  ................
 05c0 09240001 051f0301 09300001 05160300  .$.......0......
 05d0 092c0001 051f0002 0402037b 09180001  .,.........{....
 05e0 05180002 04010300 090c0001 050c0308  ................
 05f0 09080001 05010301 09080001 05570303  .............W..
 0600 09280001 05080301 09200001 05210002  .(....... ...!..
 0610 04010300 09100001 06030009 08000105  ................
 0620 18060301 09040001 050e0301 09100001  ................
 0630 05050300 09080001 05130301 09040001  ................
 0640 05200301 09240001 05260300 09500001  . ...$...&...P..
 0650 05130300 09080001 050c0301 09180001  ................
 0660 05170301 09240001 051f0002 0402037c  .....$.........|
 0670 09300001 05180002 04010300 090c0001  .0..............
 0680 050c0306 09080001 05010301 09080001  ................
 0690 09180000 01016b00 00000200 21000000  ......k.....!...
 06a0 0101fb0e 0a000101 01010000 00010070  ...............p
 06b0 65726663 6f756e74 65722e53 00000000  erfcounter.S....
 06c0 00000502 1c0c0100 17030109 04000103  ................
 06d0 01090400 01030109 04000103 01090400  ................
 06e0 01030809 04000103 01090400 01030109  ................
 06f0 04000103 01090400 01030109 04000109  ................
 0700 04000001 01fe0300 00050004 003c0000  .............<..
 0710 00010101 fb0e0d00 01010101 00000001  ................
 0720 00000101 011f0300 0000002d 00000072  ...........-...r
 0730 00000002 011f020f 04230100 00002301  .........#....#.
 0740 000000ff 00000001 10010000 02052300  ..............#.
 0750 0502440c 0100030a 01050803 01091400  ..D.............
 0760 01051800 02040103 00090800 01060300  ................
 0770 09040001 05090603 01090400 01050b03  ................
 0780 01090400 01052800 02040203 00090400  ......(.........
 0790 01052e00 02040203 00090c00 01051e00  ................
 07a0 02040103 00090c00 01050c03 01090800  ................
 07b0 01050103 01090400 01053103 0f091400  ..........1.....
 07c0 01050e03 01091800 01051e03 00090c00  ................
 07d0 01050e03 01091000 01051e03 00090c00  ................
 07e0 01050e03 02091000 01051903 01091000  ................
 07f0 01052703 00090c00 01050e03 00090c00  ..'.............
 0800 01030109 08000105 10030309 10000105  ................
 0810 17030009 08000105 23030009 08000105  ........#.......
 0820 1d030009 08000105 01030109 04000105  ................
 0830 35030509 14000105 13030109 18000105  5...............
 0840 14030109 10000105 0e030109 10000103  ................
 0850 01090c00 01053b03 01090800 01000204  ......;.........
 0860 01060300 090c0001 00020402 03000910  ................
 0870 0001050e 00020404 06030009 04000105  ................
 0880 0c030109 04000105 01030109 10000105  ................
 0890 21030509 14000105 08030109 14000105  !...............
 08a0 18000204 01030009 08000106 03000904  ................
 08b0 00010514 06030209 04000105 09000204  ................
 08c0 01030009 0c000105 0e030109 0c000105  ................
 08d0 39030109 1c000105 34000204 01030009  9.......4.......
 08e0 0c000105 39000204 01030009 08000100  ....9...........
 08f0 02040206 03000918 0001050e 00020404  ................
 0900 06030009 04000103 01090400 01030309  ................
 0910 10000103 01091000 01053803 01091000  ..........8.....
 0920 01053000 02040103 00090c00 01053800  ..0...........8.
 0930 02040103 00090c00 01054800 02040203  ..........H.....
 0940 00090c00 01053800 02040203 00090800  ......8.........
 0950 01050e00 02040403 00090800 01051103  ................
 0960 02090400 01051903 00090c00 01050703  ................
 0970 00090400 01050903 01090c00 01030109  ................
 0980 10000105 0c030109 10000105 01030109  ................
 0990 04000105 3f030509 14000105 21030109  ....?.......!...
 09a0 1c000105 0e030009 08000105 21030109  ............!...
 09b0 04000105 0e030009 08000105 21030109  ............!...
 09c0 04000105 0e030009 08000105 1b030109  ................
 09d0 04000105 0e030009 0c000105 08030209  ................
 09e0 0c000105 1e000204 01030009 08000106  ................
 09f0 03000904 00010514 06030109 04000105  ................
 0a00 0c030109 0c000105 01030109 10000105  ................
 0a10 4b030509 14000105 05030109 1c000103  K...............
 0a20 01090c00 01030109 0c000105 17030109  ................
 0a30 08000105 08030009 08000105 2c000204  ............,...
 0a40 01030009 08000105 1b000204 01030009  ................
 0a50 08000105 09030109 08000103 02091000  ................
 0a60 01050103 01090c00 01051603 02091800  ................
 0a70 01050503 01091000 01030109 0c000100  ................
 0a80 02040106 0300090c 00010603 01091400  ................
 0a90 01000204 01060300 090c0001 06030109  ................
 0aa0 14000100 02040106 0300090c 00010603  ................
 0ab0 02091800 01030109 0c000100 02040106  ................
 0ac0 03000914 00010603 01091400 01000204  ................
 0ad0 01060300 09140001 06030109 14000100  ................
 0ae0 02040106 03000914 00010603 02091400  ................
 0af0 01050c03 01090c00 01050103 01090400  ................
 0b00 01091400 000101                      .......         
Contents of section .debug_info:
 0000 31000000 02000000 00000401 00000000  1...............
 0010 00000100 3c000100 00000000 08000000  ....<...........
 0020 2e000000 0180023c 00000001 00000100  .......<........
 0030 40000100 00190600 00050001 04210000  @............!..
 0040 0011ab00 00001d26 00000000 0000003c  .......&.......<
 0050 000100e0 0b000075 00000003 01065401  .......u......T.
 0060 00000621 01000002 2b183900 00000301  ...!....+.9.....
 0070 08520100 00030205 75000000 0302078a  .R......u.......
 0080 01000003 04050301 00000690 00000002  ................
 0090 4f196100 00000304 076e0100 00030805  O.a......n......
 00a0 fe000000 06b90100 00026919 7b000000  ..........i.{...
 00b0 03080769 01000012 0405696e 74000304  ...i......int...
 00c0 07730100 00062301 00000318 132d0000  .s....#......-..
 00d0 00109000 00000692 00000003 30145500  ............0.U.
 00e0 000006bb 01000003 3c146f00 000013ad  ........<.o.....
 00f0 00000006 7f000000 04d61789 00000003  ................
 0100 10044601 00000ed8 0100007f 05820000  ..F.............
 0110 000e3501 00001c11 ad000000 0ef70100  ..5.............
 0120 001b11ad 00000007 2b010000 cd147b00  ........+.....{.
 0130 0000a80a 01007401 0000019c 4c010000  ......t.....L...
 0140 04600100 00cd317b 00000002 915804e8  .`....1{.....X..
 0150 010000cd 4e7b0000 00029150 016b0000  ....N{.....P.k..
 0160 00cf187b 00000002 916808f4 0a010008  ...{.....h......
 0170 01000005 6900d00e 82000000 02916400  ....i.........d.
 0180 00074300 0000be14 7b000000 c8080100  ..C.....{.......
 0190 e0010000 019cb601 00000460 010000be  ...........`....
 01a0 317b0000 000391b8 7f04e801 0000be4e  1{.............N
 01b0 7b000000 0391b07f 01a20000 00c0187b  {..............{
 01c0 00000002 9158016b 000000c0 267b0000  .....X.k....&{..
 01d0 00029150 082c0901 004c0100 00056900  ...P.,...L....i.
 01e0 c10e8200 00000291 4c000007 c9010000  ........L.......
 01f0 b2147b00 0000d007 0100f800 0000019c  ..{.............
 0200 f6010000 026100b2 307b0000 00029158  .....a..0{.....X
 0210 026200b2 467b0000 00029150 019e0200  .b..F{.....P....
 0220 00b3187b 00000002 91680007 4d000000  ...{.....h..M...
 0230 a3058200 00007407 01005c00 0000019c  ......t...\.....
 0240 2a020000 026e00a3 17820000 0002915c  *....n.........\
 0250 01d20100 00a40982 00000002 916c000c  .............l..
 0260 de010000 81058200 00002c05 01004802  ..........,...H.
 0270 0000019c 09030000 01f10000 008217b9  ................
 0280 00000002 91680102 02000082 25b90000  .....h......%...
 0290 00029160 010c0100 008317b9 00000002  ...`............
 02a0 9158019d 01000083 26b90000 00029150  .X......&......P
 02b0 0d3c0501 005c0000 00980200 0001c401  .<...\..........
 02c0 00008505 09030000 0391b47f 000dec05  ................
 02d0 01006400 0000b502 000001c4 01000090  ..d.............
 02e0 05250300 00039198 7f000d50 0601004c  .%.........P...L
 02f0 000000d2 02000001 c4010000 93053503  ..............5.
 0300 00000391 887f000d c0060100 54000000  ............T...
 0310 ef020000 01c40100 00970545 03000003  ...........E....
 0320 91f07e00 08380701 00240000 0001c401  ..~..8...$......
 0330 00009a05 55030000 0391ec7e 00000919  ....U......~....
 0340 03000019 0300000a 89000000 19000301  ................
 0350 085b0100 00101903 00000919 03000035  .[.............5
 0360 0300000a 89000000 1a000919 03000045  ...............E
 0370 0300000a 89000000 0e000919 03000055  ...............U
 0380 0300000a 89000000 15000919 03000065  ...............e
 0390 0300000a 89000000 01000c1a 01000075  ...............u
 03a0 05820000 00c00401 006c0000 00019c8e  .........l......
 03b0 03000004 f0010000 75188e03 00000291  ........u.......
 03c0 4c14000b 20030000 0c850100 006f0582  L... ........o..
 03d0 0000004c 04010074 00000001 9cd10300  ...L...t........
 03e0 00027300 6f168e03 00000291 5c088404  ..s.o.......\...
 03f0 01002400 000001c4 01000071 05550300  ..$........q.U..
 0400 0002916c 000007a9 0100006a 08be0000  ...l.......j....
 0410 00f80301 00540000 00019c05 04000002  .....T..........
 0420 73006a1b 8e030000 02915c01 d2010000  s.j.......\.....
 0430 6b0cbe00 00000291 6c001560 00000001  k.......l..`....
 0440 6206b003 01004800 0000019c 28040000  b.....H.....(...
 0450 02630062 16190300 0002916f 00168600  .c.b.......o....
 0460 00000150 06d00201 00e00000 00019c67  ...P...........g
 0470 04000002 76616c00 501e6100 00000291  ....val.P.a.....
 0480 4c056275 6600510a 67040000 02915805  L.buf.Q.g.....X.
 0490 7000520b 77040000 02916c00 09190300  p.R.w.....l.....
 04a0 00770400 000a8900 00001300 0b190300  .w..............
 04b0 000cb001 0000480a a1000000 94020100  ......H.........
 04c0 3c000000 019cae04 00000261 00481ca1  <..........a.H..
 04d0 00000002 916c0262 004828a1 00000002  .....l.b.H(.....
 04e0 9168000f 80010000 3f11a100 00002002  .h......?..... .
 04f0 01007400 0000019c ee040000 0261003f  ..t..........a.?
 0500 1fa10000 0002915c 0262003f 2ba10000  .......\.b.?+...
 0510 00029158 019e0200 00400ea1 00000002  ...X.....@......
 0520 916c000f e3010000 33166100 00007801  .l......3.a...x.
 0530 0100a800 0000019c 48050000 04600100  ........H....`..
 0540 00332961 00000002 915c04e8 01000033  .3)a.....\.....3
 0550 41610000 00029158 016b0000 00351361  Aa.....X.k...5.a
 0560 00000002 916c08a4 01010064 00000005  .....l.....d....
 0570 6900360e 82000000 02916800 000f4101  i.6.......h...A.
 0580 00002616 61000000 b4000100 c4000000  ..&.a...........
 0590 019cb005 00000460 01000026 29610000  .......`...&)a..
 05a0 0002915c 04e80100 00264161 00000002  ...\.....&Aa....
 05b0 915801a2 00000028 13610000 0002916c  .X.....(.a.....l
 05c0 016b0000 00282161 00000002 916808e4  .k...(!a.....h..
 05d0 0001007c 00000005 6900290e 82000000  ...|....i.).....
 05e0 02916400 00079b00 00001e07 0a060000  ..d.............
 05f0 3c000100 78000000 019c0a06 0000045b  <...x..........[
 0600 0000001e 140a0600 0002915c 02737263  ...........\.src
 0610 001e260c 06000002 9158026e 001e32be  ..&......X.n..2.
 0620 00000002 91540564 001f0e12 06000002  .....T.d........
 0630 916c0573 00201417 06000002 91680017  .l.s. .......h..
 0640 040b1106 0000180b 90000000 0b9c0000  ................
 0650 00002200 00000200 95010000 04019606  ..".............
 0660 00001c0c 0100440c 01000d02 00000800  ......D.........
 0670 00002e00 00000180 9f030000 05000104  ................
 0680 a9010000 0aab0000 001d2301 00000000  ..........#.....
 0690 0000440c 01005005 00000507 00000301  ..D...P.........
 06a0 06540100 00030108 52010000 03020575  .T......R......u
 06b0 00000003 02078a01 000005a5 02000002  ................
 06c0 4d184e00 00000304 05030100 00059000  M.N.............
 06d0 0000024f 19610000 00030407 6e010000  ...O.a......n...
 06e0 030805fe 00000003 08076901 00000b04  ..........i.....
 06f0 05696e74 00030407 73010000 05a70200  .int....s.......
 0700 00032c13 42000000 05920000 00033014  ..,.B.........0.
 0710 55000000 06900000 00031004 46010000  U...........F...
 0720 0c9c0000 00b80000 000d7d00 00001f00  ..........}.....
 0730 06a80000 00011b02 00001517 b8000000  ................
 0740 0503f411 01000e86 00000001 050de000  ................
 0750 00000761 00000000 0f1a0100 0001060c  ...a............
 0760 76000000 f7000000 07f70000 00100011  v...............
 0770 04040100 00030108 5b010000 06fd0000  ........[.......
 0780 0012d801 00000168 05760000 006c1001  .......h.v...l..
 0790 00280100 00019c13 98020000 015e0ddc  .(...........^..
 07a0 0f010090 00000001 9c600100 00089302  .........`......
 07b0 00005e26 f7000000 02916c04 676f7400  ..^&......l.got.
 07c0 5e359000 00000291 6808af02 00005e43  ^5......h.....^C
 07d0 90000000 02916400 09630200 00509000  ......d..c...P..
 07e0 0000440f 01009800 0000019c e3010000  ..D.............
 07f0 04647800 50238400 00000291 4c046479  .dx.P#......L.dy
 0800 00502f84 00000002 91480464 7a00503b  .P/......H.dz.P;
 0810 84000000 02914402 64310051 0e900000  ......D.d1.Q....
 0820 0002916c 02643200 520e9000 00000291  ...l.d2.R.......
 0830 68026433 00530e90 00000002 91640139  h.d3.S.......d.9
 0840 02000054 0e900000 00029160 02696e76  ...T.......`.inv
 0850 00570e90 00000002 915c0009 41020000  .W.......\..A...
 0860 3a900000 00fc0d01 00480100 00019c68  :........H.....h
 0870 02000004 78003a1e 90000000 02914c02  ....x.:.......L.
 0880 65787000 3d097600 00000291 6c027900  exp.=.v.....l.y.
 0890 3e0e9000 00000291 68014c02 00003f0e  >.......h.L...?.
 08a0 90000000 02916401 53020000 400e9000  ......d.S...@...
 08b0 00000291 6001b602 0000430e 90000000  ....`.....C.....
 08c0 02915c01 2f020000 440e9000 00000291  ..\./...D.......
 08d0 58015902 0000450e 90000000 02915400  X.Y...E.......T.
 08e0 14740200 00012e11 90000000 680d0100  .t..........h...
 08f0 94000000 019ce002 00000479 002e2690  ...........y..&.
 0900 00000002 914c0478 002e3290 00000002  .....L.x..2.....
 0910 91480279 32002f0e 90000000 02916c02  .H.y2./.......l.
 0920 78793200 300e9000 00000291 68018002  xy2.0.......h...
 0930 0000310e 90000000 02916401 8e020000  ..1.......d.....
 0940 320e9000 00000291 60012f02 0000330e  2.......`./...3.
 0950 90000000 02915c00 15270200 00011f11  ......\..'......
 0960 90000000 a80c0100 c0000000 019c7303  ..............s.
 0970 00000461 001f2290 00000002 914c0462  ...a.."......L.b
 0980 001f2e90 00000002 914801bb 02000020  .........H..... 
 0990 0e900000 0002916c 01340200 00201e90  .......l.4... ..
 09a0 00000002 9168015e 02000021 0e900000  .....h.^...!....
 09b0 00029164 01890200 00211e90 00000002  ...d.....!......
 09c0 91600268 6900230e 90000000 02915c02  .`.hi.#.......\.
 09d0 6d696400 240e9000 00000291 58026c6f  mid.$.......X.lo
 09e0 00250e90 00000002 91540016 636c7a00  .%.......T..clz.
 09f0 010b1376 00000044 0c010064 00000001  ...v...D...d....
 0a00 9c047800 0b209000 00000291 5c026e00  ..x.. ......\.n.
 0a10 0d097600 00000291 6c0000             ..v.....l..     
Contents of section .debug_abbrev:
 0000 01110110 06110112 01030e1b 0e250e13  .............%..
 0010 05000002 2e00030e 3f0c1101 12010000  ........?.......
 0020 00013400 030e3a21 013b0b39 0b491302  ..4...:!.;.9.I..
 0030 18000002 05000308 3a21013b 0b390b49  ........:!.;.9.I
 0040 13021800 00032400 0b0b3e0b 030e0000  ......$...>.....
 0050 04050003 0e3a2101 3b0b390b 49130218  .....:!.;.9.I...
 0060 00000534 0003083a 21013b0b 390b4913  ...4...:!.;.9.I.
 0070 02180000 06160003 0e3a0b3b 0b390b49  .........:.;.9.I
 0080 13000007 2e013f19 030e3a21 013b0b39  ......?...:!.;.9
 0090 0b271949 13110112 0640187a 19011300  .'.I.....@.z....
 00a0 00080b01 11011206 00000901 01491301  .............I..
 00b0 1300000a 21004913 2f0b0000 0b0f000b  ....!.I./.......
 00c0 21044913 00000c2e 013f1903 0e3a2101  !.I......?...:!.
 00d0 3b0b390b 27194913 11011206 40187c19  ;.9.'.I.....@.|.
 00e0 01130000 0d0b0111 01120601 1300000e  ................
 00f0 2e003f19 030e3a21 013b0b39 0b271949  ..?...:!.;.9.'.I
 0100 133c1900 000f2e01 030e3a21 013b0b39  .<........:!.;.9
 0110 0b271949 13110112 0640187a 19011300  .'.I.....@.z....
 0120 00102600 49130000 11110125 0e130b03  ..&.I......%....
 0130 1f1b1f11 01120610 17000012 24000b0b  ............$...
 0140 3e0b0308 00001335 00491300 00141800  >......5.I......
 0150 0000152e 013f1903 0e3a0b3b 0b390b27  .....?...:.;.9.'
 0160 19110112 0640187a 19011300 00162e01  .....@.z........
 0170 3f19030e 3a0b3b0b 390b2719 11011206  ?...:.;.9.'.....
 0180 40187c19 01130000 170f000b 0b000018  @.|.............
 0190 26000000 00011100 10061101 1201030e  &...............
 01a0 1b0e250e 13050000 00013400 030e3a21  ..%.......4...:!
 01b0 013b0b39 0b491302 18000002 34000308  .;.9.I......4...
 01c0 3a21013b 0b390b49 13021800 00032400  :!.;.9.I......$.
 01d0 0b0b3e0b 030e0000 04050003 083a2101  ..>..........:!.
 01e0 3b0b390b 49130218 00000516 00030e3a  ;.9.I..........:
 01f0 0b3b0b39 0b491300 00062600 49130000  .;.9.I....&.I...
 0200 07050049 13000008 0500030e 3a21013b  ...I........:!.;
 0210 0b390b49 13021800 00092e01 3f19030e  .9.I........?...
 0220 3a21013b 0b39210a 27194913 11011206  :!.;.9!.'.I.....
 0230 40187c19 01130000 0a110125 0e130b03  @.|........%....
 0240 1f1b1f11 01120610 1700000b 24000b0b  ............$...
 0250 3e0b0308 00000c01 01491301 1300000d  >........I......
 0260 21004913 2f0b0000 0e2e013f 19030e3a  !.I./......?...:
 0270 0b3b0b39 0b27193c 19011300 000f2e01  .;.9.'.<........
 0280 3f19030e 3a0b3b0b 390b2719 49133c19  ?...:.;.9.'.I.<.
 0290 01130000 10180000 00110f00 0b0b4913  ..............I.
 02a0 0000122e 003f1903 0e3a0b3b 0b390b27  .....?...:.;.9.'
 02b0 19491311 01120640 187c1900 00132e01  .I.....@.|......
 02c0 030e3a0b 3b0b390b 27191101 12064018  ..:.;.9.'.....@.
 02d0 7c190113 0000142e 01030e3a 0b3b0b39  |..........:.;.9
 02e0 0b271949 13110112 0640187c 19011300  .'.I.....@.|....
 02f0 00152e01 030e3a0b 3b0b390b 27194913  ......:.;.9.'.I.
 0300 11011206 40187a19 01130000 162e0103  ....@.z.........
 0310 083a0b3b 0b390b27 19491311 01120640  .:.;.9.'.I.....@
 0320 187a1900 0000                        .z....          
Contents of section .debug_aranges:
 0000 1c000000 02000000 00000400 00000000  ................
 0010 00000100 3c000000 00000000 00000000  ....<...........
 0020 1c000000 02003500 00000400 00000000  ......5.........
 0030 3c000100 e00b0000 00000000 00000000  <...............
 0040 1c000000 02005206 00000400 00000000  ......R.........
 0050 1c0c0100 28000000 00000000 00000000  ....(...........
 0060 1c000000 02007806 00000400 00000000  ......x.........
 0070 440c0100 50050000 00000000 00000000  D...P...........
Contents of section .debug_str:
 0000 73746172 742e5300 2f557365 72732f68  start.S./Users/h
 0010 73756873 69616f66 616e2f72 76333265  suhsiaofan/rv32e
 0020 6d752f6d 795f7072 6f6a6563 7400474e  mu/my_project.GN
 0030 55204153 20322e34 332e3100 5f737461  U AS 2.43.1._sta
 0040 7274005f 5f756469 76646933 005f5f70  rt.__udivdi3.__p
 0050 6f70636f 756e7473 69320064 65737400  opcountsi2.dest.
 0060 7072696e 745f6368 61720072 656d6169  print_char.remai
 0070 6e646572 0073686f 72742069 6e740073  nder.short int.s
 0080 697a655f 74007072 696e745f 696e7400  ize_t.print_int.
 0090 5f5f7569 6e743332 5f74006d 656d6370  __uint32_t.memcp
 00a0 79007175 6f746965 6e740047 4e552043  y.quotient.GNU C
 00b0 31372031 342e322e 30202d6d 6162693d  17 14.2.0 -mabi=
 00c0 696c7033 32202d6d 6973612d 73706563  ilp32 -misa-spec
 00d0 3d323031 39313231 33202d6d 61726368  =20191213 -march
 00e0 3d727633 32696d5f 7a696373 72202d67  =rv32im_zicsr -g
 00f0 00737461 72745f63 79636c65 73006c6f  .start_cycles.lo
 0100 6e67206c 6f6e6720 696e7400 73746172  ng long int.star
 0110 745f696e 73747265 74007072 696e7466  t_instret.printf
 0120 005f5f75 696e7438 5f74005f 5f756d6f  .__uint8_t.__umo
 0130 64646933 00676574 5f696e73 74726574  ddi3.get_instret
 0140 00756469 76006c6f 6e672064 6f75626c  .udiv.long doubl
 0150 6500756e 7369676e 65642063 68617200  e.unsigned char.
 0160 64697669 64656e64 006c6f6e 67206c6f  dividend.long lo
 0170 6e672075 6e736967 6e656420 696e7400  ng unsigned int.
 0180 756d756c 00707574 73007368 6f727420  umul.puts.short 
 0190 756e7369 676e6564 20696e74 00656e64  unsigned int.end
 01a0 5f696e73 74726574 00737472 6c656e00  _instret.strlen.
 01b0 5f5f6d75 6c736933 005f5f75 696e7436  __mulsi3.__uint6
 01c0 345f7400 5f6d7367 005f5f6d 756c6469  4_t._msg.__muldi
 01d0 3300636f 756e7400 717a335f 435f6d61  3.count.qz3_C_ma
 01e0 696e0075 6d6f6400 64697669 736f7200  in.umod.divisor.
 01f0 666f726d 61740067 65745f63 79636c65  format.get_cycle
 0200 7300656e 645f6379 636c6573 00706572  s.end_cycles.per
 0210 66636f75 6e746572 2e530072 73717274  fcounter.S.rsqrt
 0220 5f746162 6c65006d 756c5f71 31360064  _table.mul_q16.d
 0230 69666600 615f6c6f 00646973 745f7371  iff.a_lo.dist_sq
 0240 00666173 745f7273 71727400 795f6e65  .fast_rsqrt.y_ne
 0250 78740064 656c7461 00667261 6300625f  xt.delta.frac.b_
 0260 68690066 6173745f 64697374 616e6365  hi.fast_distance
 0270 5f336400 6e657774 6f6e5f73 74657000  _3d.newton_step.
 0280 68616c66 5f787932 00625f6c 6f007465  half_xy2.b_lo.te
 0290 726d006e 616d6500 63686563 6b5f7265  rm.name.check_re
 02a0 73756c74 005f5f69 6e743332 5f740065  sult.__int32_t.e
 02b0 78706563 74006261 73650061 5f686900  xpect.base.a_hi.
Contents of section .debug_line_str:
 0000 2f557365 72732f68 73756873 69616f66  /Users/hsuhsiaof
 0010 616e2f72 76333265 6d752f6d 795f7072  an/rv32emu/my_pr
 0020 6f6a6563 74006d61 696e2e63 002f5573  oject.main.c./Us
 0030 6572732f 68737568 7369616f 66616e2f  ers/hsuhsiaofan/
 0040 72697363 762d6e6f 6e652d65 6c662d67  riscv-none-elf-g
 0050 63632f72 69736376 2d6e6f6e 652d656c  cc/riscv-none-el
 0060 662f696e 636c7564 652f6d61 6368696e  f/include/machin
 0070 65002f55 73657273 2f687375 68736961  e./Users/hsuhsia
 0080 6f66616e 2f726973 63762d6e 6f6e652d  ofan/riscv-none-
 0090 656c662d 6763632f 72697363 762d6e6f  elf-gcc/riscv-no
 00a0 6e652d65 6c662f69 6e636c75 64652f73  ne-elf/include/s
 00b0 7973002f 55736572 732f6873 75687369  ys./Users/hsuhsi
 00c0 616f6661 6e2f7269 7363762d 6e6f6e65  aofan/riscv-none
 00d0 2d656c66 2d676363 2f6c6962 2f676363  -elf-gcc/lib/gcc
 00e0 2f726973 63762d6e 6f6e652d 656c662f  /riscv-none-elf/
 00f0 31342e32 2e302f69 6e636c75 6465005f  14.2.0/include._
 0100 64656661 756c745f 74797065 732e6800  default_types.h.
 0110 5f737464 696e742e 68007374 64646566  _stdint.h.stddef
 0120 2e680071 7a335f43 2e6300             .h.qz3_C.c.     
Contents of section .debug_frame:
 0000 0c000000 ffffffff 0300017c 010c0200  ...........|....
 0010 24000000 00000000 3c000100 78000000  $.......<...x...
 0020 440e3048 81018802 440c0800 025cc144  D.0H....D....\.D
 0030 c80c0230 440e0000 24000000 00000000  ...0D...$.......
 0040 b4000100 c4000000 440e3048 81018802  ........D.0H....
 0050 440c0800 02a8c144 c80c0230 440e0000  D......D...0D...
 0060 24000000 00000000 78010100 a8000000  $.......x.......
 0070 440e3048 81018802 440c0800 028cc144  D.0H....D......D
 0080 c80c0230 440e0000 24000000 00000000  ...0D...$.......
 0090 20020100 74000000 440e3048 81018802   ...t...D.0H....
 00a0 440c0800 0258c144 c80c0230 440e0000  D....X.D...0D...
 00b0 24000000 00000000 94020100 3c000000  $...........<...
 00c0 440e2048 81018802 440c0800 60c144c8  D. H....D...`.D.
 00d0 0c022044 0e000000 24000000 00000000  .. D....$.......
 00e0 d0020100 e0000000 440e4048 81018802  ........D.@H....
 00f0 440c0800 02c4c144 c80c0240 440e0000  D......D...@D...
 0100 24000000 00000000 b0030100 48000000  $...........H...
 0110 440e2048 81018802 440c0800 6cc144c8  D. H....D...l.D.
 0120 0c022044 0e000000 24000000 00000000  .. D....$.......
 0130 f8030100 54000000 440e3048 81018802  ....T...D.0H....
 0140 440c0800 78c144c8 0c023044 0e000000  D...x.D...0D....
 0150 24000000 00000000 4c040100 74000000  $.......L...t...
 0160 440e3048 81018802 440c0800 0258c144  D.0H....D....X.D
 0170 c80c0230 440e0000 24000000 00000000  ...0D...$.......
 0180 c0040100 6c000000 440e4048 8109880a  ....l...D.@H....
 0190 440c0820 0250c144 c80c0240 440e0000  D.. .P.D...@D...
 01a0 28000000 00000000 2c050100 48020000  (.......,...H...
 01b0 440ea001 48810188 02440c08 00032c02  D...H....D....,.
 01c0 c144c80c 02a00144 0e000000 24000000  .D.....D....$...
 01d0 00000000 74070100 5c000000 440e3048  ....t...\...D.0H
 01e0 81018802 440c0800 0240c144 c80c0230  ....D....@.D...0
 01f0 440e0000 24000000 00000000 d0070100  D...$...........
 0200 f8000000 440e3048 81018802 440c0800  ....D.0H....D...
 0210 02dcc144 c80c0230 440e0000 34000000  ...D...0D...4...
 0220 00000000 c8080100 e0010000 440e5058  ............D.PX
 0230 81018802 92039304 94059506 440c0800  ............D...
 0240 03a401c1 44c80c02 5044d244 d344d444  ....D...PD.D.D.D
 0250 d5440e00 24000000 00000000 a80a0100  .D..$...........
 0260 74010000 440e3048 81018802 440c0800  t...D.0H....D...
 0270 035801c1 44c80c02 30440e00 0c000000  .X..D...0D......
 0280 ffffffff 0300017c 010c0200 24000000  .......|....$...
 0290 7c020000 440c0100 64000000 440e3048  |...D...d...D.0H
 02a0 81018802 440c0800 0248c144 c80c0230  ....D....H.D...0
 02b0 440e0000 24000000 7c020000 a80c0100  D...$...|.......
 02c0 c0000000 440e4048 81018802 440c0800  ....D.@H....D...
 02d0 02a4c144 c80c0240 440e0000 24000000  ...D...@D...$...
 02e0 7c020000 680d0100 94000000 440e4048  |...h.......D.@H
 02f0 81018802 440c0800 0278c144 c80c0240  ....D....x.D...@
 0300 440e0000 24000000 7c020000 fc0d0100  D...$...|.......
 0310 48010000 440e4048 81018802 440c0800  H...D.@H....D...
 0320 032c01c1 44c80c02 40440e00 24000000  .,..D...@D..$...
 0330 7c020000 440f0100 98000000 440e4048  |...D.......D.@H
 0340 81018802 440c0800 027cc144 c80c0240  ....D....|.D...@
 0350 440e0000 24000000 7c020000 dc0f0100  D...$...|.......
 0360 90000000 440e2048 81018802 440c0800  ....D. H....D...
 0370 0274c144 c80c0220 440e0000 24000000  .t.D... D...$...
 0380 7c020000 6c100100 28010000 440e1048  |...l...(...D..H
 0390 81018802 440c0800 030c01c1 44c80c02  ....D.......D...
 03a0 10440e00                             .D..            

Disassembly of section .text:

00010000 <_start>:
   10000:	00002117          	auipc	sp,0x2
   10004:	35010113          	addi	sp,sp,848 # 12350 <__stack_top>
   10008:	00001297          	auipc	t0,0x1
   1000c:	33e28293          	addi	t0,t0,830 # 11346 <__bss_end>
   10010:	00001317          	auipc	t1,0x1
   10014:	33630313          	addi	t1,t1,822 # 11346 <__bss_end>
   10018:	0062d863          	bge	t0,t1,10028 <_start+0x28>
   1001c:	0002a023          	sw	zero,0(t0)
   10020:	00428293          	addi	t0,t0,4
   10024:	ff5ff06f          	j	10018 <_start+0x18>
   10028:	504000ef          	jal	1052c <main>
   1002c:	05d00893          	li	a7,93
   10030:	00000513          	li	a0,0
   10034:	00000073          	ecall
   10038:	0000006f          	j	10038 <_start+0x38>

0001003c <memcpy>:
   1003c:	fd010113          	addi	sp,sp,-48
   10040:	02112623          	sw	ra,44(sp)
   10044:	02812423          	sw	s0,40(sp)
   10048:	03010413          	addi	s0,sp,48
   1004c:	fca42e23          	sw	a0,-36(s0)
   10050:	fcb42c23          	sw	a1,-40(s0)
   10054:	fcc42a23          	sw	a2,-44(s0)
   10058:	fdc42783          	lw	a5,-36(s0)
   1005c:	fef42623          	sw	a5,-20(s0)
   10060:	fd842783          	lw	a5,-40(s0)
   10064:	fef42423          	sw	a5,-24(s0)
   10068:	0240006f          	j	1008c <memcpy+0x50>
   1006c:	fe842703          	lw	a4,-24(s0)
   10070:	00170793          	addi	a5,a4,1
   10074:	fef42423          	sw	a5,-24(s0)
   10078:	fec42783          	lw	a5,-20(s0)
   1007c:	00178693          	addi	a3,a5,1
   10080:	fed42623          	sw	a3,-20(s0)
   10084:	00074703          	lbu	a4,0(a4)
   10088:	00e78023          	sb	a4,0(a5)
   1008c:	fd442783          	lw	a5,-44(s0)
   10090:	fff78713          	addi	a4,a5,-1
   10094:	fce42a23          	sw	a4,-44(s0)
   10098:	fc079ae3          	bnez	a5,1006c <memcpy+0x30>
   1009c:	fdc42783          	lw	a5,-36(s0)
   100a0:	00078513          	mv	a0,a5
   100a4:	02c12083          	lw	ra,44(sp)
   100a8:	02812403          	lw	s0,40(sp)
   100ac:	03010113          	addi	sp,sp,48
   100b0:	00008067          	ret

000100b4 <udiv>:
   100b4:	fd010113          	addi	sp,sp,-48
   100b8:	02112623          	sw	ra,44(sp)
   100bc:	02812423          	sw	s0,40(sp)
   100c0:	03010413          	addi	s0,sp,48
   100c4:	fca42e23          	sw	a0,-36(s0)
   100c8:	fcb42c23          	sw	a1,-40(s0)
   100cc:	fd842783          	lw	a5,-40(s0)
   100d0:	00079663          	bnez	a5,100dc <udiv+0x28>
   100d4:	00000793          	li	a5,0
   100d8:	08c0006f          	j	10164 <udiv+0xb0>
   100dc:	fe042623          	sw	zero,-20(s0)
   100e0:	fe042423          	sw	zero,-24(s0)
   100e4:	01f00793          	li	a5,31
   100e8:	fef42223          	sw	a5,-28(s0)
   100ec:	06c0006f          	j	10158 <udiv+0xa4>
   100f0:	fe842783          	lw	a5,-24(s0)
   100f4:	00179793          	slli	a5,a5,0x1
   100f8:	fef42423          	sw	a5,-24(s0)
   100fc:	fe442783          	lw	a5,-28(s0)
   10100:	fdc42703          	lw	a4,-36(s0)
   10104:	00f757b3          	srl	a5,a4,a5
   10108:	0017f793          	andi	a5,a5,1
   1010c:	fe842703          	lw	a4,-24(s0)
   10110:	00f767b3          	or	a5,a4,a5
   10114:	fef42423          	sw	a5,-24(s0)
   10118:	fe842703          	lw	a4,-24(s0)
   1011c:	fd842783          	lw	a5,-40(s0)
   10120:	02f76663          	bltu	a4,a5,1014c <udiv+0x98>
   10124:	fe842703          	lw	a4,-24(s0)
   10128:	fd842783          	lw	a5,-40(s0)
   1012c:	40f707b3          	sub	a5,a4,a5
   10130:	fef42423          	sw	a5,-24(s0)
   10134:	fe442783          	lw	a5,-28(s0)
   10138:	00100713          	li	a4,1
   1013c:	00f717b3          	sll	a5,a4,a5
   10140:	fec42703          	lw	a4,-20(s0)
   10144:	00f767b3          	or	a5,a4,a5
   10148:	fef42623          	sw	a5,-20(s0)
   1014c:	fe442783          	lw	a5,-28(s0)
   10150:	fff78793          	addi	a5,a5,-1
   10154:	fef42223          	sw	a5,-28(s0)
   10158:	fe442783          	lw	a5,-28(s0)
   1015c:	f807dae3          	bgez	a5,100f0 <udiv+0x3c>
   10160:	fec42783          	lw	a5,-20(s0)
   10164:	00078513          	mv	a0,a5
   10168:	02c12083          	lw	ra,44(sp)
   1016c:	02812403          	lw	s0,40(sp)
   10170:	03010113          	addi	sp,sp,48
   10174:	00008067          	ret

00010178 <umod>:
   10178:	fd010113          	addi	sp,sp,-48
   1017c:	02112623          	sw	ra,44(sp)
   10180:	02812423          	sw	s0,40(sp)
   10184:	03010413          	addi	s0,sp,48
   10188:	fca42e23          	sw	a0,-36(s0)
   1018c:	fcb42c23          	sw	a1,-40(s0)
   10190:	fd842783          	lw	a5,-40(s0)
   10194:	00079663          	bnez	a5,101a0 <umod+0x28>
   10198:	00000793          	li	a5,0
   1019c:	0700006f          	j	1020c <umod+0x94>
   101a0:	fe042623          	sw	zero,-20(s0)
   101a4:	01f00793          	li	a5,31
   101a8:	fef42423          	sw	a5,-24(s0)
   101ac:	0540006f          	j	10200 <umod+0x88>
   101b0:	fec42783          	lw	a5,-20(s0)
   101b4:	00179793          	slli	a5,a5,0x1
   101b8:	fef42623          	sw	a5,-20(s0)
   101bc:	fe842783          	lw	a5,-24(s0)
   101c0:	fdc42703          	lw	a4,-36(s0)
   101c4:	00f757b3          	srl	a5,a4,a5
   101c8:	0017f793          	andi	a5,a5,1
   101cc:	fec42703          	lw	a4,-20(s0)
   101d0:	00f767b3          	or	a5,a4,a5
   101d4:	fef42623          	sw	a5,-20(s0)
   101d8:	fec42703          	lw	a4,-20(s0)
   101dc:	fd842783          	lw	a5,-40(s0)
   101e0:	00f76a63          	bltu	a4,a5,101f4 <umod+0x7c>
   101e4:	fec42703          	lw	a4,-20(s0)
   101e8:	fd842783          	lw	a5,-40(s0)
   101ec:	40f707b3          	sub	a5,a4,a5
   101f0:	fef42623          	sw	a5,-20(s0)
   101f4:	fe842783          	lw	a5,-24(s0)
   101f8:	fff78793          	addi	a5,a5,-1
   101fc:	fef42423          	sw	a5,-24(s0)
   10200:	fe842783          	lw	a5,-24(s0)
   10204:	fa07d6e3          	bgez	a5,101b0 <umod+0x38>
   10208:	fec42783          	lw	a5,-20(s0)
   1020c:	00078513          	mv	a0,a5
   10210:	02c12083          	lw	ra,44(sp)
   10214:	02812403          	lw	s0,40(sp)
   10218:	03010113          	addi	sp,sp,48
   1021c:	00008067          	ret

00010220 <umul>:
   10220:	fd010113          	addi	sp,sp,-48
   10224:	02112623          	sw	ra,44(sp)
   10228:	02812423          	sw	s0,40(sp)
   1022c:	03010413          	addi	s0,sp,48
   10230:	fca42e23          	sw	a0,-36(s0)
   10234:	fcb42c23          	sw	a1,-40(s0)
   10238:	fe042623          	sw	zero,-20(s0)
   1023c:	0380006f          	j	10274 <umul+0x54>
   10240:	fd842783          	lw	a5,-40(s0)
   10244:	0017f793          	andi	a5,a5,1
   10248:	00078a63          	beqz	a5,1025c <umul+0x3c>
   1024c:	fec42703          	lw	a4,-20(s0)
   10250:	fdc42783          	lw	a5,-36(s0)
   10254:	00f707b3          	add	a5,a4,a5
   10258:	fef42623          	sw	a5,-20(s0)
   1025c:	fdc42783          	lw	a5,-36(s0)
   10260:	00179793          	slli	a5,a5,0x1
   10264:	fcf42e23          	sw	a5,-36(s0)
   10268:	fd842783          	lw	a5,-40(s0)
   1026c:	0017d793          	srli	a5,a5,0x1
   10270:	fcf42c23          	sw	a5,-40(s0)
   10274:	fd842783          	lw	a5,-40(s0)
   10278:	fc0794e3          	bnez	a5,10240 <umul+0x20>
   1027c:	fec42783          	lw	a5,-20(s0)
   10280:	00078513          	mv	a0,a5
   10284:	02c12083          	lw	ra,44(sp)
   10288:	02812403          	lw	s0,40(sp)
   1028c:	03010113          	addi	sp,sp,48
   10290:	00008067          	ret

00010294 <__mulsi3>:
   10294:	fe010113          	addi	sp,sp,-32
   10298:	00112e23          	sw	ra,28(sp)
   1029c:	00812c23          	sw	s0,24(sp)
   102a0:	02010413          	addi	s0,sp,32
   102a4:	fea42623          	sw	a0,-20(s0)
   102a8:	feb42423          	sw	a1,-24(s0)
   102ac:	fe842583          	lw	a1,-24(s0)
   102b0:	fec42503          	lw	a0,-20(s0)
   102b4:	f6dff0ef          	jal	10220 <umul>
   102b8:	00050793          	mv	a5,a0
   102bc:	00078513          	mv	a0,a5
   102c0:	01c12083          	lw	ra,28(sp)
   102c4:	01812403          	lw	s0,24(sp)
   102c8:	02010113          	addi	sp,sp,32
   102cc:	00008067          	ret

000102d0 <print_int>:
   102d0:	fc010113          	addi	sp,sp,-64
   102d4:	02112e23          	sw	ra,60(sp)
   102d8:	02812c23          	sw	s0,56(sp)
   102dc:	04010413          	addi	s0,sp,64
   102e0:	fca42623          	sw	a0,-52(s0)
   102e4:	fd840793          	addi	a5,s0,-40
   102e8:	01378793          	addi	a5,a5,19
   102ec:	fef42623          	sw	a5,-20(s0)
   102f0:	fec42783          	lw	a5,-20(s0)
   102f4:	fff78793          	addi	a5,a5,-1
   102f8:	fef42623          	sw	a5,-20(s0)
   102fc:	fcc42783          	lw	a5,-52(s0)
   10300:	06079063          	bnez	a5,10360 <print_int+0x90>
   10304:	fec42783          	lw	a5,-20(s0)
   10308:	03000713          	li	a4,48
   1030c:	00e78023          	sb	a4,0(a5)
   10310:	fec42783          	lw	a5,-20(s0)
   10314:	fff78793          	addi	a5,a5,-1
   10318:	fef42623          	sw	a5,-20(s0)
   1031c:	04c0006f          	j	10368 <print_int+0x98>
   10320:	00a00593          	li	a1,10
   10324:	fcc42503          	lw	a0,-52(s0)
   10328:	e51ff0ef          	jal	10178 <umod>
   1032c:	00050793          	mv	a5,a0
   10330:	0ff7f793          	zext.b	a5,a5
   10334:	03078793          	addi	a5,a5,48
   10338:	0ff7f713          	zext.b	a4,a5
   1033c:	fec42783          	lw	a5,-20(s0)
   10340:	00e78023          	sb	a4,0(a5)
   10344:	fec42783          	lw	a5,-20(s0)
   10348:	fff78793          	addi	a5,a5,-1
   1034c:	fef42623          	sw	a5,-20(s0)
   10350:	00a00593          	li	a1,10
   10354:	fcc42503          	lw	a0,-52(s0)
   10358:	d5dff0ef          	jal	100b4 <udiv>
   1035c:	fca42623          	sw	a0,-52(s0)
   10360:	fcc42783          	lw	a5,-52(s0)
   10364:	fa079ee3          	bnez	a5,10320 <print_int+0x50>
   10368:	fec42783          	lw	a5,-20(s0)
   1036c:	00178793          	addi	a5,a5,1
   10370:	fef42623          	sw	a5,-20(s0)
   10374:	fd840793          	addi	a5,s0,-40
   10378:	01378793          	addi	a5,a5,19
   1037c:	fec42703          	lw	a4,-20(s0)
   10380:	40e78733          	sub	a4,a5,a4
   10384:	fec42783          	lw	a5,-20(s0)
   10388:	04000893          	li	a7,64
   1038c:	00100513          	li	a0,1
   10390:	00f005b3          	add	a1,zero,a5
   10394:	00070613          	mv	a2,a4
   10398:	00000073          	ecall
   1039c:	00000013          	nop
   103a0:	03c12083          	lw	ra,60(sp)
   103a4:	03812403          	lw	s0,56(sp)
   103a8:	04010113          	addi	sp,sp,64
   103ac:	00008067          	ret

000103b0 <print_char>:
   103b0:	fe010113          	addi	sp,sp,-32
   103b4:	00112e23          	sw	ra,28(sp)
   103b8:	00812c23          	sw	s0,24(sp)
   103bc:	02010413          	addi	s0,sp,32
   103c0:	00050793          	mv	a5,a0
   103c4:	fef407a3          	sb	a5,-17(s0)
   103c8:	fef40793          	addi	a5,s0,-17
   103cc:	00100713          	li	a4,1
   103d0:	04000893          	li	a7,64
   103d4:	00100513          	li	a0,1
   103d8:	00f005b3          	add	a1,zero,a5
   103dc:	00070613          	mv	a2,a4
   103e0:	00000073          	ecall
   103e4:	00000013          	nop
   103e8:	01c12083          	lw	ra,28(sp)
   103ec:	01812403          	lw	s0,24(sp)
   103f0:	02010113          	addi	sp,sp,32
   103f4:	00008067          	ret

000103f8 <strlen>:
   103f8:	fd010113          	addi	sp,sp,-48
   103fc:	02112623          	sw	ra,44(sp)
   10400:	02812423          	sw	s0,40(sp)
   10404:	03010413          	addi	s0,sp,48
   10408:	fca42e23          	sw	a0,-36(s0)
   1040c:	fe042623          	sw	zero,-20(s0)
   10410:	0100006f          	j	10420 <strlen+0x28>
   10414:	fec42783          	lw	a5,-20(s0)
   10418:	00178793          	addi	a5,a5,1
   1041c:	fef42623          	sw	a5,-20(s0)
   10420:	fdc42783          	lw	a5,-36(s0)
   10424:	00178713          	addi	a4,a5,1
   10428:	fce42e23          	sw	a4,-36(s0)
   1042c:	0007c783          	lbu	a5,0(a5)
   10430:	fe0792e3          	bnez	a5,10414 <strlen+0x1c>
   10434:	fec42783          	lw	a5,-20(s0)
   10438:	00078513          	mv	a0,a5
   1043c:	02c12083          	lw	ra,44(sp)
   10440:	02812403          	lw	s0,40(sp)
   10444:	03010113          	addi	sp,sp,48
   10448:	00008067          	ret

0001044c <puts>:
   1044c:	fd010113          	addi	sp,sp,-48
   10450:	02112623          	sw	ra,44(sp)
   10454:	02812423          	sw	s0,40(sp)
   10458:	03010413          	addi	s0,sp,48
   1045c:	fca42e23          	sw	a0,-36(s0)
   10460:	fdc42503          	lw	a0,-36(s0)
   10464:	f95ff0ef          	jal	103f8 <strlen>
   10468:	00050713          	mv	a4,a0
   1046c:	fdc42783          	lw	a5,-36(s0)
   10470:	04000893          	li	a7,64
   10474:	00100513          	li	a0,1
   10478:	00f005b3          	add	a1,zero,a5
   1047c:	00070613          	mv	a2,a4
   10480:	00000073          	ecall
   10484:	00a00793          	li	a5,10
   10488:	fef41623          	sh	a5,-20(s0)
   1048c:	fec40793          	addi	a5,s0,-20
   10490:	00100713          	li	a4,1
   10494:	04000893          	li	a7,64
   10498:	00100513          	li	a0,1
   1049c:	00f005b3          	add	a1,zero,a5
   104a0:	00070613          	mv	a2,a4
   104a4:	00000073          	ecall
   104a8:	00000793          	li	a5,0
   104ac:	00078513          	mv	a0,a5
   104b0:	02c12083          	lw	ra,44(sp)
   104b4:	02812403          	lw	s0,40(sp)
   104b8:	03010113          	addi	sp,sp,48
   104bc:	00008067          	ret

000104c0 <printf>:
   104c0:	fc010113          	addi	sp,sp,-64
   104c4:	00112e23          	sw	ra,28(sp)
   104c8:	00812c23          	sw	s0,24(sp)
   104cc:	02010413          	addi	s0,sp,32
   104d0:	fea42623          	sw	a0,-20(s0)
   104d4:	00b42223          	sw	a1,4(s0)
   104d8:	00c42423          	sw	a2,8(s0)
   104dc:	00d42623          	sw	a3,12(s0)
   104e0:	00e42823          	sw	a4,16(s0)
   104e4:	00f42a23          	sw	a5,20(s0)
   104e8:	01042c23          	sw	a6,24(s0)
   104ec:	01142e23          	sw	a7,28(s0)
   104f0:	fec42503          	lw	a0,-20(s0)
   104f4:	f05ff0ef          	jal	103f8 <strlen>
   104f8:	00050713          	mv	a4,a0
   104fc:	fec42783          	lw	a5,-20(s0)
   10500:	04000893          	li	a7,64
   10504:	00100513          	li	a0,1
   10508:	00f005b3          	add	a1,zero,a5
   1050c:	00070613          	mv	a2,a4
   10510:	00000073          	ecall
   10514:	00000793          	li	a5,0
   10518:	00078513          	mv	a0,a5
   1051c:	01c12083          	lw	ra,28(sp)
   10520:	01812403          	lw	s0,24(sp)
   10524:	04010113          	addi	sp,sp,64
   10528:	00008067          	ret

0001052c <main>:
   1052c:	f6010113          	addi	sp,sp,-160
   10530:	08112e23          	sw	ra,156(sp)
   10534:	08812c23          	sw	s0,152(sp)
   10538:	0a010413          	addi	s0,sp,160
   1053c:	000117b7          	lui	a5,0x11
   10540:	19478793          	addi	a5,a5,404 # 11194 <qz3_C_main+0x128>
   10544:	0007a803          	lw	a6,0(a5)
   10548:	0047a503          	lw	a0,4(a5)
   1054c:	0087a583          	lw	a1,8(a5)
   10550:	00c7a603          	lw	a2,12(a5)
   10554:	0107a683          	lw	a3,16(a5)
   10558:	0147a703          	lw	a4,20(a5)
   1055c:	fb042a23          	sw	a6,-76(s0)
   10560:	faa42c23          	sw	a0,-72(s0)
   10564:	fab42e23          	sw	a1,-68(s0)
   10568:	fcc42023          	sw	a2,-64(s0)
   1056c:	fcd42223          	sw	a3,-60(s0)
   10570:	fce42423          	sw	a4,-56(s0)
   10574:	0187d783          	lhu	a5,24(a5)
   10578:	fcf41623          	sh	a5,-52(s0)
   1057c:	fb440793          	addi	a5,s0,-76
   10580:	01900713          	li	a4,25
   10584:	04000893          	li	a7,64
   10588:	00100513          	li	a0,1
   1058c:	00f005b3          	add	a1,zero,a5
   10590:	00070613          	mv	a2,a4
   10594:	00000073          	ecall
   10598:	684000ef          	jal	10c1c <get_cycles>
   1059c:	00050713          	mv	a4,a0
   105a0:	00058793          	mv	a5,a1
   105a4:	fee42423          	sw	a4,-24(s0)
   105a8:	fef42623          	sw	a5,-20(s0)
   105ac:	684000ef          	jal	10c30 <get_instret>
   105b0:	00050713          	mv	a4,a0
   105b4:	00058793          	mv	a5,a1
   105b8:	fce42c23          	sw	a4,-40(s0)
   105bc:	fcf42e23          	sw	a5,-36(s0)
   105c0:	2ad000ef          	jal	1106c <qz3_C_main>
   105c4:	658000ef          	jal	10c1c <get_cycles>
   105c8:	00050713          	mv	a4,a0
   105cc:	00058793          	mv	a5,a1
   105d0:	fee42023          	sw	a4,-32(s0)
   105d4:	fef42223          	sw	a5,-28(s0)
   105d8:	658000ef          	jal	10c30 <get_instret>
   105dc:	00050713          	mv	a4,a0
   105e0:	00058793          	mv	a5,a1
   105e4:	fce42823          	sw	a4,-48(s0)
   105e8:	fcf42a23          	sw	a5,-44(s0)
   105ec:	000117b7          	lui	a5,0x11
   105f0:	1b078793          	addi	a5,a5,432 # 111b0 <qz3_C_main+0x144>
   105f4:	0007a803          	lw	a6,0(a5)
   105f8:	0047a503          	lw	a0,4(a5)
   105fc:	0087a583          	lw	a1,8(a5)
   10600:	00c7a603          	lw	a2,12(a5)
   10604:	0107a683          	lw	a3,16(a5)
   10608:	0147a703          	lw	a4,20(a5)
   1060c:	f9042c23          	sw	a6,-104(s0)
   10610:	f8a42e23          	sw	a0,-100(s0)
   10614:	fab42023          	sw	a1,-96(s0)
   10618:	fac42223          	sw	a2,-92(s0)
   1061c:	fad42423          	sw	a3,-88(s0)
   10620:	fae42623          	sw	a4,-84(s0)
   10624:	0187d703          	lhu	a4,24(a5)
   10628:	fae41823          	sh	a4,-80(s0)
   1062c:	01a7c783          	lbu	a5,26(a5)
   10630:	faf40923          	sb	a5,-78(s0)
   10634:	f9840793          	addi	a5,s0,-104
   10638:	01a00713          	li	a4,26
   1063c:	04000893          	li	a7,64
   10640:	00100513          	li	a0,1
   10644:	00f005b3          	add	a1,zero,a5
   10648:	00070613          	mv	a2,a4
   1064c:	00000073          	ecall
   10650:	000117b7          	lui	a5,0x11
   10654:	1cc78793          	addi	a5,a5,460 # 111cc <qz3_C_main+0x160>
   10658:	0007a603          	lw	a2,0(a5)
   1065c:	0047a683          	lw	a3,4(a5)
   10660:	0087a703          	lw	a4,8(a5)
   10664:	f8c42423          	sw	a2,-120(s0)
   10668:	f8d42623          	sw	a3,-116(s0)
   1066c:	f8e42823          	sw	a4,-112(s0)
   10670:	00c7d703          	lhu	a4,12(a5)
   10674:	f8e41a23          	sh	a4,-108(s0)
   10678:	00e7c783          	lbu	a5,14(a5)
   1067c:	f8f40b23          	sb	a5,-106(s0)
   10680:	f8840793          	addi	a5,s0,-120
   10684:	00e00713          	li	a4,14
   10688:	04000893          	li	a7,64
   1068c:	00100513          	li	a0,1
   10690:	00f005b3          	add	a1,zero,a5
   10694:	00070613          	mv	a2,a4
   10698:	00000073          	ecall
   1069c:	fe042703          	lw	a4,-32(s0)
   106a0:	fe442783          	lw	a5,-28(s0)
   106a4:	00070693          	mv	a3,a4
   106a8:	fe842703          	lw	a4,-24(s0)
   106ac:	fec42783          	lw	a5,-20(s0)
   106b0:	00070793          	mv	a5,a4
   106b4:	40f687b3          	sub	a5,a3,a5
   106b8:	00078513          	mv	a0,a5
   106bc:	c15ff0ef          	jal	102d0 <print_int>
   106c0:	000117b7          	lui	a5,0x11
   106c4:	1dc78793          	addi	a5,a5,476 # 111dc <qz3_C_main+0x170>
   106c8:	0007a503          	lw	a0,0(a5)
   106cc:	0047a583          	lw	a1,4(a5)
   106d0:	0087a603          	lw	a2,8(a5)
   106d4:	00c7a683          	lw	a3,12(a5)
   106d8:	0107a703          	lw	a4,16(a5)
   106dc:	f6a42823          	sw	a0,-144(s0)
   106e0:	f6b42a23          	sw	a1,-140(s0)
   106e4:	f6c42c23          	sw	a2,-136(s0)
   106e8:	f6d42e23          	sw	a3,-132(s0)
   106ec:	f8e42023          	sw	a4,-128(s0)
   106f0:	0147d783          	lhu	a5,20(a5)
   106f4:	f8f41223          	sh	a5,-124(s0)
   106f8:	f7040793          	addi	a5,s0,-144
   106fc:	01500713          	li	a4,21
   10700:	04000893          	li	a7,64
   10704:	00100513          	li	a0,1
   10708:	00f005b3          	add	a1,zero,a5
   1070c:	00070613          	mv	a2,a4
   10710:	00000073          	ecall
   10714:	fd042703          	lw	a4,-48(s0)
   10718:	fd442783          	lw	a5,-44(s0)
   1071c:	00070693          	mv	a3,a4
   10720:	fd842703          	lw	a4,-40(s0)
   10724:	fdc42783          	lw	a5,-36(s0)
   10728:	00070793          	mv	a5,a4
   1072c:	40f687b3          	sub	a5,a3,a5
   10730:	00078513          	mv	a0,a5
   10734:	b9dff0ef          	jal	102d0 <print_int>
   10738:	00a00793          	li	a5,10
   1073c:	f6f41623          	sh	a5,-148(s0)
   10740:	f6c40793          	addi	a5,s0,-148
   10744:	00100713          	li	a4,1
   10748:	04000893          	li	a7,64
   1074c:	00100513          	li	a0,1
   10750:	00f005b3          	add	a1,zero,a5
   10754:	00070613          	mv	a2,a4
   10758:	00000073          	ecall
   1075c:	00000793          	li	a5,0
   10760:	00078513          	mv	a0,a5
   10764:	09c12083          	lw	ra,156(sp)
   10768:	09812403          	lw	s0,152(sp)
   1076c:	0a010113          	addi	sp,sp,160
   10770:	00008067          	ret

00010774 <__popcountsi2>:
   10774:	fd010113          	addi	sp,sp,-48
   10778:	02112623          	sw	ra,44(sp)
   1077c:	02812423          	sw	s0,40(sp)
   10780:	03010413          	addi	s0,sp,48
   10784:	fca42e23          	sw	a0,-36(s0)
   10788:	fe042623          	sw	zero,-20(s0)
   1078c:	0240006f          	j	107b0 <__popcountsi2+0x3c>
   10790:	fdc42783          	lw	a5,-36(s0)
   10794:	fff78793          	addi	a5,a5,-1
   10798:	fdc42703          	lw	a4,-36(s0)
   1079c:	00f777b3          	and	a5,a4,a5
   107a0:	fcf42e23          	sw	a5,-36(s0)
   107a4:	fec42783          	lw	a5,-20(s0)
   107a8:	00178793          	addi	a5,a5,1
   107ac:	fef42623          	sw	a5,-20(s0)
   107b0:	fdc42783          	lw	a5,-36(s0)
   107b4:	fc079ee3          	bnez	a5,10790 <__popcountsi2+0x1c>
   107b8:	fec42783          	lw	a5,-20(s0)
   107bc:	00078513          	mv	a0,a5
   107c0:	02c12083          	lw	ra,44(sp)
   107c4:	02812403          	lw	s0,40(sp)
   107c8:	03010113          	addi	sp,sp,48
   107cc:	00008067          	ret

000107d0 <__muldi3>:
   107d0:	fd010113          	addi	sp,sp,-48
   107d4:	02112623          	sw	ra,44(sp)
   107d8:	02812423          	sw	s0,40(sp)
   107dc:	03010413          	addi	s0,sp,48
   107e0:	fca42c23          	sw	a0,-40(s0)
   107e4:	fcb42e23          	sw	a1,-36(s0)
   107e8:	fcc42823          	sw	a2,-48(s0)
   107ec:	fcd42a23          	sw	a3,-44(s0)
   107f0:	00000613          	li	a2,0
   107f4:	00000693          	li	a3,0
   107f8:	fec42423          	sw	a2,-24(s0)
   107fc:	fed42623          	sw	a3,-20(s0)
   10800:	0980006f          	j	10898 <__muldi3+0xc8>
   10804:	fd042683          	lw	a3,-48(s0)
   10808:	0016f313          	andi	t1,a3,1
   1080c:	fd442683          	lw	a3,-44(s0)
   10810:	0006f393          	andi	t2,a3,0
   10814:	00030693          	mv	a3,t1
   10818:	0076e6b3          	or	a3,a3,t2
   1081c:	02068a63          	beqz	a3,10850 <__muldi3+0x80>
   10820:	fe842503          	lw	a0,-24(s0)
   10824:	fec42583          	lw	a1,-20(s0)
   10828:	fd842e03          	lw	t3,-40(s0)
   1082c:	fdc42e83          	lw	t4,-36(s0)
   10830:	01c50633          	add	a2,a0,t3
   10834:	00060f13          	mv	t5,a2
   10838:	00af3f33          	sltu	t5,t5,a0
   1083c:	01d586b3          	add	a3,a1,t4
   10840:	00df05b3          	add	a1,t5,a3
   10844:	00058693          	mv	a3,a1
   10848:	fec42423          	sw	a2,-24(s0)
   1084c:	fed42623          	sw	a3,-20(s0)
   10850:	fd842683          	lw	a3,-40(s0)
   10854:	01f6d693          	srli	a3,a3,0x1f
   10858:	fdc42603          	lw	a2,-36(s0)
   1085c:	00161793          	slli	a5,a2,0x1
   10860:	00f6e7b3          	or	a5,a3,a5
   10864:	fd842683          	lw	a3,-40(s0)
   10868:	00169713          	slli	a4,a3,0x1
   1086c:	fce42c23          	sw	a4,-40(s0)
   10870:	fcf42e23          	sw	a5,-36(s0)
   10874:	fd442683          	lw	a3,-44(s0)
   10878:	01f69693          	slli	a3,a3,0x1f
   1087c:	fd042603          	lw	a2,-48(s0)
   10880:	00165813          	srli	a6,a2,0x1
   10884:	0106e833          	or	a6,a3,a6
   10888:	fd442683          	lw	a3,-44(s0)
   1088c:	0016d893          	srli	a7,a3,0x1
   10890:	fd042823          	sw	a6,-48(s0)
   10894:	fd142a23          	sw	a7,-44(s0)
   10898:	fd042683          	lw	a3,-48(s0)
   1089c:	fd442603          	lw	a2,-44(s0)
   108a0:	00c6e6b3          	or	a3,a3,a2
   108a4:	f60690e3          	bnez	a3,10804 <__muldi3+0x34>
   108a8:	fe842703          	lw	a4,-24(s0)
   108ac:	fec42783          	lw	a5,-20(s0)
   108b0:	00070513          	mv	a0,a4
   108b4:	00078593          	mv	a1,a5
   108b8:	02c12083          	lw	ra,44(sp)
   108bc:	02812403          	lw	s0,40(sp)
   108c0:	03010113          	addi	sp,sp,48
   108c4:	00008067          	ret

000108c8 <__udivdi3>:
   108c8:	fb010113          	addi	sp,sp,-80
   108cc:	04112623          	sw	ra,76(sp)
   108d0:	04812423          	sw	s0,72(sp)
   108d4:	05212223          	sw	s2,68(sp)
   108d8:	05312023          	sw	s3,64(sp)
   108dc:	03412e23          	sw	s4,60(sp)
   108e0:	03512c23          	sw	s5,56(sp)
   108e4:	05010413          	addi	s0,sp,80
   108e8:	faa42c23          	sw	a0,-72(s0)
   108ec:	fab42e23          	sw	a1,-68(s0)
   108f0:	fac42823          	sw	a2,-80(s0)
   108f4:	fad42a23          	sw	a3,-76(s0)
   108f8:	fb042683          	lw	a3,-80(s0)
   108fc:	fb442603          	lw	a2,-76(s0)
   10900:	00c6e6b3          	or	a3,a3,a2
   10904:	00069863          	bnez	a3,10914 <__udivdi3+0x4c>
   10908:	00000713          	li	a4,0
   1090c:	00000793          	li	a5,0
   10910:	1700006f          	j	10a80 <__udivdi3+0x1b8>
   10914:	00000613          	li	a2,0
   10918:	00000693          	li	a3,0
   1091c:	fcc42c23          	sw	a2,-40(s0)
   10920:	fcd42e23          	sw	a3,-36(s0)
   10924:	fcc42823          	sw	a2,-48(s0)
   10928:	fcd42a23          	sw	a3,-44(s0)
   1092c:	03f00693          	li	a3,63
   10930:	fcd42623          	sw	a3,-52(s0)
   10934:	13c0006f          	j	10a70 <__udivdi3+0x1a8>
   10938:	fd042683          	lw	a3,-48(s0)
   1093c:	01f6d693          	srli	a3,a3,0x1f
   10940:	fd442603          	lw	a2,-44(s0)
   10944:	00161893          	slli	a7,a2,0x1
   10948:	0116e8b3          	or	a7,a3,a7
   1094c:	fd042683          	lw	a3,-48(s0)
   10950:	00169813          	slli	a6,a3,0x1
   10954:	fd042823          	sw	a6,-48(s0)
   10958:	fd142a23          	sw	a7,-44(s0)
   1095c:	fcc42683          	lw	a3,-52(s0)
   10960:	fe068693          	addi	a3,a3,-32
   10964:	0006ca63          	bltz	a3,10978 <__udivdi3+0xb0>
   10968:	fbc42603          	lw	a2,-68(s0)
   1096c:	00d65733          	srl	a4,a2,a3
   10970:	00000793          	li	a5,0
   10974:	0380006f          	j	109ac <__udivdi3+0xe4>
   10978:	fbc42683          	lw	a3,-68(s0)
   1097c:	00169613          	slli	a2,a3,0x1
   10980:	01f00593          	li	a1,31
   10984:	fcc42683          	lw	a3,-52(s0)
   10988:	40d586b3          	sub	a3,a1,a3
   1098c:	00d616b3          	sll	a3,a2,a3
   10990:	fcc42603          	lw	a2,-52(s0)
   10994:	fb842583          	lw	a1,-72(s0)
   10998:	00c5d733          	srl	a4,a1,a2
   1099c:	00e6e733          	or	a4,a3,a4
   109a0:	fcc42683          	lw	a3,-52(s0)
   109a4:	fbc42603          	lw	a2,-68(s0)
   109a8:	00d657b3          	srl	a5,a2,a3
   109ac:	00177e13          	andi	t3,a4,1
   109b0:	0007fe93          	andi	t4,a5,0
   109b4:	fd042683          	lw	a3,-48(s0)
   109b8:	01c6ef33          	or	t5,a3,t3
   109bc:	fd442683          	lw	a3,-44(s0)
   109c0:	01d6efb3          	or	t6,a3,t4
   109c4:	fde42823          	sw	t5,-48(s0)
   109c8:	fdf42a23          	sw	t6,-44(s0)
   109cc:	fb442603          	lw	a2,-76(s0)
   109d0:	fd442683          	lw	a3,-44(s0)
   109d4:	08c6e863          	bltu	a3,a2,10a64 <__udivdi3+0x19c>
   109d8:	fb442603          	lw	a2,-76(s0)
   109dc:	fd442683          	lw	a3,-44(s0)
   109e0:	00d61863          	bne	a2,a3,109f0 <__udivdi3+0x128>
   109e4:	fb042603          	lw	a2,-80(s0)
   109e8:	fd042683          	lw	a3,-48(s0)
   109ec:	06c6ec63          	bltu	a3,a2,10a64 <__udivdi3+0x19c>
   109f0:	fd042503          	lw	a0,-48(s0)
   109f4:	fd442583          	lw	a1,-44(s0)
   109f8:	fb042a03          	lw	s4,-80(s0)
   109fc:	fb442a83          	lw	s5,-76(s0)
   10a00:	41450633          	sub	a2,a0,s4
   10a04:	00060293          	mv	t0,a2
   10a08:	005532b3          	sltu	t0,a0,t0
   10a0c:	415586b3          	sub	a3,a1,s5
   10a10:	405685b3          	sub	a1,a3,t0
   10a14:	00058693          	mv	a3,a1
   10a18:	fcc42823          	sw	a2,-48(s0)
   10a1c:	fcd42a23          	sw	a3,-44(s0)
   10a20:	fcc42683          	lw	a3,-52(s0)
   10a24:	fe068693          	addi	a3,a3,-32
   10a28:	0006ca63          	bltz	a3,10a3c <__udivdi3+0x174>
   10a2c:	00100613          	li	a2,1
   10a30:	00d613b3          	sll	t2,a2,a3
   10a34:	00000313          	li	t1,0
   10a38:	0140006f          	j	10a4c <__udivdi3+0x184>
   10a3c:	00000393          	li	t2,0
   10a40:	fcc42683          	lw	a3,-52(s0)
   10a44:	00100613          	li	a2,1
   10a48:	00d61333          	sll	t1,a2,a3
   10a4c:	fd842683          	lw	a3,-40(s0)
   10a50:	0066e933          	or	s2,a3,t1
   10a54:	fdc42683          	lw	a3,-36(s0)
   10a58:	0076e9b3          	or	s3,a3,t2
   10a5c:	fd242c23          	sw	s2,-40(s0)
   10a60:	fd342e23          	sw	s3,-36(s0)
   10a64:	fcc42683          	lw	a3,-52(s0)
   10a68:	fff68693          	addi	a3,a3,-1
   10a6c:	fcd42623          	sw	a3,-52(s0)
   10a70:	fcc42683          	lw	a3,-52(s0)
   10a74:	ec06d2e3          	bgez	a3,10938 <__udivdi3+0x70>
   10a78:	fd842703          	lw	a4,-40(s0)
   10a7c:	fdc42783          	lw	a5,-36(s0)
   10a80:	00070513          	mv	a0,a4
   10a84:	00078593          	mv	a1,a5
   10a88:	04c12083          	lw	ra,76(sp)
   10a8c:	04812403          	lw	s0,72(sp)
   10a90:	04412903          	lw	s2,68(sp)
   10a94:	04012983          	lw	s3,64(sp)
   10a98:	03c12a03          	lw	s4,60(sp)
   10a9c:	03812a83          	lw	s5,56(sp)
   10aa0:	05010113          	addi	sp,sp,80
   10aa4:	00008067          	ret

00010aa8 <__umoddi3>:
   10aa8:	fd010113          	addi	sp,sp,-48
   10aac:	02112623          	sw	ra,44(sp)
   10ab0:	02812423          	sw	s0,40(sp)
   10ab4:	03010413          	addi	s0,sp,48
   10ab8:	fca42c23          	sw	a0,-40(s0)
   10abc:	fcb42e23          	sw	a1,-36(s0)
   10ac0:	fcc42823          	sw	a2,-48(s0)
   10ac4:	fcd42a23          	sw	a3,-44(s0)
   10ac8:	fd042683          	lw	a3,-48(s0)
   10acc:	fd442603          	lw	a2,-44(s0)
   10ad0:	00c6e6b3          	or	a3,a3,a2
   10ad4:	00069863          	bnez	a3,10ae4 <__umoddi3+0x3c>
   10ad8:	00000713          	li	a4,0
   10adc:	00000793          	li	a5,0
   10ae0:	1240006f          	j	10c04 <__umoddi3+0x15c>
   10ae4:	00000613          	li	a2,0
   10ae8:	00000693          	li	a3,0
   10aec:	fec42423          	sw	a2,-24(s0)
   10af0:	fed42623          	sw	a3,-20(s0)
   10af4:	03f00693          	li	a3,63
   10af8:	fed42223          	sw	a3,-28(s0)
   10afc:	0f80006f          	j	10bf4 <__umoddi3+0x14c>
   10b00:	fe842683          	lw	a3,-24(s0)
   10b04:	01f6d693          	srli	a3,a3,0x1f
   10b08:	fec42603          	lw	a2,-20(s0)
   10b0c:	00161893          	slli	a7,a2,0x1
   10b10:	0116e8b3          	or	a7,a3,a7
   10b14:	fe842683          	lw	a3,-24(s0)
   10b18:	00169813          	slli	a6,a3,0x1
   10b1c:	ff042423          	sw	a6,-24(s0)
   10b20:	ff142623          	sw	a7,-20(s0)
   10b24:	fe442683          	lw	a3,-28(s0)
   10b28:	fe068693          	addi	a3,a3,-32
   10b2c:	0006ca63          	bltz	a3,10b40 <__umoddi3+0x98>
   10b30:	fdc42603          	lw	a2,-36(s0)
   10b34:	00d65733          	srl	a4,a2,a3
   10b38:	00000793          	li	a5,0
   10b3c:	0380006f          	j	10b74 <__umoddi3+0xcc>
   10b40:	fdc42683          	lw	a3,-36(s0)
   10b44:	00169613          	slli	a2,a3,0x1
   10b48:	01f00593          	li	a1,31
   10b4c:	fe442683          	lw	a3,-28(s0)
   10b50:	40d586b3          	sub	a3,a1,a3
   10b54:	00d616b3          	sll	a3,a2,a3
   10b58:	fe442603          	lw	a2,-28(s0)
   10b5c:	fd842583          	lw	a1,-40(s0)
   10b60:	00c5d733          	srl	a4,a1,a2
   10b64:	00e6e733          	or	a4,a3,a4
   10b68:	fe442683          	lw	a3,-28(s0)
   10b6c:	fdc42603          	lw	a2,-36(s0)
   10b70:	00d657b3          	srl	a5,a2,a3
   10b74:	00177313          	andi	t1,a4,1
   10b78:	0007f393          	andi	t2,a5,0
   10b7c:	fe842683          	lw	a3,-24(s0)
   10b80:	0066ee33          	or	t3,a3,t1
   10b84:	fec42683          	lw	a3,-20(s0)
   10b88:	0076eeb3          	or	t4,a3,t2
   10b8c:	ffc42423          	sw	t3,-24(s0)
   10b90:	ffd42623          	sw	t4,-20(s0)
   10b94:	fd442603          	lw	a2,-44(s0)
   10b98:	fec42683          	lw	a3,-20(s0)
   10b9c:	04c6e663          	bltu	a3,a2,10be8 <__umoddi3+0x140>
   10ba0:	fd442603          	lw	a2,-44(s0)
   10ba4:	fec42683          	lw	a3,-20(s0)
   10ba8:	00d61863          	bne	a2,a3,10bb8 <__umoddi3+0x110>
   10bac:	fd042603          	lw	a2,-48(s0)
   10bb0:	fe842683          	lw	a3,-24(s0)
   10bb4:	02c6ea63          	bltu	a3,a2,10be8 <__umoddi3+0x140>
   10bb8:	fe842503          	lw	a0,-24(s0)
   10bbc:	fec42583          	lw	a1,-20(s0)
   10bc0:	fd042f03          	lw	t5,-48(s0)
   10bc4:	fd442f83          	lw	t6,-44(s0)
   10bc8:	41e50633          	sub	a2,a0,t5
   10bcc:	00060293          	mv	t0,a2
   10bd0:	005532b3          	sltu	t0,a0,t0
   10bd4:	41f586b3          	sub	a3,a1,t6
   10bd8:	405685b3          	sub	a1,a3,t0
   10bdc:	00058693          	mv	a3,a1
   10be0:	fec42423          	sw	a2,-24(s0)
   10be4:	fed42623          	sw	a3,-20(s0)
   10be8:	fe442683          	lw	a3,-28(s0)
   10bec:	fff68693          	addi	a3,a3,-1
   10bf0:	fed42223          	sw	a3,-28(s0)
   10bf4:	fe442683          	lw	a3,-28(s0)
   10bf8:	f006d4e3          	bgez	a3,10b00 <__umoddi3+0x58>
   10bfc:	fe842703          	lw	a4,-24(s0)
   10c00:	fec42783          	lw	a5,-20(s0)
   10c04:	00070513          	mv	a0,a4
   10c08:	00078593          	mv	a1,a5
   10c0c:	02c12083          	lw	ra,44(sp)
   10c10:	02812403          	lw	s0,40(sp)
   10c14:	03010113          	addi	sp,sp,48
   10c18:	00008067          	ret

00010c1c <get_cycles>:
   10c1c:	c80025f3          	rdcycleh	a1
   10c20:	c0002573          	rdcycle	a0
   10c24:	c8002673          	rdcycleh	a2
   10c28:	fec59ae3          	bne	a1,a2,10c1c <get_cycles>
   10c2c:	00008067          	ret

00010c30 <get_instret>:
   10c30:	c82025f3          	rdinstreth	a1
   10c34:	c0202573          	rdinstret	a0
   10c38:	c8202673          	rdinstreth	a2
   10c3c:	fec59ae3          	bne	a1,a2,10c30 <get_instret>
   10c40:	00008067          	ret

00010c44 <clz>:
   10c44:	fd010113          	addi	sp,sp,-48
   10c48:	02112623          	sw	ra,44(sp)
   10c4c:	02812423          	sw	s0,40(sp)
   10c50:	03010413          	addi	s0,sp,48
   10c54:	fca42e23          	sw	a0,-36(s0)
   10c58:	fdc42783          	lw	a5,-36(s0)
   10c5c:	00079663          	bnez	a5,10c68 <clz+0x24>
   10c60:	02000793          	li	a5,32
   10c64:	0300006f          	j	10c94 <clz+0x50>
   10c68:	fe042623          	sw	zero,-20(s0)
   10c6c:	01c0006f          	j	10c88 <clz+0x44>
   10c70:	fec42783          	lw	a5,-20(s0)
   10c74:	00178793          	addi	a5,a5,1
   10c78:	fef42623          	sw	a5,-20(s0)
   10c7c:	fdc42783          	lw	a5,-36(s0)
   10c80:	00179793          	slli	a5,a5,0x1
   10c84:	fcf42e23          	sw	a5,-36(s0)
   10c88:	fdc42783          	lw	a5,-36(s0)
   10c8c:	fe07d2e3          	bgez	a5,10c70 <clz+0x2c>
   10c90:	fec42783          	lw	a5,-20(s0)
   10c94:	00078513          	mv	a0,a5
   10c98:	02c12083          	lw	ra,44(sp)
   10c9c:	02812403          	lw	s0,40(sp)
   10ca0:	03010113          	addi	sp,sp,48
   10ca4:	00008067          	ret

00010ca8 <mul_q16>:
   10ca8:	fc010113          	addi	sp,sp,-64
   10cac:	02112e23          	sw	ra,60(sp)
   10cb0:	02812c23          	sw	s0,56(sp)
   10cb4:	04010413          	addi	s0,sp,64
   10cb8:	fca42623          	sw	a0,-52(s0)
   10cbc:	fcb42423          	sw	a1,-56(s0)
   10cc0:	fcc42783          	lw	a5,-52(s0)
   10cc4:	0107d793          	srli	a5,a5,0x10
   10cc8:	fef42623          	sw	a5,-20(s0)
   10ccc:	fcc42783          	lw	a5,-52(s0)
   10cd0:	01079793          	slli	a5,a5,0x10
   10cd4:	0107d793          	srli	a5,a5,0x10
   10cd8:	fef42423          	sw	a5,-24(s0)
   10cdc:	fc842783          	lw	a5,-56(s0)
   10ce0:	0107d793          	srli	a5,a5,0x10
   10ce4:	fef42223          	sw	a5,-28(s0)
   10ce8:	fc842783          	lw	a5,-56(s0)
   10cec:	01079793          	slli	a5,a5,0x10
   10cf0:	0107d793          	srli	a5,a5,0x10
   10cf4:	fef42023          	sw	a5,-32(s0)
   10cf8:	fec42703          	lw	a4,-20(s0)
   10cfc:	fe442783          	lw	a5,-28(s0)
   10d00:	02f707b3          	mul	a5,a4,a5
   10d04:	fcf42e23          	sw	a5,-36(s0)
   10d08:	fec42703          	lw	a4,-20(s0)
   10d0c:	fe042783          	lw	a5,-32(s0)
   10d10:	02f70733          	mul	a4,a4,a5
   10d14:	fe842683          	lw	a3,-24(s0)
   10d18:	fe442783          	lw	a5,-28(s0)
   10d1c:	02f687b3          	mul	a5,a3,a5
   10d20:	00f707b3          	add	a5,a4,a5
   10d24:	fcf42c23          	sw	a5,-40(s0)
   10d28:	fe842703          	lw	a4,-24(s0)
   10d2c:	fe042783          	lw	a5,-32(s0)
   10d30:	02f707b3          	mul	a5,a4,a5
   10d34:	fcf42a23          	sw	a5,-44(s0)
   10d38:	fdc42783          	lw	a5,-36(s0)
   10d3c:	01079713          	slli	a4,a5,0x10
   10d40:	fd842783          	lw	a5,-40(s0)
   10d44:	00f70733          	add	a4,a4,a5
   10d48:	fd442783          	lw	a5,-44(s0)
   10d4c:	0107d793          	srli	a5,a5,0x10
   10d50:	00f707b3          	add	a5,a4,a5
   10d54:	00078513          	mv	a0,a5
   10d58:	03c12083          	lw	ra,60(sp)
   10d5c:	03812403          	lw	s0,56(sp)
   10d60:	04010113          	addi	sp,sp,64
   10d64:	00008067          	ret

00010d68 <newton_step>:
   10d68:	fc010113          	addi	sp,sp,-64
   10d6c:	02112e23          	sw	ra,60(sp)
   10d70:	02812c23          	sw	s0,56(sp)
   10d74:	04010413          	addi	s0,sp,64
   10d78:	fca42623          	sw	a0,-52(s0)
   10d7c:	fcb42423          	sw	a1,-56(s0)
   10d80:	fcc42583          	lw	a1,-52(s0)
   10d84:	fcc42503          	lw	a0,-52(s0)
   10d88:	f21ff0ef          	jal	10ca8 <mul_q16>
   10d8c:	fea42623          	sw	a0,-20(s0)
   10d90:	fec42583          	lw	a1,-20(s0)
   10d94:	fc842503          	lw	a0,-56(s0)
   10d98:	f11ff0ef          	jal	10ca8 <mul_q16>
   10d9c:	fea42423          	sw	a0,-24(s0)
   10da0:	fe842783          	lw	a5,-24(s0)
   10da4:	0017d793          	srli	a5,a5,0x1
   10da8:	fef42223          	sw	a5,-28(s0)
   10dac:	000187b7          	lui	a5,0x18
   10db0:	fef42023          	sw	a5,-32(s0)
   10db4:	fe042703          	lw	a4,-32(s0)
   10db8:	fe442783          	lw	a5,-28(s0)
   10dbc:	00e7fa63          	bgeu	a5,a4,10dd0 <newton_step+0x68>
   10dc0:	fe042703          	lw	a4,-32(s0)
   10dc4:	fe442783          	lw	a5,-28(s0)
   10dc8:	40f707b3          	sub	a5,a4,a5
   10dcc:	0080006f          	j	10dd4 <newton_step+0x6c>
   10dd0:	00000793          	li	a5,0
   10dd4:	fcf42e23          	sw	a5,-36(s0)
   10dd8:	fdc42583          	lw	a1,-36(s0)
   10ddc:	fcc42503          	lw	a0,-52(s0)
   10de0:	ec9ff0ef          	jal	10ca8 <mul_q16>
   10de4:	00050793          	mv	a5,a0
   10de8:	00078513          	mv	a0,a5
   10dec:	03c12083          	lw	ra,60(sp)
   10df0:	03812403          	lw	s0,56(sp)
   10df4:	04010113          	addi	sp,sp,64
   10df8:	00008067          	ret

00010dfc <fast_rsqrt>:
   10dfc:	fc010113          	addi	sp,sp,-64
   10e00:	02112e23          	sw	ra,60(sp)
   10e04:	02812c23          	sw	s0,56(sp)
   10e08:	04010413          	addi	s0,sp,64
   10e0c:	fca42623          	sw	a0,-52(s0)
   10e10:	fcc42783          	lw	a5,-52(s0)
   10e14:	00079663          	bnez	a5,10e20 <fast_rsqrt+0x24>
   10e18:	fff00793          	li	a5,-1
   10e1c:	1140006f          	j	10f30 <fast_rsqrt+0x134>
   10e20:	fcc42503          	lw	a0,-52(s0)
   10e24:	e21ff0ef          	jal	10c44 <clz>
   10e28:	00050713          	mv	a4,a0
   10e2c:	01f00793          	li	a5,31
   10e30:	40e787b3          	sub	a5,a5,a4
   10e34:	fef42623          	sw	a5,-20(s0)
   10e38:	000117b7          	lui	a5,0x11
   10e3c:	1f478713          	addi	a4,a5,500 # 111f4 <rsqrt_table>
   10e40:	fec42783          	lw	a5,-20(s0)
   10e44:	00279793          	slli	a5,a5,0x2
   10e48:	00f707b3          	add	a5,a4,a5
   10e4c:	0007a783          	lw	a5,0(a5)
   10e50:	fef42423          	sw	a5,-24(s0)
   10e54:	fec42703          	lw	a4,-20(s0)
   10e58:	01e00793          	li	a5,30
   10e5c:	02e7c263          	blt	a5,a4,10e80 <fast_rsqrt+0x84>
   10e60:	fec42783          	lw	a5,-20(s0)
   10e64:	00178793          	addi	a5,a5,1
   10e68:	00011737          	lui	a4,0x11
   10e6c:	1f470713          	addi	a4,a4,500 # 111f4 <rsqrt_table>
   10e70:	00279793          	slli	a5,a5,0x2
   10e74:	00f707b3          	add	a5,a4,a5
   10e78:	0007a783          	lw	a5,0(a5)
   10e7c:	0080006f          	j	10e84 <fast_rsqrt+0x88>
   10e80:	00000793          	li	a5,0
   10e84:	fef42223          	sw	a5,-28(s0)
   10e88:	fe842703          	lw	a4,-24(s0)
   10e8c:	fe442783          	lw	a5,-28(s0)
   10e90:	40f707b3          	sub	a5,a4,a5
   10e94:	fef42023          	sw	a5,-32(s0)
   10e98:	fec42783          	lw	a5,-20(s0)
   10e9c:	00100713          	li	a4,1
   10ea0:	00f717b3          	sll	a5,a4,a5
   10ea4:	fcf42e23          	sw	a5,-36(s0)
   10ea8:	fcc42703          	lw	a4,-52(s0)
   10eac:	fdc42783          	lw	a5,-36(s0)
   10eb0:	40f707b3          	sub	a5,a4,a5
   10eb4:	fcf42c23          	sw	a5,-40(s0)
   10eb8:	fec42703          	lw	a4,-20(s0)
   10ebc:	01000793          	li	a5,16
   10ec0:	00e7ce63          	blt	a5,a4,10edc <fast_rsqrt+0xe0>
   10ec4:	01000713          	li	a4,16
   10ec8:	fec42783          	lw	a5,-20(s0)
   10ecc:	40f707b3          	sub	a5,a4,a5
   10ed0:	fd842703          	lw	a4,-40(s0)
   10ed4:	00f717b3          	sll	a5,a4,a5
   10ed8:	0140006f          	j	10eec <fast_rsqrt+0xf0>
   10edc:	fec42783          	lw	a5,-20(s0)
   10ee0:	ff078793          	addi	a5,a5,-16
   10ee4:	fd842703          	lw	a4,-40(s0)
   10ee8:	00f757b3          	srl	a5,a4,a5
   10eec:	fcf42a23          	sw	a5,-44(s0)
   10ef0:	fe042703          	lw	a4,-32(s0)
   10ef4:	fd442783          	lw	a5,-44(s0)
   10ef8:	02f707b3          	mul	a5,a4,a5
   10efc:	0107d793          	srli	a5,a5,0x10
   10f00:	fe842703          	lw	a4,-24(s0)
   10f04:	40f707b3          	sub	a5,a4,a5
   10f08:	fef42423          	sw	a5,-24(s0)
   10f0c:	fcc42583          	lw	a1,-52(s0)
   10f10:	fe842503          	lw	a0,-24(s0)
   10f14:	e55ff0ef          	jal	10d68 <newton_step>
   10f18:	fea42423          	sw	a0,-24(s0)
   10f1c:	fcc42583          	lw	a1,-52(s0)
   10f20:	fe842503          	lw	a0,-24(s0)
   10f24:	e45ff0ef          	jal	10d68 <newton_step>
   10f28:	fea42423          	sw	a0,-24(s0)
   10f2c:	fe842783          	lw	a5,-24(s0)
   10f30:	00078513          	mv	a0,a5
   10f34:	03c12083          	lw	ra,60(sp)
   10f38:	03812403          	lw	s0,56(sp)
   10f3c:	04010113          	addi	sp,sp,64
   10f40:	00008067          	ret

00010f44 <fast_distance_3d>:
   10f44:	fc010113          	addi	sp,sp,-64
   10f48:	02112e23          	sw	ra,60(sp)
   10f4c:	02812c23          	sw	s0,56(sp)
   10f50:	04010413          	addi	s0,sp,64
   10f54:	fca42623          	sw	a0,-52(s0)
   10f58:	fcb42423          	sw	a1,-56(s0)
   10f5c:	fcc42223          	sw	a2,-60(s0)
   10f60:	fcc42783          	lw	a5,-52(s0)
   10f64:	02f787b3          	mul	a5,a5,a5
   10f68:	fef42623          	sw	a5,-20(s0)
   10f6c:	fc842783          	lw	a5,-56(s0)
   10f70:	02f787b3          	mul	a5,a5,a5
   10f74:	fef42423          	sw	a5,-24(s0)
   10f78:	fc442783          	lw	a5,-60(s0)
   10f7c:	02f787b3          	mul	a5,a5,a5
   10f80:	fef42223          	sw	a5,-28(s0)
   10f84:	fec42703          	lw	a4,-20(s0)
   10f88:	fe842783          	lw	a5,-24(s0)
   10f8c:	00f707b3          	add	a5,a4,a5
   10f90:	fe442703          	lw	a4,-28(s0)
   10f94:	00f707b3          	add	a5,a4,a5
   10f98:	fef42023          	sw	a5,-32(s0)
   10f9c:	fe042783          	lw	a5,-32(s0)
   10fa0:	00079663          	bnez	a5,10fac <fast_distance_3d+0x68>
   10fa4:	00000793          	li	a5,0
   10fa8:	0200006f          	j	10fc8 <fast_distance_3d+0x84>
   10fac:	fe042503          	lw	a0,-32(s0)
   10fb0:	e4dff0ef          	jal	10dfc <fast_rsqrt>
   10fb4:	fca42e23          	sw	a0,-36(s0)
   10fb8:	fdc42583          	lw	a1,-36(s0)
   10fbc:	fe042503          	lw	a0,-32(s0)
   10fc0:	ce9ff0ef          	jal	10ca8 <mul_q16>
   10fc4:	00050793          	mv	a5,a0
   10fc8:	00078513          	mv	a0,a5
   10fcc:	03c12083          	lw	ra,60(sp)
   10fd0:	03812403          	lw	s0,56(sp)
   10fd4:	04010113          	addi	sp,sp,64
   10fd8:	00008067          	ret

00010fdc <check_result>:
   10fdc:	fe010113          	addi	sp,sp,-32
   10fe0:	00112e23          	sw	ra,28(sp)
   10fe4:	00812c23          	sw	s0,24(sp)
   10fe8:	02010413          	addi	s0,sp,32
   10fec:	fea42623          	sw	a0,-20(s0)
   10ff0:	feb42423          	sw	a1,-24(s0)
   10ff4:	fec42223          	sw	a2,-28(s0)
   10ff8:	000117b7          	lui	a5,0x11
   10ffc:	27478513          	addi	a0,a5,628 # 11274 <rsqrt_table+0x80>
   11000:	cc0ff0ef          	jal	104c0 <printf>
   11004:	000117b7          	lui	a5,0x11
   11008:	27c78513          	addi	a0,a5,636 # 1127c <rsqrt_table+0x88>
   1100c:	cb4ff0ef          	jal	104c0 <printf>
   11010:	fe442503          	lw	a0,-28(s0)
   11014:	abcff0ef          	jal	102d0 <print_int>
   11018:	fe442783          	lw	a5,-28(s0)
   1101c:	ffe78793          	addi	a5,a5,-2
   11020:	fe842703          	lw	a4,-24(s0)
   11024:	02f76263          	bltu	a4,a5,11048 <check_result+0x6c>
   11028:	fe442783          	lw	a5,-28(s0)
   1102c:	00278793          	addi	a5,a5,2
   11030:	fe842703          	lw	a4,-24(s0)
   11034:	00e7ea63          	bltu	a5,a4,11048 <check_result+0x6c>
   11038:	000117b7          	lui	a5,0x11
   1103c:	28878513          	addi	a0,a5,648 # 11288 <rsqrt_table+0x94>
   11040:	c0cff0ef          	jal	1044c <puts>
   11044:	0140006f          	j	11058 <check_result+0x7c>
   11048:	000117b7          	lui	a5,0x11
   1104c:	29078513          	addi	a0,a5,656 # 11290 <rsqrt_table+0x9c>
   11050:	bfcff0ef          	jal	1044c <puts>
   11054:	00000013          	nop
   11058:	00000013          	nop
   1105c:	01c12083          	lw	ra,28(sp)
   11060:	01812403          	lw	s0,24(sp)
   11064:	02010113          	addi	sp,sp,32
   11068:	00008067          	ret

0001106c <qz3_C_main>:
   1106c:	ff010113          	addi	sp,sp,-16
   11070:	00112623          	sw	ra,12(sp)
   11074:	00812423          	sw	s0,8(sp)
   11078:	01010413          	addi	s0,sp,16
   1107c:	000117b7          	lui	a5,0x11
   11080:	29c78513          	addi	a0,a5,668 # 1129c <rsqrt_table+0xa8>
   11084:	bc8ff0ef          	jal	1044c <puts>
   11088:	00100513          	li	a0,1
   1108c:	d71ff0ef          	jal	10dfc <fast_rsqrt>
   11090:	00050793          	mv	a5,a0
   11094:	00010637          	lui	a2,0x10
   11098:	00078593          	mv	a1,a5
   1109c:	000117b7          	lui	a5,0x11
   110a0:	2b878513          	addi	a0,a5,696 # 112b8 <rsqrt_table+0xc4>
   110a4:	f39ff0ef          	jal	10fdc <check_result>
   110a8:	01000513          	li	a0,16
   110ac:	d51ff0ef          	jal	10dfc <fast_rsqrt>
   110b0:	00050793          	mv	a5,a0
   110b4:	00004637          	lui	a2,0x4
   110b8:	00078593          	mv	a1,a5
   110bc:	000117b7          	lui	a5,0x11
   110c0:	2c478513          	addi	a0,a5,708 # 112c4 <rsqrt_table+0xd0>
   110c4:	f19ff0ef          	jal	10fdc <check_result>
   110c8:	40000513          	li	a0,1024
   110cc:	d31ff0ef          	jal	10dfc <fast_rsqrt>
   110d0:	00050713          	mv	a4,a0
   110d4:	000017b7          	lui	a5,0x1
   110d8:	80078613          	addi	a2,a5,-2048 # 800 <_start-0xf800>
   110dc:	00070593          	mv	a1,a4
   110e0:	000117b7          	lui	a5,0x11
   110e4:	2d078513          	addi	a0,a5,720 # 112d0 <rsqrt_table+0xdc>
   110e8:	ef5ff0ef          	jal	10fdc <check_result>
   110ec:	000117b7          	lui	a5,0x11
   110f0:	2dc78513          	addi	a0,a5,732 # 112dc <rsqrt_table+0xe8>
   110f4:	b58ff0ef          	jal	1044c <puts>
   110f8:	00000613          	li	a2,0
   110fc:	00400593          	li	a1,4
   11100:	00300513          	li	a0,3
   11104:	e41ff0ef          	jal	10f44 <fast_distance_3d>
   11108:	00050793          	mv	a5,a0
   1110c:	00500613          	li	a2,5
   11110:	00078593          	mv	a1,a5
   11114:	000117b7          	lui	a5,0x11
   11118:	30078513          	addi	a0,a5,768 # 11300 <rsqrt_table+0x10c>
   1111c:	ec1ff0ef          	jal	10fdc <check_result>
   11120:	00000613          	li	a2,0
   11124:	00000593          	li	a1,0
   11128:	00a00513          	li	a0,10
   1112c:	e19ff0ef          	jal	10f44 <fast_distance_3d>
   11130:	00050793          	mv	a5,a0
   11134:	00a00613          	li	a2,10
   11138:	00078593          	mv	a1,a5
   1113c:	000117b7          	lui	a5,0x11
   11140:	30c78513          	addi	a0,a5,780 # 1130c <rsqrt_table+0x118>
   11144:	e99ff0ef          	jal	10fdc <check_result>
   11148:	00a00613          	li	a2,10
   1114c:	00a00593          	li	a1,10
   11150:	00a00513          	li	a0,10
   11154:	df1ff0ef          	jal	10f44 <fast_distance_3d>
   11158:	00050793          	mv	a5,a0
   1115c:	01100613          	li	a2,17
   11160:	00078593          	mv	a1,a5
   11164:	000117b7          	lui	a5,0x11
   11168:	31c78513          	addi	a0,a5,796 # 1131c <rsqrt_table+0x128>
   1116c:	e71ff0ef          	jal	10fdc <check_result>
   11170:	000117b7          	lui	a5,0x11
   11174:	32c78513          	addi	a0,a5,812 # 1132c <rsqrt_table+0x138>
   11178:	ad4ff0ef          	jal	1044c <puts>
   1117c:	00000793          	li	a5,0
   11180:	00078513          	mv	a0,a5
   11184:	00c12083          	lw	ra,12(sp)
   11188:	00812403          	lw	s0,8(sp)
   1118c:	01010113          	addi	sp,sp,16
   11190:	00008067          	ret
